
fly_bird.elf:     file format elf32-littleriscv
fly_bird.elf
architecture: riscv:rv32, flags 0x00000112:
EXEC_P, HAS_SYMS, D_PAGED
start address 0x80000000

Program Header:
    LOAD off    0x00001000 vaddr 0x80000000 paddr 0x80000000 align 2**12
         filesz 0x00006350 memsz 0x00006350 flags r-x
    LOAD off    0x00008000 vaddr 0x90000000 paddr 0x80006350 align 2**12
         filesz 0x00000088 memsz 0x00000364 flags rw-
    LOAD off    0x00000800 vaddr 0x90007800 paddr 0x800063d8 align 2**12
         filesz 0x00000000 memsz 0x00000800 flags rw-

Sections:
Idx Name              Size      VMA       LMA       File off  Algn  Flags
  0 .init             000000b4  80000000  80000000  00001000  2**0  CONTENTS, ALLOC, LOAD, READONLY, CODE
  1 .ilalign          00000000  800000b4  800000b4  00008088  2**0  CONTENTS
  2 .text             000042c0  800000b4  800000b4  000010b4  2**2  CONTENTS, ALLOC, LOAD, READONLY, CODE
  3 .rodata           00001fdc  80004374  80004374  00005374  2**2  CONTENTS, ALLOC, LOAD, READONLY, DATA
  4 .lalign           00000000  80006350  80006350  00008088  2**0  CONTENTS
  5 .dalign           00000000  90000000  90000000  00008088  2**0  CONTENTS
  6 .data             00000088  90000000  80006350  00008000  2**2  CONTENTS, ALLOC, LOAD, DATA
  7 .bss              000002dc  90000088  800063d8  00008088  2**3  ALLOC
  8 .stack            00000800  90007800  800063d8  00008800  2**0  ALLOC
  9 .debug_info       00006940  00000000  00000000  00008088  2**0  CONTENTS, READONLY, DEBUGGING, OCTETS
 10 .debug_abbrev     0000250d  00000000  00000000  0000e9c8  2**0  CONTENTS, READONLY, DEBUGGING, OCTETS
 11 .debug_loc        000052df  00000000  00000000  00010ed5  2**0  CONTENTS, READONLY, DEBUGGING, OCTETS
 12 .debug_aranges    00000600  00000000  00000000  000161b8  2**3  CONTENTS, READONLY, DEBUGGING, OCTETS
 13 .debug_ranges     00000e48  00000000  00000000  000167b8  2**0  CONTENTS, READONLY, DEBUGGING, OCTETS
 14 .debug_line       0000a1c9  00000000  00000000  00017600  2**0  CONTENTS, READONLY, DEBUGGING, OCTETS
 15 .debug_str        00001c25  00000000  00000000  000217c9  2**0  CONTENTS, READONLY, DEBUGGING, OCTETS
 16 .comment          00000012  00000000  00000000  000233ee  2**0  CONTENTS, READONLY
 17 .riscv.attributes 0000002f  00000000  00000000  00023400  2**0  CONTENTS, READONLY
 18 .debug_frame      00000c78  00000000  00000000  00023430  2**2  CONTENTS, READONLY, DEBUGGING, OCTETS
SYMBOL TABLE:
80000000 l    d  .init	00000000 .init
800000b4 l    d  .ilalign	00000000 .ilalign
800000b4 l    d  .text	00000000 .text
80004374 l    d  .rodata	00000000 .rodata
80006350 l    d  .lalign	00000000 .lalign
90000000 l    d  .dalign	00000000 .dalign
90000000 l    d  .data	00000000 .data
90000088 l    d  .bss	00000000 .bss
90007800 l    d  .stack	00000000 .stack
00000000 l    d  .debug_info	00000000 .debug_info
00000000 l    d  .debug_abbrev	00000000 .debug_abbrev
00000000 l    d  .debug_loc	00000000 .debug_loc
00000000 l    d  .debug_aranges	00000000 .debug_aranges
00000000 l    d  .debug_ranges	00000000 .debug_ranges
00000000 l    d  .debug_line	00000000 .debug_line
00000000 l    d  .debug_str	00000000 .debug_str
00000000 l    d  .comment	00000000 .comment
00000000 l    d  .riscv.attributes	00000000 .riscv.attributes
00000000 l    d  .debug_frame	00000000 .debug_frame
00000000 l    df *ABS*	00000000 main.c
00000000 l    df *ABS*	00000000 close.c
00000000 l    df *ABS*	00000000 exit.c
00000000 l    df *ABS*	00000000 fstat.c
00000000 l    df *ABS*	00000000 getpid.c
00000000 l    df *ABS*	00000000 isatty.c
00000000 l    df *ABS*	00000000 kill.c
00000000 l    df *ABS*	00000000 lseek.c
00000000 l    df *ABS*	00000000 read.c
00000000 l    df *ABS*	00000000 sbrk.c
90000060 l     O .data	00000004 curbrk.0
00000000 l    df *ABS*	00000000 write.c
00000000 l    df *ABS*	00000000 hbirdv2_gpio.c
00000000 l    df *ABS*	00000000 hbirdv2_uart.c
00000000 l    df *ABS*	00000000 hbirdv2_common.c
00000000 l    df *ABS*	00000000 system_hbirdv2.c
800003c2 l     F .text	00000044 system_default_exception_handler
80000406 l     F .text	00000048 system_default_interrupt_handler
900000a0 l     O .bss	00000028 SystemCoreInterruptHandlers
900000c8 l     O .bss	0000002c SystemExceptionHandlers
900000f4 l     O .bss	00000044 SystemExtInterruptHandlers
00000000 l    df *ABS*	00000000 lcd.c
00000000 l    df *ABS*	00000000 system.c
80000e90 l     F .text	00000112 bird_move
80000fa2 l     F .text	000000fc bird_crash
8000109e l     F .text	0000028c draw_pillar
8000132a l     F .text	0000028a pillar_move
90000138 l     O .bss	00000020 _game_bird_conf
90000158 l     O .bss	00000048 bird
900001a0 l     O .bss	00000048 bird_last
900001e8 l     O .bss	00000028 pillar1
90000210 l     O .bss	00000028 pillar1_last
90000238 l     O .bss	00000028 pillar2
90000260 l     O .bss	00000028 pillar2_last
90000288 l     O .bss	00000028 pillar3
900002b0 l     O .bss	00000028 pillar3_last
80005d44 l     O .rodata	00000198 bird_ico2
80005edc l     O .rodata	00000198 bird_ico3
00000000 l    df *ABS*	00000000 libgcc2.c
00000000 l    df *ABS*	00000000 addsf3.c
00000000 l    df *ABS*	00000000 mulsf3.c
00000000 l    df *ABS*	00000000 subsf3.c
00000000 l    df *ABS*	00000000 fixsfsi.c
00000000 l    df *ABS*	00000000 floatsisf.c
00000000 l    df *ABS*	00000000 floatundisf.c
00000000 l    df *ABS*	00000000 libgcc2.c
00000000 l    df *ABS*	00000000 libgcc2.c
00000000 l    df *ABS*	00000000 libgcc2.c
00000000 l    df *ABS*	00000000 atexit.c
00000000 l    df *ABS*	00000000 fini.c
00000000 l    df *ABS*	00000000 init.c
00000000 l    df *ABS*	00000000 printf.c
00000000 l    df *ABS*	00000000 puts.c
00000000 l    df *ABS*	00000000 rand.c
00000000 l    df *ABS*	00000000 sysisatty.c
00000000 l    df *ABS*	00000000 wbuf.c
00000000 l    df *ABS*	00000000 wsetup.c
00000000 l    df *ABS*	00000000 __atexit.c
900002d8 l     O .bss	0000008c _global_atexit0
00000000 l    df *ABS*	00000000 assert.c
00000000 l    df *ABS*	00000000 fflush.c
00000000 l    df *ABS*	00000000 findfp.c
80003590 l     F .text	0000006a std
00000000 l    df *ABS*	00000000 fprintf.c
00000000 l    df *ABS*	00000000 fwalk.c
00000000 l    df *ABS*	00000000 makebuf.c
00000000 l    df *ABS*	00000000 malloc.c
00000000 l    df *ABS*	00000000 nano-mallocr.c
00000000 l    df *ABS*	00000000 nano-mallocr.c
00000000 l    df *ABS*	00000000 nano-vfprintf.c
80003a52 l     F .text	0000002a __sfputc_r
00000000 l    df *ABS*	00000000 nano-vfprintf_i.c
00000000 l    df *ABS*	00000000 sbrkr.c
00000000 l    df *ABS*	00000000 stdio.c
00000000 l    df *ABS*	00000000 writer.c
00000000 l    df *ABS*	00000000 abort.c
00000000 l    df *ABS*	00000000 closer.c
00000000 l    df *ABS*	00000000 fstatr.c
00000000 l    df *ABS*	00000000 isattyr.c
00000000 l    df *ABS*	00000000 lseekr.c
00000000 l    df *ABS*	00000000 memchr.c
00000000 l    df *ABS*	00000000 mlock.c
00000000 l    df *ABS*	00000000 readr.c
00000000 l    df *ABS*	00000000 signal.c
00000000 l    df *ABS*	00000000 signalr.c
00000000 l    df *ABS*	00000000 libgcc2.c
00000000 l    df *ABS*	00000000 impure.c
90000000 l     O .data	00000060 impure_data
00000000 l    df *ABS*	00000000 
80006350 l       .rodata	00000000 __fini_array_end
80006350 l       .rodata	00000000 __fini_array_start
80006350 l       .rodata	00000000 __init_array_end
80006350 l       .rodata	00000000 __preinit_array_end
80006350 l       .rodata	00000000 __init_array_start
80006350 l       .rodata	00000000 __preinit_array_start
8000423e g     F .text	00000028 _isatty_r
800009c4 g     F .text	000002a4 LCD_ShowChar
80002e08 g     F .text	0000002a .hidden __ashldi3
80000100  w    F .text	00000004 _getpid
80002fee g     F .text	000000da _puts_r
80004266 g     F .text	0000002c _lseek_r
90000068 g     O .data	00000002 BACK_COLOR
8000162c g     F .text	000000da pillar_init
800004ec g     F .text	00000046 PLIC_Register_IRQ
80004346 g     F .text	0000002a _kill_r
80002fb4 g     F .text	0000003a printf
90000860 g       .data	00000000 __global_pointer$
80004176 g     F .text	00000036 __sseek
8000364a g     F .text	00000066 __sinit
80003174 g     F .text	000000c0 __swbuf_r
80003604 g     F .text	00000046 __sfmoreglue
800015b4 g     F .text	00000078 bird_init
800042ae g     F .text	00000002 __malloc_unlock
80001706 g     F .text	000001e4 draw_bird
80002bee g     F .text	00000060 .hidden __fixsfsi
8000443c g     O .rodata	00000474 asc2_1206
80000624 g     F .text	0000002c LCD_Clear
80004214 g     F .text	0000002a _fstat_r
90000090 g     O .bss	00000004 errno
00000800 g       *ABS*	00000000 __stack_size
9000008a g     O .bss	00000002 POINT_COLOR
800028bc g     F .text	00000332 .hidden __subsf3
8000031c g     F .text	00000014 uart_write
80006350 g       .rodata	00000000 __rt_init_start
80006350 g       .rodata	00000000 __fsymtab_end
800000b4 g       .ilalign	00000000 _ilm_lma
9000008d g     O .bss	00000001 switchGameChart
800035fa g     F .text	0000000a _cleanup_r
800030c8 g     F .text	00000008 puts
80006350 g       .rodata	00000000 __rt_init_end
90000064 g     O .data	00000004 SystemCoreClock
800038d2 g     F .text	00000008 malloc
80003170 g     F .text	00000004 isatty
800042dc g     F .text	00000062 _raise_r
800000e6  w    F .text	0000001a _fstat
800033ae g     F .text	00000038 __assert_func
800003b0 g     F .text	00000012 get_cpu_freq
800018ea g     F .text	0000006a draw_brick
80004370 g     F .text	00000004 _getpid_r
800040d0 g     F .text	00000028 _sbrk_r
80004ea0 g     O .rodata	00000d5c asc2_2412
800042b0 g     F .text	0000002c _read_r
80006350 g       .rodata	00000000 _eilm
90007800 g       .stack	00000000 _heap_end
80000104  w    F .text	00000004 _isatty
90000084 g     O .data	00000004 _global_impure_ptr
80002eae g     F .text	0000005e __libc_init_array
80002016 g     F .text	00000360 .hidden __udivdi3
800041de g     F .text	0000000e abort
80000138  w    F .text	0000002c _sbrk
800002d8 g     F .text	0000000a gpio_clear_interrupt
80000620 g     F .text	00000002 _init
800019e6 g     F .text	0000004e game_flappy_bird_run_key
80002e78 g     F .text	00000036 __libc_fini_array
80000252 g     F .text	00000016 gpio_enable_input
800000b4 g       .ilalign	00000000 _ilm
80000532 g     F .text	000000ec _premain_init
8000374a g     F .text	00000024 fprintf
80002dde g     F .text	0000002a .hidden __lshrdi3
8000625c g     O .rodata	00000020 __sf_fake_stderr
90000088 g     O .bss	00000001 LCDinverse
8000045c g     F .text	00000090 core_trap_handler
80002e32 g     F .text	0000003c .hidden __clzsi2
80003a7c g     F .text	00000042 __sfputs_r
800002e2 g     F .text	0000003a uart_init
80004292 g     F .text	0000001a memchr
800038da g     F .text	000000a2 _free_r
90000094 g     O .bss	00000004 _global_atexit
80000268 g     F .text	00000070 gpio_enable_interrupt
90008000 g       .stack	00000000 _sp
80000000 g     F .init	00000000 _start
800030d0 g     F .text	000000a0 rand
80000112  w    F .text	00000004 _lseek
80002c4e g     F .text	000000ba .hidden __floatsisf
8000333a g     F .text	00000074 __register_exitproc
80001ba2 g     F .text	000000ee game_flappy_bird_break_key
80000dcc g     F .text	0000008c plic_btn_handler
800041ec g     F .text	00000028 _close_r
80002d08 g     F .text	000000d6 .hidden __floatundisf
80003234 g     F .text	00000106 __swsetup_r
800036b0 g     F .text	0000009a __sfp
80001954 g     F .text	00000092 game_flappy_bird_init
800040f8 g     F .text	00000030 __sread
80001c90 g     F .text	00000132 game_flappy_bird_draw
800042ac g     F .text	00000002 __malloc_lock
8000352c g     F .text	00000064 _fflush_r
80000c68 g     F .text	000000c0 LCD_ShowNum
8000627c g     O .rodata	00000020 __sf_fake_stdin
90000088 g       .bss	00000000 __bss_start
80002f0c g     F .text	000000a8 memset
800000b4 g     F .text	00000022 main
800048b0 g     O .rodata	000005f0 asc2_1608
800001c8  w      .text	00000000 trap_entry
800041ac g     F .text	00000006 __sclose
8000397c g     F .text	000000d6 _malloc_r
80006350 g       .rodata	00000000 __vsymtab_start
8000269c g     F .text	00000220 .hidden __mulsf3
8000044e g     F .text	0000000e SystemInit
80000650 g     F .text	00000156 LCD_Fill
80000622 g     F .text	00000002 _fini
80002fb4 g     F .text	0000003a iprintf
800060b0 g     O .rodata	00000100 .hidden __clz_tab
80002e6e g     F .text	0000000a atexit
800041b2 g     F .text	0000002c _write_r
9000008c g     O .bss	00000001 key_data
80003d54 g     F .text	0000010c _printf_common
90000070 g     O .data	00000004 _impure_ptr
800033e6 g     F .text	00000146 __sflush_r
90000000 g       .dalign	00000000 _data
80006350 g       .rodata	00000000 __vsymtab_end
80000346 g     F .text	0000006a measure_cpu_freq
800037d8 g     F .text	0000005c __swhatbuf_r
80005c78 g     O .rodata	000000cc bird_ico1
80000164  w    F .text	00000062 _write
90000088 g       .bss	00000000 _edata
8000061e g     F .text	00000002 _postmain_fini
90000368 g       .bss	00000000 _end
80006350 g       .lalign	00000000 _data_lma
80000330 g     F .text	00000016 uart_read
80004128 g     F .text	0000004e __swrite
8000374a g     F .text	00000024 fiprintf
80003abe g     F .text	00000296 _vfiprintf_r
8000376e g     F .text	0000006a _fwalk_reent
80000108  w    F .text	0000000a _kill
8000629c g     O .rodata	00000020 __sf_fake_stdout
80000116  w    F .text	00000022 _read
80000d28 g     F .text	000000a4 LCD_ShowString
800000e0  w    F .text	00000006 _exit
80003834 g     F .text	0000009e __smakebuf_r
80003e60 g     F .text	00000270 _printf_i
9000009c g     O .bss	00000004 __malloc_sbrk_start
80001a34 g     F .text	0000016e game_flappy_bird_start_key
90000098 g     O .bss	00000004 __malloc_free_list
80006350 g       .rodata	00000000 __fsymtab_start
80003abe g     F .text	00000296 _vfprintf_r
9000006c g     O .data	00000004 LCD_P
80001dc2 g     F .text	00000254 game_flappy_bird_main
80002376 g     F .text	00000326 .hidden __addsf3
80000240 g     F .text	00000012 gpio_iof_config
8000433e g     F .text	00000008 raise
800000d6  w    F .text	0000000a _close
800007a6 g     F .text	0000021e LCD_DrawRectangle
80000e58 g     F .text	00000038 plic_init



Disassembly of section .init:

80000000 <_start>:
_start():
C:\NucleiStudio_workspace\HBirdv2_Prj\fly_bird\Debug/../hbird_sdk/SoC/hbirdv2/Common/Source/GCC/startup_hbirdv2.S:40
 * Reset Handler called on controller reset
 */
_start:
    /* ===== Startup Stage 1 ===== */
    /* Disable Global Interrupt */
    csrc CSR_MSTATUS, MSTATUS_MIE
80000000:	30047073          	csrci	mstatus,8
C:\NucleiStudio_workspace\HBirdv2_Prj\fly_bird\Debug/../hbird_sdk/SoC/hbirdv2/Common/Source/GCC/startup_hbirdv2.S:42
    /* Disable all interrupts controlled by CSR MIE */
    csrw CSR_MIE, 0x0
80000004:	30405073          	csrwi	mie,0
C:\NucleiStudio_workspace\HBirdv2_Prj\fly_bird\Debug/../hbird_sdk/SoC/hbirdv2/Common/Source/GCC/startup_hbirdv2.S:47

    /* Initialize GP and Stack Pointer SP */
    .option push
    .option norelax
    la gp, __global_pointer$
80000008:	10001197          	auipc	gp,0x10001
8000000c:	85818193          	addi	gp,gp,-1960 # 90000860 <__global_pointer$>
C:\NucleiStudio_workspace\HBirdv2_Prj\fly_bird\Debug/../hbird_sdk/SoC/hbirdv2/Common/Source/GCC/startup_hbirdv2.S:49
    .option pop
    la sp, _sp
80000010:	10008117          	auipc	sp,0x10008
80000014:	ff010113          	addi	sp,sp,-16 # 90008000 <_sp>
C:\NucleiStudio_workspace\HBirdv2_Prj\fly_bird\Debug/../hbird_sdk/SoC/hbirdv2/Common/Source/GCC/startup_hbirdv2.S:54

    /*
     * Set Trap Entry MTVEC to trap_entry
     */
    la t0, trap_entry
80000018:	00000297          	auipc	t0,0x0
8000001c:	1b028293          	addi	t0,t0,432 # 800001c8 <trap_entry>
C:\NucleiStudio_workspace\HBirdv2_Prj\fly_bird\Debug/../hbird_sdk/SoC/hbirdv2/Common/Source/GCC/startup_hbirdv2.S:55
    csrw CSR_MTVEC, t0
80000020:	30529073          	csrw	mtvec,t0
C:\NucleiStudio_workspace\HBirdv2_Prj\fly_bird\Debug/../hbird_sdk/SoC/hbirdv2/Common/Source/GCC/startup_hbirdv2.S:58

    /* Direct Mode: All exceptions set pc to BASE. */
    csrc CSR_MTVEC, 0x3
80000024:	3051f073          	csrci	mtvec,3
C:\NucleiStudio_workspace\HBirdv2_Prj\fly_bird\Debug/../hbird_sdk/SoC/hbirdv2/Common/Source/GCC/startup_hbirdv2.S:74
    /* ===== Startup Stage 3 ===== */
    /*
     * Load code section frm FLASH to ILM
     * when code LMA is different with VMA
     */
    la a0, _ilm_lma
80000028:	00000517          	auipc	a0,0x0
8000002c:	08c50513          	addi	a0,a0,140 # 800000b4 <main>
C:\NucleiStudio_workspace\HBirdv2_Prj\fly_bird\Debug/../hbird_sdk/SoC/hbirdv2/Common/Source/GCC/startup_hbirdv2.S:75
    la a1, _ilm
80000030:	00000597          	auipc	a1,0x0
80000034:	08458593          	addi	a1,a1,132 # 800000b4 <main>
C:\NucleiStudio_workspace\HBirdv2_Prj\fly_bird\Debug/../hbird_sdk/SoC/hbirdv2/Common/Source/GCC/startup_hbirdv2.S:77
    /* If the ILM phy-address same as the logic-address, then quit */
    beq a0, a1, 2f
80000038:	02b50063          	beq	a0,a1,80000058 <_start+0x58>
C:\NucleiStudio_workspace\HBirdv2_Prj\fly_bird\Debug/../hbird_sdk/SoC/hbirdv2/Common/Source/GCC/startup_hbirdv2.S:78
    la a2, _eilm
8000003c:	00006617          	auipc	a2,0x6
80000040:	31460613          	addi	a2,a2,788 # 80006350 <__fsymtab_end>
C:\NucleiStudio_workspace\HBirdv2_Prj\fly_bird\Debug/../hbird_sdk/SoC/hbirdv2/Common/Source/GCC/startup_hbirdv2.S:79
    bgeu a1, a2, 2f
80000044:	00c5fa63          	bgeu	a1,a2,80000058 <_start+0x58>
C:\NucleiStudio_workspace\HBirdv2_Prj\fly_bird\Debug/../hbird_sdk/SoC/hbirdv2/Common/Source/GCC/startup_hbirdv2.S:83

1:
    /* Load code section if necessary */
    lw t0, (a0)
80000048:	00052283          	lw	t0,0(a0)
C:\NucleiStudio_workspace\HBirdv2_Prj\fly_bird\Debug/../hbird_sdk/SoC/hbirdv2/Common/Source/GCC/startup_hbirdv2.S:84
    sw t0, (a1)
8000004c:	0055a023          	sw	t0,0(a1)
C:\NucleiStudio_workspace\HBirdv2_Prj\fly_bird\Debug/../hbird_sdk/SoC/hbirdv2/Common/Source/GCC/startup_hbirdv2.S:85
    addi a0, a0, 4
80000050:	0511                	addi	a0,a0,4
C:\NucleiStudio_workspace\HBirdv2_Prj\fly_bird\Debug/../hbird_sdk/SoC/hbirdv2/Common/Source/GCC/startup_hbirdv2.S:86
    addi a1, a1, 4
80000052:	0591                	addi	a1,a1,4
C:\NucleiStudio_workspace\HBirdv2_Prj\fly_bird\Debug/../hbird_sdk/SoC/hbirdv2/Common/Source/GCC/startup_hbirdv2.S:87
    bltu a1, a2, 1b
80000054:	fec5eae3          	bltu	a1,a2,80000048 <_start+0x48>
C:\NucleiStudio_workspace\HBirdv2_Prj\fly_bird\Debug/../hbird_sdk/SoC/hbirdv2/Common/Source/GCC/startup_hbirdv2.S:90
2:
    /* Load data section */
    la a0, _data_lma
80000058:	00006517          	auipc	a0,0x6
8000005c:	2f850513          	addi	a0,a0,760 # 80006350 <__fsymtab_end>
C:\NucleiStudio_workspace\HBirdv2_Prj\fly_bird\Debug/../hbird_sdk/SoC/hbirdv2/Common/Source/GCC/startup_hbirdv2.S:91
    la a1, _data
80000060:	10000597          	auipc	a1,0x10000
80000064:	fa058593          	addi	a1,a1,-96 # 90000000 <impure_data>
C:\NucleiStudio_workspace\HBirdv2_Prj\fly_bird\Debug/../hbird_sdk/SoC/hbirdv2/Common/Source/GCC/startup_hbirdv2.S:92
    la a2, _edata
80000068:	82818613          	addi	a2,gp,-2008 # 90000088 <LCDinverse>
C:\NucleiStudio_workspace\HBirdv2_Prj\fly_bird\Debug/../hbird_sdk/SoC/hbirdv2/Common/Source/GCC/startup_hbirdv2.S:93
    bgeu a1, a2, 2f
8000006c:	00c5fa63          	bgeu	a1,a2,80000080 <_start+0x80>
C:\NucleiStudio_workspace\HBirdv2_Prj\fly_bird\Debug/../hbird_sdk/SoC/hbirdv2/Common/Source/GCC/startup_hbirdv2.S:95
1:
    lw t0, (a0)
80000070:	00052283          	lw	t0,0(a0)
C:\NucleiStudio_workspace\HBirdv2_Prj\fly_bird\Debug/../hbird_sdk/SoC/hbirdv2/Common/Source/GCC/startup_hbirdv2.S:96
    sw t0, (a1)
80000074:	0055a023          	sw	t0,0(a1)
C:\NucleiStudio_workspace\HBirdv2_Prj\fly_bird\Debug/../hbird_sdk/SoC/hbirdv2/Common/Source/GCC/startup_hbirdv2.S:97
    addi a0, a0, 4
80000078:	0511                	addi	a0,a0,4
C:\NucleiStudio_workspace\HBirdv2_Prj\fly_bird\Debug/../hbird_sdk/SoC/hbirdv2/Common/Source/GCC/startup_hbirdv2.S:98
    addi a1, a1, 4
8000007a:	0591                	addi	a1,a1,4
C:\NucleiStudio_workspace\HBirdv2_Prj\fly_bird\Debug/../hbird_sdk/SoC/hbirdv2/Common/Source/GCC/startup_hbirdv2.S:99
    bltu a1, a2, 1b
8000007c:	fec5eae3          	bltu	a1,a2,80000070 <_start+0x70>
C:\NucleiStudio_workspace\HBirdv2_Prj\fly_bird\Debug/../hbird_sdk/SoC/hbirdv2/Common/Source/GCC/startup_hbirdv2.S:102
2:
    /* Clear bss section */
    la a0, __bss_start
80000080:	82818513          	addi	a0,gp,-2008 # 90000088 <LCDinverse>
C:\NucleiStudio_workspace\HBirdv2_Prj\fly_bird\Debug/../hbird_sdk/SoC/hbirdv2/Common/Source/GCC/startup_hbirdv2.S:103
    la a1, _end
80000084:	b0818593          	addi	a1,gp,-1272 # 90000368 <_end>
C:\NucleiStudio_workspace\HBirdv2_Prj\fly_bird\Debug/../hbird_sdk/SoC/hbirdv2/Common/Source/GCC/startup_hbirdv2.S:104
    bgeu a0, a1, 2f
80000088:	00b57763          	bgeu	a0,a1,80000096 <_start+0x96>
C:\NucleiStudio_workspace\HBirdv2_Prj\fly_bird\Debug/../hbird_sdk/SoC/hbirdv2/Common/Source/GCC/startup_hbirdv2.S:106
1:
    sw zero, (a0)
8000008c:	00052023          	sw	zero,0(a0)
C:\NucleiStudio_workspace\HBirdv2_Prj\fly_bird\Debug/../hbird_sdk/SoC/hbirdv2/Common/Source/GCC/startup_hbirdv2.S:107
    addi a0, a0, 4
80000090:	0511                	addi	a0,a0,4
C:\NucleiStudio_workspace\HBirdv2_Prj\fly_bird\Debug/../hbird_sdk/SoC/hbirdv2/Common/Source/GCC/startup_hbirdv2.S:108
    bltu a0, a1, 1b
80000092:	feb56de3          	bltu	a0,a1,8000008c <_start+0x8c>
C:\NucleiStudio_workspace\HBirdv2_Prj\fly_bird\Debug/../hbird_sdk/SoC/hbirdv2/Common/Source/GCC/startup_hbirdv2.S:115

    /*
     * Call vendor defined SystemInit to
     * initialize the micro-controller system
     */
    call SystemInit
80000096:	2e65                	jal	8000044e <SystemInit>
C:\NucleiStudio_workspace\HBirdv2_Prj\fly_bird\Debug/../hbird_sdk/SoC/hbirdv2/Common/Source/GCC/startup_hbirdv2.S:118

    /* Call global constructors */
    la a0, __libc_fini_array
80000098:	00003517          	auipc	a0,0x3
8000009c:	de050513          	addi	a0,a0,-544 # 80002e78 <__libc_fini_array>
C:\NucleiStudio_workspace\HBirdv2_Prj\fly_bird\Debug/../hbird_sdk/SoC/hbirdv2/Common/Source/GCC/startup_hbirdv2.S:119
    call atexit
800000a0:	5cf020ef          	jal	ra,80002e6e <atexit>
C:\NucleiStudio_workspace\HBirdv2_Prj\fly_bird\Debug/../hbird_sdk/SoC/hbirdv2/Common/Source/GCC/startup_hbirdv2.S:121
    /* Call C/C++ constructor start up code */
    call __libc_init_array
800000a4:	60b020ef          	jal	ra,80002eae <__libc_init_array>
C:\NucleiStudio_workspace\HBirdv2_Prj\fly_bird\Debug/../hbird_sdk/SoC/hbirdv2/Common/Source/GCC/startup_hbirdv2.S:124

    /* do pre-init steps before main */
    call _premain_init
800000a8:	2169                	jal	80000532 <_premain_init>
C:\NucleiStudio_workspace\HBirdv2_Prj\fly_bird\Debug/../hbird_sdk/SoC/hbirdv2/Common/Source/GCC/startup_hbirdv2.S:127
    /* ===== Call Main Function  ===== */
    /* argc = argv = 0 */
    li a0, 0
800000aa:	4501                	li	a0,0
C:\NucleiStudio_workspace\HBirdv2_Prj\fly_bird\Debug/../hbird_sdk/SoC/hbirdv2/Common/Source/GCC/startup_hbirdv2.S:128
    li a1, 0
800000ac:	4581                	li	a1,0
C:\NucleiStudio_workspace\HBirdv2_Prj\fly_bird\Debug/../hbird_sdk/SoC/hbirdv2/Common/Source/GCC/startup_hbirdv2.S:134

#ifdef RTOS_RTTHREAD
    // Call entry function when using RT-Thread
    call entry
#else
    call main
800000ae:	2019                	jal	800000b4 <main>
C:\NucleiStudio_workspace\HBirdv2_Prj\fly_bird\Debug/../hbird_sdk/SoC/hbirdv2/Common/Source/GCC/startup_hbirdv2.S:137
#endif
    /* do post-main steps after main */
    call _postmain_fini
800000b0:	23bd                	jal	8000061e <_postmain_fini>
C:\NucleiStudio_workspace\HBirdv2_Prj\fly_bird\Debug/../hbird_sdk/SoC/hbirdv2/Common/Source/GCC/startup_hbirdv2.S:140

1:
    j 1b
800000b2:	a001                	j	800000b2 <_start+0xb2>

Disassembly of section .text:

800000b4 <main>:
ps2_init():
C:\NucleiStudio_workspace\HBirdv2_Prj\fly_bird\Debug/../application/main.c:51
}
*/
void ps2_init()
{
    int mask=0xff00ff00;
    gpio_enable_input(GPIOA, mask);
800000b4:	ff0105b7          	lui	a1,0xff010
main():
C:\NucleiStudio_workspace\HBirdv2_Prj\fly_bird\Debug/../application/main.c:24
{
800000b8:	1141                	addi	sp,sp,-16
ps2_init():
C:\NucleiStudio_workspace\HBirdv2_Prj\fly_bird\Debug/../application/main.c:51
    gpio_enable_input(GPIOA, mask);
800000ba:	f0058593          	addi	a1,a1,-256 # ff00ff00 <_sp+0x6f007f00>
800000be:	10012537          	lui	a0,0x10012
main():
C:\NucleiStudio_workspace\HBirdv2_Prj\fly_bird\Debug/../application/main.c:24
{
800000c2:	c606                	sw	ra,12(sp)
ps2_init():
C:\NucleiStudio_workspace\HBirdv2_Prj\fly_bird\Debug/../application/main.c:51
    gpio_enable_input(GPIOA, mask);
800000c4:	2279                	jal	80000252 <gpio_enable_input>
main():
C:\NucleiStudio_workspace\HBirdv2_Prj\fly_bird\Debug/../application/main.c:26
	plic_init();		//外部中断初始化
800000c6:	593000ef          	jal	ra,80000e58 <plic_init>
C:\NucleiStudio_workspace\HBirdv2_Prj\fly_bird\Debug/../application/main.c:27
    LCD_Clear(WHITE);
800000ca:	6541                	lui	a0,0x10
800000cc:	157d                	addi	a0,a0,-1
800000ce:	2b99                	jal	80000624 <LCD_Clear>
C:\NucleiStudio_workspace\HBirdv2_Prj\fly_bird\Debug/../application/main.c:29
    game_flappy_bird_main();
800000d0:	4f3010ef          	jal	ra,80001dc2 <game_flappy_bird_main>
C:\NucleiStudio_workspace\HBirdv2_Prj\fly_bird\Debug/../application/main.c:30 (discriminator 1)
	while(1)
800000d4:	a001                	j	800000d4 <main+0x20>

800000d6 <_close>:
_close():
C:\NucleiStudio_workspace\HBirdv2_Prj\fly_bird\Debug/../hbird_sdk/SoC/hbirdv2/Common/Source/Stubs/close.c:10
#undef errno
extern int errno;

__WEAK int _close(int fd)
{
    errno = EBADF;
800000d6:	47a5                	li	a5,9
800000d8:	82f1a823          	sw	a5,-2000(gp) # 90000090 <errno>
C:\NucleiStudio_workspace\HBirdv2_Prj\fly_bird\Debug/../hbird_sdk/SoC/hbirdv2/Common/Source/Stubs/close.c:12
    return -1;
}
800000dc:	557d                	li	a0,-1
800000de:	8082                	ret

800000e0 <_exit>:
__WFI():
C:\NucleiStudio_workspace\HBirdv2_Prj\fly_bird\hbird_sdk\NMSIS\Core\Include/core_feature_base.h:598 (discriminator 1)
 * the hardware platform that suitable interrupts should
 * preferentially be routed to this hart.
 */
__STATIC_FORCEINLINE void __WFI(void)
{
    __ASM volatile("wfi");
800000e0:	10500073          	wfi
800000e4:	bff5                	j	800000e0 <_exit>

800000e6 <_fstat>:
_fstat():
C:\NucleiStudio_workspace\HBirdv2_Prj\fly_bird\Debug/../hbird_sdk/SoC/hbirdv2/Common/Source/Stubs/fstat.c:12
#undef errno
extern int errno;

__WEAK int _fstat(int file, struct stat *st)
{
    if ((STDOUT_FILENO == file) || (STDERR_FILENO == file)) {
800000e6:	157d                	addi	a0,a0,-1
800000e8:	4785                	li	a5,1
800000ea:	00a7e663          	bltu	a5,a0,800000f6 <_fstat+0x10>
C:\NucleiStudio_workspace\HBirdv2_Prj\fly_bird\Debug/../hbird_sdk/SoC/hbirdv2/Common/Source/Stubs/fstat.c:13
        st->st_mode = S_IFCHR;
800000ee:	6789                	lui	a5,0x2
800000f0:	c1dc                	sw	a5,4(a1)
C:\NucleiStudio_workspace\HBirdv2_Prj\fly_bird\Debug/../hbird_sdk/SoC/hbirdv2/Common/Source/Stubs/fstat.c:14
        return 0;
800000f2:	4501                	li	a0,0
800000f4:	8082                	ret
C:\NucleiStudio_workspace\HBirdv2_Prj\fly_bird\Debug/../hbird_sdk/SoC/hbirdv2/Common/Source/Stubs/fstat.c:16
    } else {
        errno = EBADF;
800000f6:	47a5                	li	a5,9
800000f8:	82f1a823          	sw	a5,-2000(gp) # 90000090 <errno>
C:\NucleiStudio_workspace\HBirdv2_Prj\fly_bird\Debug/../hbird_sdk/SoC/hbirdv2/Common/Source/Stubs/fstat.c:17
        return -1;
800000fc:	557d                	li	a0,-1
C:\NucleiStudio_workspace\HBirdv2_Prj\fly_bird\Debug/../hbird_sdk/SoC/hbirdv2/Common/Source/Stubs/fstat.c:19
    }
}
800000fe:	8082                	ret

80000100 <_getpid>:
_getpid():
C:\NucleiStudio_workspace\HBirdv2_Prj\fly_bird\Debug/../hbird_sdk/SoC/hbirdv2/Common/Source/Stubs/getpid.c:8
#include <errno.h>

__WEAK int _getpid(void)
{
    return 1;
}
80000100:	4505                	li	a0,1
80000102:	8082                	ret

80000104 <_isatty>:
_isatty():
C:\NucleiStudio_workspace\HBirdv2_Prj\fly_bird\Debug/../hbird_sdk/SoC/hbirdv2/Common/Source/Stubs/isatty.c:8
#include <unistd.h>

__WEAK int _isatty(int fd)
{
    return 1;
}
80000104:	4505                	li	a0,1
80000106:	8082                	ret

80000108 <_kill>:
_kill():
C:\NucleiStudio_workspace\HBirdv2_Prj\fly_bird\Debug/../hbird_sdk/SoC/hbirdv2/Common/Source/Stubs/kill.c:9
#undef errno
extern int errno;

__WEAK int _kill(int pid, int sig)
{
    errno = EINVAL;
80000108:	47d9                	li	a5,22
8000010a:	82f1a823          	sw	a5,-2000(gp) # 90000090 <errno>
C:\NucleiStudio_workspace\HBirdv2_Prj\fly_bird\Debug/../hbird_sdk/SoC/hbirdv2/Common/Source/Stubs/kill.c:11
    return -1;
}
8000010e:	557d                	li	a0,-1
80000110:	8082                	ret

80000112 <_lseek>:
_lseek():
C:\NucleiStudio_workspace\HBirdv2_Prj\fly_bird\Debug/../hbird_sdk/SoC/hbirdv2/Common/Source/Stubs/lseek.c:11
extern int errno;

__WEAK int _lseek(int file, int offset, int whence)
{
    return 0;
}
80000112:	4501                	li	a0,0
80000114:	8082                	ret

80000116 <_read>:
_read():
C:\NucleiStudio_workspace\HBirdv2_Prj\fly_bird\Debug/../hbird_sdk/SoC/hbirdv2/Common/Source/Stubs/read.c:12

// #define UART_AUTO_ECHO

__WEAK ssize_t _read(int fd, void* ptr, size_t len)
{
    if (fd != STDIN_FILENO) {
80000116:	c119                	beqz	a0,8000011c <_read+0x6>
C:\NucleiStudio_workspace\HBirdv2_Prj\fly_bird\Debug/../hbird_sdk/SoC/hbirdv2/Common/Source/Stubs/read.c:13
        return -1;
80000118:	557d                	li	a0,-1
C:\NucleiStudio_workspace\HBirdv2_Prj\fly_bird\Debug/../hbird_sdk/SoC/hbirdv2/Common/Source/Stubs/read.c:22
    readbuf[0] = uart_read(SOC_DEBUG_UART);
#ifdef UART_AUTO_ECHO
    uart_write(SOC_DEBUG_UART, readbuf[0]);
#endif
    return 1;
}
8000011a:	8082                	ret
C:\NucleiStudio_workspace\HBirdv2_Prj\fly_bird\Debug/../hbird_sdk/SoC/hbirdv2/Common/Source/Stubs/read.c:11
{
8000011c:	1141                	addi	sp,sp,-16
C:\NucleiStudio_workspace\HBirdv2_Prj\fly_bird\Debug/../hbird_sdk/SoC/hbirdv2/Common/Source/Stubs/read.c:17
    readbuf[0] = uart_read(SOC_DEBUG_UART);
8000011e:	10013537          	lui	a0,0x10013
C:\NucleiStudio_workspace\HBirdv2_Prj\fly_bird\Debug/../hbird_sdk/SoC/hbirdv2/Common/Source/Stubs/read.c:11
{
80000122:	c422                	sw	s0,8(sp)
80000124:	c606                	sw	ra,12(sp)
80000126:	842e                	mv	s0,a1
C:\NucleiStudio_workspace\HBirdv2_Prj\fly_bird\Debug/../hbird_sdk/SoC/hbirdv2/Common/Source/Stubs/read.c:17
    readbuf[0] = uart_read(SOC_DEBUG_UART);
80000128:	2421                	jal	80000330 <uart_read>
8000012a:	00a40023          	sb	a0,0(s0)
C:\NucleiStudio_workspace\HBirdv2_Prj\fly_bird\Debug/../hbird_sdk/SoC/hbirdv2/Common/Source/Stubs/read.c:22
}
8000012e:	40b2                	lw	ra,12(sp)
80000130:	4422                	lw	s0,8(sp)
C:\NucleiStudio_workspace\HBirdv2_Prj\fly_bird\Debug/../hbird_sdk/SoC/hbirdv2/Common/Source/Stubs/read.c:21
    return 1;
80000132:	4505                	li	a0,1
C:\NucleiStudio_workspace\HBirdv2_Prj\fly_bird\Debug/../hbird_sdk/SoC/hbirdv2/Common/Source/Stubs/read.c:22
}
80000134:	0141                	addi	sp,sp,16
80000136:	8082                	ret

80000138 <_sbrk>:
_sbrk():
C:\NucleiStudio_workspace\HBirdv2_Prj\fly_bird\Debug/../hbird_sdk/SoC/hbirdv2/Common/Source/Stubs/sbrk.c:13
{
    extern char _end[];
    extern char _heap_end[];
    static char *curbrk = _end;

    if ((curbrk + incr < _end) || (curbrk + incr > _heap_end)) {
80000138:	10000717          	auipc	a4,0x10000
8000013c:	f2870713          	addi	a4,a4,-216 # 90000060 <curbrk.0>
80000140:	431c                	lw	a5,0(a4)
80000142:	b0818693          	addi	a3,gp,-1272 # 90000368 <_end>
80000146:	953e                	add	a0,a0,a5
80000148:	00d56b63          	bltu	a0,a3,8000015e <_sbrk+0x26>
C:\NucleiStudio_workspace\HBirdv2_Prj\fly_bird\Debug/../hbird_sdk/SoC/hbirdv2/Common/Source/Stubs/sbrk.c:13 (discriminator 1)
8000014c:	10007697          	auipc	a3,0x10007
80000150:	6b468693          	addi	a3,a3,1716 # 90007800 <_heap_end>
80000154:	00a6e563          	bltu	a3,a0,8000015e <_sbrk+0x26>
C:\NucleiStudio_workspace\HBirdv2_Prj\fly_bird\Debug/../hbird_sdk/SoC/hbirdv2/Common/Source/Stubs/sbrk.c:17
        return (void *)(-1);
    }

    curbrk += incr;
80000158:	c308                	sw	a0,0(a4)
C:\NucleiStudio_workspace\HBirdv2_Prj\fly_bird\Debug/../hbird_sdk/SoC/hbirdv2/Common/Source/Stubs/sbrk.c:19
    return (void *)(curbrk - incr);
}
8000015a:	853e                	mv	a0,a5
8000015c:	8082                	ret
C:\NucleiStudio_workspace\HBirdv2_Prj\fly_bird\Debug/../hbird_sdk/SoC/hbirdv2/Common/Source/Stubs/sbrk.c:14
        return (void *)(-1);
8000015e:	57fd                	li	a5,-1
C:\NucleiStudio_workspace\HBirdv2_Prj\fly_bird\Debug/../hbird_sdk/SoC/hbirdv2/Common/Source/Stubs/sbrk.c:19
}
80000160:	853e                	mv	a0,a5
80000162:	8082                	ret

80000164 <_write>:
_write():
C:\NucleiStudio_workspace\HBirdv2_Prj\fly_bird\Debug/../hbird_sdk/SoC/hbirdv2/Common/Source/Stubs/write.c:9
#include <unistd.h>
#include <sys/types.h>
#include <hbird_sdk_hal.h>

__WEAK ssize_t _write(int fd, const void* ptr, size_t len)
{
80000164:	1101                	addi	sp,sp,-32
80000166:	cc22                	sw	s0,24(sp)
80000168:	c64e                	sw	s3,12(sp)
8000016a:	ce06                	sw	ra,28(sp)
8000016c:	ca26                	sw	s1,20(sp)
8000016e:	c84a                	sw	s2,16(sp)
80000170:	842e                	mv	s0,a1
80000172:	89b2                	mv	s3,a2
C:\NucleiStudio_workspace\HBirdv2_Prj\fly_bird\Debug/../hbird_sdk/SoC/hbirdv2/Common/Source/Stubs/write.c:10
    if (!isatty(fd)) {
80000174:	7fd020ef          	jal	ra,80003170 <isatty>
80000178:	c529                	beqz	a0,800001c2 <_write+0x5e>
C:\NucleiStudio_workspace\HBirdv2_Prj\fly_bird\Debug/../hbird_sdk/SoC/hbirdv2/Common/Source/Stubs/write.c:15
        return -1;
    }

    const uint8_t *writebuf = (const uint8_t *)ptr;
    for (size_t i = 0; i < len; i++) {
8000017a:	01340933          	add	s2,s0,s3
C:\NucleiStudio_workspace\HBirdv2_Prj\fly_bird\Debug/../hbird_sdk/SoC/hbirdv2/Common/Source/Stubs/write.c:16
        if (writebuf[i] == '\n') {
8000017e:	44a9                	li	s1,10
C:\NucleiStudio_workspace\HBirdv2_Prj\fly_bird\Debug/../hbird_sdk/SoC/hbirdv2/Common/Source/Stubs/write.c:15
    for (size_t i = 0; i < len; i++) {
80000180:	00099963          	bnez	s3,80000192 <_write+0x2e>
80000184:	a03d                	j	800001b2 <_write+0x4e>
C:\NucleiStudio_workspace\HBirdv2_Prj\fly_bird\Debug/../hbird_sdk/SoC/hbirdv2/Common/Source/Stubs/write.c:15 (discriminator 2)
80000186:	0405                	addi	s0,s0,1
C:\NucleiStudio_workspace\HBirdv2_Prj\fly_bird\Debug/../hbird_sdk/SoC/hbirdv2/Common/Source/Stubs/write.c:19 (discriminator 2)
            uart_write(SOC_DEBUG_UART, '\r');
        }
        uart_write(SOC_DEBUG_UART, writebuf[i]);
80000188:	10013537          	lui	a0,0x10013
8000018c:	2a41                	jal	8000031c <uart_write>
C:\NucleiStudio_workspace\HBirdv2_Prj\fly_bird\Debug/../hbird_sdk/SoC/hbirdv2/Common/Source/Stubs/write.c:15 (discriminator 2)
    for (size_t i = 0; i < len; i++) {
8000018e:	03240263          	beq	s0,s2,800001b2 <_write+0x4e>
C:\NucleiStudio_workspace\HBirdv2_Prj\fly_bird\Debug/../hbird_sdk/SoC/hbirdv2/Common/Source/Stubs/write.c:16
        if (writebuf[i] == '\n') {
80000192:	00044583          	lbu	a1,0(s0)
80000196:	fe9598e3          	bne	a1,s1,80000186 <_write+0x22>
C:\NucleiStudio_workspace\HBirdv2_Prj\fly_bird\Debug/../hbird_sdk/SoC/hbirdv2/Common/Source/Stubs/write.c:17
            uart_write(SOC_DEBUG_UART, '\r');
8000019a:	45b5                	li	a1,13
8000019c:	10013537          	lui	a0,0x10013
800001a0:	2ab5                	jal	8000031c <uart_write>
C:\NucleiStudio_workspace\HBirdv2_Prj\fly_bird\Debug/../hbird_sdk/SoC/hbirdv2/Common/Source/Stubs/write.c:19
        uart_write(SOC_DEBUG_UART, writebuf[i]);
800001a2:	00044583          	lbu	a1,0(s0)
800001a6:	10013537          	lui	a0,0x10013
C:\NucleiStudio_workspace\HBirdv2_Prj\fly_bird\Debug/../hbird_sdk/SoC/hbirdv2/Common/Source/Stubs/write.c:15
    for (size_t i = 0; i < len; i++) {
800001aa:	0405                	addi	s0,s0,1
C:\NucleiStudio_workspace\HBirdv2_Prj\fly_bird\Debug/../hbird_sdk/SoC/hbirdv2/Common/Source/Stubs/write.c:19
        uart_write(SOC_DEBUG_UART, writebuf[i]);
800001ac:	2a85                	jal	8000031c <uart_write>
C:\NucleiStudio_workspace\HBirdv2_Prj\fly_bird\Debug/../hbird_sdk/SoC/hbirdv2/Common/Source/Stubs/write.c:15
    for (size_t i = 0; i < len; i++) {
800001ae:	ff2412e3          	bne	s0,s2,80000192 <_write+0x2e>
C:\NucleiStudio_workspace\HBirdv2_Prj\fly_bird\Debug/../hbird_sdk/SoC/hbirdv2/Common/Source/Stubs/write.c:21
    }
    return len;
800001b2:	854e                	mv	a0,s3
C:\NucleiStudio_workspace\HBirdv2_Prj\fly_bird\Debug/../hbird_sdk/SoC/hbirdv2/Common/Source/Stubs/write.c:22
}
800001b4:	40f2                	lw	ra,28(sp)
800001b6:	4462                	lw	s0,24(sp)
800001b8:	44d2                	lw	s1,20(sp)
800001ba:	4942                	lw	s2,16(sp)
800001bc:	49b2                	lw	s3,12(sp)
800001be:	6105                	addi	sp,sp,32
800001c0:	8082                	ret
C:\NucleiStudio_workspace\HBirdv2_Prj\fly_bird\Debug/../hbird_sdk/SoC/hbirdv2/Common/Source/Stubs/write.c:11
        return -1;
800001c2:	557d                	li	a0,-1
800001c4:	bfc5                	j	800001b4 <_write+0x50>
	...

800001c8 <trap_entry>:
trap_entry():
C:\NucleiStudio_workspace\HBirdv2_Prj\fly_bird\Debug/../hbird_sdk/SoC/hbirdv2/Common/Source/GCC/intexc_hbirdv2.S:159
.align 2
.global trap_entry
.weak trap_entry
trap_entry:
    /* Save the caller saving registers (context) */
    SAVE_CONTEXT
800001c8:	715d                	addi	sp,sp,-80
800001ca:	c006                	sw	ra,0(sp)
800001cc:	c212                	sw	tp,4(sp)
800001ce:	c416                	sw	t0,8(sp)
800001d0:	c61a                	sw	t1,12(sp)
800001d2:	c81e                	sw	t2,16(sp)
800001d4:	ca2a                	sw	a0,20(sp)
800001d6:	cc2e                	sw	a1,24(sp)
800001d8:	ce32                	sw	a2,28(sp)
800001da:	d036                	sw	a3,32(sp)
800001dc:	d23a                	sw	a4,36(sp)
800001de:	d43e                	sw	a5,40(sp)
800001e0:	dc42                	sw	a6,56(sp)
800001e2:	de46                	sw	a7,60(sp)
800001e4:	c0f2                	sw	t3,64(sp)
800001e6:	c2f6                	sw	t4,68(sp)
800001e8:	c4fa                	sw	t5,72(sp)
800001ea:	c6fe                	sw	t6,76(sp)
C:\NucleiStudio_workspace\HBirdv2_Prj\fly_bird\Debug/../hbird_sdk/SoC/hbirdv2/Common/Source/GCC/intexc_hbirdv2.S:161
    /* Save the necessary CSR registers */
    SAVE_CSR_CONTEXT
800001ec:	341022f3          	csrr	t0,mepc
800001f0:	d616                	sw	t0,44(sp)
800001f2:	342022f3          	csrr	t0,mcause
800001f6:	d816                	sw	t0,48(sp)
800001f8:	300022f3          	csrr	t0,mstatus
800001fc:	da16                	sw	t0,52(sp)
C:\NucleiStudio_workspace\HBirdv2_Prj\fly_bird\Debug/../hbird_sdk/SoC/hbirdv2/Common/Source/GCC/intexc_hbirdv2.S:168
    /*
     * Set the exception handler function arguments
     * argument 1: mcause value
     * argument 2: current stack point(SP) value
     */
    csrr a0, mcause
800001fe:	34202573          	csrr	a0,mcause
C:\NucleiStudio_workspace\HBirdv2_Prj\fly_bird\Debug/../hbird_sdk/SoC/hbirdv2/Common/Source/GCC/intexc_hbirdv2.S:169
    mv a1, sp
80000202:	858a                	mv	a1,sp
C:\NucleiStudio_workspace\HBirdv2_Prj\fly_bird\Debug/../hbird_sdk/SoC/hbirdv2/Common/Source/GCC/intexc_hbirdv2.S:175
    /*
     * TODO: Call the trap handler function
     * By default, the function template is provided in
     * system_Device.c, you can adjust it as you want
     */
    call core_trap_handler
80000204:	2ca1                	jal	8000045c <core_trap_handler>
C:\NucleiStudio_workspace\HBirdv2_Prj\fly_bird\Debug/../hbird_sdk/SoC/hbirdv2/Common/Source/GCC/intexc_hbirdv2.S:178

    /* Restore the necessary CSR registers */
    RESTORE_CSR_CONTEXT
80000206:	52b2                	lw	t0,44(sp)
80000208:	34129073          	csrw	mepc,t0
8000020c:	52c2                	lw	t0,48(sp)
8000020e:	34229073          	csrw	mcause,t0
80000212:	52d2                	lw	t0,52(sp)
80000214:	30029073          	csrw	mstatus,t0
C:\NucleiStudio_workspace\HBirdv2_Prj\fly_bird\Debug/../hbird_sdk/SoC/hbirdv2/Common/Source/GCC/intexc_hbirdv2.S:180
    /* Restore the caller saving registers (context) */
    RESTORE_CONTEXT
80000218:	4082                	lw	ra,0(sp)
8000021a:	4212                	lw	tp,4(sp)
8000021c:	42a2                	lw	t0,8(sp)
8000021e:	4332                	lw	t1,12(sp)
80000220:	43c2                	lw	t2,16(sp)
80000222:	4552                	lw	a0,20(sp)
80000224:	45e2                	lw	a1,24(sp)
80000226:	4672                	lw	a2,28(sp)
80000228:	5682                	lw	a3,32(sp)
8000022a:	5712                	lw	a4,36(sp)
8000022c:	57a2                	lw	a5,40(sp)
8000022e:	5862                	lw	a6,56(sp)
80000230:	58f2                	lw	a7,60(sp)
80000232:	4e06                	lw	t3,64(sp)
80000234:	4e96                	lw	t4,68(sp)
80000236:	4f26                	lw	t5,72(sp)
80000238:	4fb6                	lw	t6,76(sp)
8000023a:	6161                	addi	sp,sp,80
C:\NucleiStudio_workspace\HBirdv2_Prj\fly_bird\Debug/../hbird_sdk/SoC/hbirdv2/Common/Source/GCC/intexc_hbirdv2.S:183

    /* Return to regular code */
    mret
8000023c:	30200073          	mret

80000240 <gpio_iof_config>:
gpio_iof_config():
C:\NucleiStudio_workspace\HBirdv2_Prj\fly_bird\Debug/../hbird_sdk/SoC/hbirdv2/Common/Source/Drivers/hbirdv2_gpio.c:5
#include "hbirdv2.h"
#include "hbirdv2_gpio.h"

int32_t gpio_iof_config(GPIO_TypeDef *gpio, uint32_t mask)
{
80000240:	87aa                	mv	a5,a0
C:\NucleiStudio_workspace\HBirdv2_Prj\fly_bird\Debug/../hbird_sdk/SoC/hbirdv2/Common/Source/Drivers/hbirdv2_gpio.c:6
    if (__RARELY(gpio == NULL)) {
80000242:	c511                	beqz	a0,8000024e <gpio_iof_config+0xe>
C:\NucleiStudio_workspace\HBirdv2_Prj\fly_bird\Debug/../hbird_sdk/SoC/hbirdv2/Common/Source/Drivers/hbirdv2_gpio.c:9
        return -1;
    }
    gpio->IOFCFG |= mask;
80000244:	4d58                	lw	a4,28(a0)
C:\NucleiStudio_workspace\HBirdv2_Prj\fly_bird\Debug/../hbird_sdk/SoC/hbirdv2/Common/Source/Drivers/hbirdv2_gpio.c:11

    return 0;
80000246:	4501                	li	a0,0
C:\NucleiStudio_workspace\HBirdv2_Prj\fly_bird\Debug/../hbird_sdk/SoC/hbirdv2/Common/Source/Drivers/hbirdv2_gpio.c:9
    gpio->IOFCFG |= mask;
80000248:	8dd9                	or	a1,a1,a4
8000024a:	cfcc                	sw	a1,28(a5)
C:\NucleiStudio_workspace\HBirdv2_Prj\fly_bird\Debug/../hbird_sdk/SoC/hbirdv2/Common/Source/Drivers/hbirdv2_gpio.c:11
    return 0;
8000024c:	8082                	ret
C:\NucleiStudio_workspace\HBirdv2_Prj\fly_bird\Debug/../hbird_sdk/SoC/hbirdv2/Common/Source/Drivers/hbirdv2_gpio.c:7
        return -1;
8000024e:	557d                	li	a0,-1
C:\NucleiStudio_workspace\HBirdv2_Prj\fly_bird\Debug/../hbird_sdk/SoC/hbirdv2/Common/Source/Drivers/hbirdv2_gpio.c:12
}
80000250:	8082                	ret

80000252 <gpio_enable_input>:
gpio_enable_input():
C:\NucleiStudio_workspace\HBirdv2_Prj\fly_bird\Debug/../hbird_sdk/SoC/hbirdv2/Common/Source/Drivers/hbirdv2_gpio.c:25
    gpio->PADDIR |= mask;
    return 0;
}

int32_t gpio_enable_input(GPIO_TypeDef *gpio, uint32_t mask)
{
80000252:	87aa                	mv	a5,a0
C:\NucleiStudio_workspace\HBirdv2_Prj\fly_bird\Debug/../hbird_sdk/SoC/hbirdv2/Common/Source/Drivers/hbirdv2_gpio.c:26
    if (__RARELY(gpio == NULL)) {
80000254:	c901                	beqz	a0,80000264 <gpio_enable_input+0x12>
C:\NucleiStudio_workspace\HBirdv2_Prj\fly_bird\Debug/../hbird_sdk/SoC/hbirdv2/Common/Source/Drivers/hbirdv2_gpio.c:29
        return -1;
    }
    gpio->PADDIR &= ~mask;
80000256:	4118                	lw	a4,0(a0)
80000258:	fff5c593          	not	a1,a1
C:\NucleiStudio_workspace\HBirdv2_Prj\fly_bird\Debug/../hbird_sdk/SoC/hbirdv2/Common/Source/Drivers/hbirdv2_gpio.c:30
    return 0;
8000025c:	4501                	li	a0,0
C:\NucleiStudio_workspace\HBirdv2_Prj\fly_bird\Debug/../hbird_sdk/SoC/hbirdv2/Common/Source/Drivers/hbirdv2_gpio.c:29
    gpio->PADDIR &= ~mask;
8000025e:	8df9                	and	a1,a1,a4
80000260:	c38c                	sw	a1,0(a5)
C:\NucleiStudio_workspace\HBirdv2_Prj\fly_bird\Debug/../hbird_sdk/SoC/hbirdv2/Common/Source/Drivers/hbirdv2_gpio.c:30
    return 0;
80000262:	8082                	ret
C:\NucleiStudio_workspace\HBirdv2_Prj\fly_bird\Debug/../hbird_sdk/SoC/hbirdv2/Common/Source/Drivers/hbirdv2_gpio.c:27
        return -1;
80000264:	557d                	li	a0,-1
C:\NucleiStudio_workspace\HBirdv2_Prj\fly_bird\Debug/../hbird_sdk/SoC/hbirdv2/Common/Source/Drivers/hbirdv2_gpio.c:31
}
80000266:	8082                	ret

80000268 <gpio_enable_interrupt>:
gpio_enable_interrupt():
C:\NucleiStudio_workspace\HBirdv2_Prj\fly_bird\Debug/../hbird_sdk/SoC/hbirdv2/Common/Source/Drivers/hbirdv2_gpio.c:67
    return gpio->PADIN & mask;
}


int32_t gpio_enable_interrupt(GPIO_TypeDef *gpio, uint32_t mask, GPIO_INT_TYPE type)
{
80000268:	87aa                	mv	a5,a0
C:\NucleiStudio_workspace\HBirdv2_Prj\fly_bird\Debug/../hbird_sdk/SoC/hbirdv2/Common/Source/Drivers/hbirdv2_gpio.c:68
    if (__RARELY(gpio == NULL)) {
8000026a:	c52d                	beqz	a0,800002d4 <gpio_enable_interrupt+0x6c>
C:\NucleiStudio_workspace\HBirdv2_Prj\fly_bird\Debug/../hbird_sdk/SoC/hbirdv2/Common/Source/Drivers/hbirdv2_gpio.c:72
        return -1;
    }

    gpio->INTEN |= mask;
8000026c:	4558                	lw	a4,12(a0)
C:\NucleiStudio_workspace\HBirdv2_Prj\fly_bird\Debug/../hbird_sdk/SoC/hbirdv2/Common/Source/Drivers/hbirdv2_gpio.c:74

    switch (type) {
8000026e:	4689                	li	a3,2
C:\NucleiStudio_workspace\HBirdv2_Prj\fly_bird\Debug/../hbird_sdk/SoC/hbirdv2/Common/Source/Drivers/hbirdv2_gpio.c:72
    gpio->INTEN |= mask;
80000270:	8f4d                	or	a4,a4,a1
80000272:	c558                	sw	a4,12(a0)
C:\NucleiStudio_workspace\HBirdv2_Prj\fly_bird\Debug/../hbird_sdk/SoC/hbirdv2/Common/Source/Drivers/hbirdv2_gpio.c:74
    switch (type) {
80000274:	04d60663          	beq	a2,a3,800002c0 <gpio_enable_interrupt+0x58>
80000278:	00c6eb63          	bltu	a3,a2,8000028e <gpio_enable_interrupt+0x26>
8000027c:	ca05                	beqz	a2,800002ac <gpio_enable_interrupt+0x44>
C:\NucleiStudio_workspace\HBirdv2_Prj\fly_bird\Debug/../hbird_sdk/SoC/hbirdv2/Common/Source/Drivers/hbirdv2_gpio.c:80
        case GPIO_INT_RISE:
            gpio->INTTYPE0 &= ~(mask);
            gpio->INTTYPE1 |= mask;
            break;
        case GPIO_INT_FALL:
            gpio->INTTYPE0 |= mask;
8000027e:	4918                	lw	a4,16(a0)
C:\NucleiStudio_workspace\HBirdv2_Prj\fly_bird\Debug/../hbird_sdk/SoC/hbirdv2/Common/Source/Drivers/hbirdv2_gpio.c:94
            gpio->INTTYPE1 &= ~(mask);
            break;
        default:
            break;
    }
    return 0;
80000280:	4501                	li	a0,0
C:\NucleiStudio_workspace\HBirdv2_Prj\fly_bird\Debug/../hbird_sdk/SoC/hbirdv2/Common/Source/Drivers/hbirdv2_gpio.c:80
            gpio->INTTYPE0 |= mask;
80000282:	8f4d                	or	a4,a4,a1
80000284:	cb98                	sw	a4,16(a5)
C:\NucleiStudio_workspace\HBirdv2_Prj\fly_bird\Debug/../hbird_sdk/SoC/hbirdv2/Common/Source/Drivers/hbirdv2_gpio.c:81
            gpio->INTTYPE1 |= mask;
80000286:	4bd8                	lw	a4,20(a5)
80000288:	8dd9                	or	a1,a1,a4
8000028a:	cbcc                	sw	a1,20(a5)
C:\NucleiStudio_workspace\HBirdv2_Prj\fly_bird\Debug/../hbird_sdk/SoC/hbirdv2/Common/Source/Drivers/hbirdv2_gpio.c:82
            break;
8000028c:	8082                	ret
C:\NucleiStudio_workspace\HBirdv2_Prj\fly_bird\Debug/../hbird_sdk/SoC/hbirdv2/Common/Source/Drivers/hbirdv2_gpio.c:74
    switch (type) {
8000028e:	470d                	li	a4,3
80000290:	00e61c63          	bne	a2,a4,800002a8 <gpio_enable_interrupt+0x40>
C:\NucleiStudio_workspace\HBirdv2_Prj\fly_bird\Debug/../hbird_sdk/SoC/hbirdv2/Common/Source/Drivers/hbirdv2_gpio.c:88
            gpio->INTTYPE0 |= mask;
80000294:	4914                	lw	a3,16(a0)
C:\NucleiStudio_workspace\HBirdv2_Prj\fly_bird\Debug/../hbird_sdk/SoC/hbirdv2/Common/Source/Drivers/hbirdv2_gpio.c:89
            gpio->INTTYPE1 &= ~(mask);
80000296:	fff5c713          	not	a4,a1
C:\NucleiStudio_workspace\HBirdv2_Prj\fly_bird\Debug/../hbird_sdk/SoC/hbirdv2/Common/Source/Drivers/hbirdv2_gpio.c:94
    return 0;
8000029a:	4501                	li	a0,0
C:\NucleiStudio_workspace\HBirdv2_Prj\fly_bird\Debug/../hbird_sdk/SoC/hbirdv2/Common/Source/Drivers/hbirdv2_gpio.c:88
            gpio->INTTYPE0 |= mask;
8000029c:	8dd5                	or	a1,a1,a3
8000029e:	cb8c                	sw	a1,16(a5)
C:\NucleiStudio_workspace\HBirdv2_Prj\fly_bird\Debug/../hbird_sdk/SoC/hbirdv2/Common/Source/Drivers/hbirdv2_gpio.c:89
            gpio->INTTYPE1 &= ~(mask);
800002a0:	4bd4                	lw	a3,20(a5)
800002a2:	8f75                	and	a4,a4,a3
800002a4:	cbd8                	sw	a4,20(a5)
C:\NucleiStudio_workspace\HBirdv2_Prj\fly_bird\Debug/../hbird_sdk/SoC/hbirdv2/Common/Source/Drivers/hbirdv2_gpio.c:90
            break;
800002a6:	8082                	ret
C:\NucleiStudio_workspace\HBirdv2_Prj\fly_bird\Debug/../hbird_sdk/SoC/hbirdv2/Common/Source/Drivers/hbirdv2_gpio.c:74
    switch (type) {
800002a8:	4501                	li	a0,0
800002aa:	8082                	ret
C:\NucleiStudio_workspace\HBirdv2_Prj\fly_bird\Debug/../hbird_sdk/SoC/hbirdv2/Common/Source/Drivers/hbirdv2_gpio.c:76
            gpio->INTTYPE0 &= ~(mask);
800002ac:	4914                	lw	a3,16(a0)
800002ae:	fff5c713          	not	a4,a1
C:\NucleiStudio_workspace\HBirdv2_Prj\fly_bird\Debug/../hbird_sdk/SoC/hbirdv2/Common/Source/Drivers/hbirdv2_gpio.c:94
    return 0;
800002b2:	4501                	li	a0,0
C:\NucleiStudio_workspace\HBirdv2_Prj\fly_bird\Debug/../hbird_sdk/SoC/hbirdv2/Common/Source/Drivers/hbirdv2_gpio.c:76
            gpio->INTTYPE0 &= ~(mask);
800002b4:	8f75                	and	a4,a4,a3
800002b6:	cb98                	sw	a4,16(a5)
C:\NucleiStudio_workspace\HBirdv2_Prj\fly_bird\Debug/../hbird_sdk/SoC/hbirdv2/Common/Source/Drivers/hbirdv2_gpio.c:77
            gpio->INTTYPE1 |= mask;
800002b8:	4bd8                	lw	a4,20(a5)
800002ba:	8dd9                	or	a1,a1,a4
800002bc:	cbcc                	sw	a1,20(a5)
C:\NucleiStudio_workspace\HBirdv2_Prj\fly_bird\Debug/../hbird_sdk/SoC/hbirdv2/Common/Source/Drivers/hbirdv2_gpio.c:78
            break;
800002be:	8082                	ret
C:\NucleiStudio_workspace\HBirdv2_Prj\fly_bird\Debug/../hbird_sdk/SoC/hbirdv2/Common/Source/Drivers/hbirdv2_gpio.c:84
            gpio->INTTYPE0 &= ~(mask);
800002c0:	4918                	lw	a4,16(a0)
800002c2:	fff5c593          	not	a1,a1
C:\NucleiStudio_workspace\HBirdv2_Prj\fly_bird\Debug/../hbird_sdk/SoC/hbirdv2/Common/Source/Drivers/hbirdv2_gpio.c:94
    return 0;
800002c6:	4501                	li	a0,0
C:\NucleiStudio_workspace\HBirdv2_Prj\fly_bird\Debug/../hbird_sdk/SoC/hbirdv2/Common/Source/Drivers/hbirdv2_gpio.c:84
            gpio->INTTYPE0 &= ~(mask);
800002c8:	8f6d                	and	a4,a4,a1
800002ca:	cb98                	sw	a4,16(a5)
C:\NucleiStudio_workspace\HBirdv2_Prj\fly_bird\Debug/../hbird_sdk/SoC/hbirdv2/Common/Source/Drivers/hbirdv2_gpio.c:85
            gpio->INTTYPE1 &= ~(mask);
800002cc:	4bd8                	lw	a4,20(a5)
800002ce:	8df9                	and	a1,a1,a4
800002d0:	cbcc                	sw	a1,20(a5)
C:\NucleiStudio_workspace\HBirdv2_Prj\fly_bird\Debug/../hbird_sdk/SoC/hbirdv2/Common/Source/Drivers/hbirdv2_gpio.c:86
            break;
800002d2:	8082                	ret
C:\NucleiStudio_workspace\HBirdv2_Prj\fly_bird\Debug/../hbird_sdk/SoC/hbirdv2/Common/Source/Drivers/hbirdv2_gpio.c:69
        return -1;
800002d4:	557d                	li	a0,-1
C:\NucleiStudio_workspace\HBirdv2_Prj\fly_bird\Debug/../hbird_sdk/SoC/hbirdv2/Common/Source/Drivers/hbirdv2_gpio.c:95
}
800002d6:	8082                	ret

800002d8 <gpio_clear_interrupt>:
gpio_clear_interrupt():
C:\NucleiStudio_workspace\HBirdv2_Prj\fly_bird\Debug/../hbird_sdk/SoC/hbirdv2/Common/Source/Drivers/hbirdv2_gpio.c:110
    return 0;
}

int32_t gpio_clear_interrupt(GPIO_TypeDef *gpio)
{
    if (__RARELY(gpio == NULL)) {
800002d8:	c119                	beqz	a0,800002de <gpio_clear_interrupt+0x6>
C:\NucleiStudio_workspace\HBirdv2_Prj\fly_bird\Debug/../hbird_sdk/SoC/hbirdv2/Common/Source/Drivers/hbirdv2_gpio.c:115
        return -1;
    }
     

    return gpio->INTSTATUS;
800002da:	4d08                	lw	a0,24(a0)
800002dc:	8082                	ret
C:\NucleiStudio_workspace\HBirdv2_Prj\fly_bird\Debug/../hbird_sdk/SoC/hbirdv2/Common/Source/Drivers/hbirdv2_gpio.c:111
        return -1;
800002de:	557d                	li	a0,-1
C:\NucleiStudio_workspace\HBirdv2_Prj\fly_bird\Debug/../hbird_sdk/SoC/hbirdv2/Common/Source/Drivers/hbirdv2_gpio.c:116
}
800002e0:	8082                	ret

800002e2 <uart_init>:
uart_init():
C:\NucleiStudio_workspace\HBirdv2_Prj\fly_bird\Debug/../hbird_sdk/SoC/hbirdv2/Common/Source/Drivers/hbirdv2_uart.c:5
#include "hbirdv2.h"
#include "hbirdv2_uart.h"

int32_t uart_init(UART_TypeDef *uart, uint32_t baudrate)
{
800002e2:	87aa                	mv	a5,a0
C:\NucleiStudio_workspace\HBirdv2_Prj\fly_bird\Debug/../hbird_sdk/SoC/hbirdv2/Common/Source/Drivers/hbirdv2_uart.c:6
    if (__RARELY(uart == NULL)) {
800002e4:	c915                	beqz	a0,80000318 <uart_init+0x36>
C:\NucleiStudio_workspace\HBirdv2_Prj\fly_bird\Debug/../hbird_sdk/SoC/hbirdv2/Common/Source/Drivers/hbirdv2_uart.c:10
        return -1;
    }

    unsigned int uart_div = SystemCoreClock / baudrate - 1;
800002e6:	10000717          	auipc	a4,0x10000
800002ea:	d7e72703          	lw	a4,-642(a4) # 90000064 <SystemCoreClock>
800002ee:	02b755b3          	divu	a1,a4,a1
C:\NucleiStudio_workspace\HBirdv2_Prj\fly_bird\Debug/../hbird_sdk/SoC/hbirdv2/Common/Source/Drivers/hbirdv2_uart.c:11
    uart->LCR = 0x80;
800002f2:	08000713          	li	a4,128
800002f6:	c558                	sw	a4,12(a0)
C:\NucleiStudio_workspace\HBirdv2_Prj\fly_bird\Debug/../hbird_sdk/SoC/hbirdv2/Common/Source/Drivers/hbirdv2_uart.c:17
    uart->DLM = (uart_div >> 8) & 0xFF;
    uart->DLL = uart_div        & 0xFF;
    uart->FCR = 0xC6;
    uart->LCR = 0x03;

    return 0;
800002f8:	4501                	li	a0,0
C:\NucleiStudio_workspace\HBirdv2_Prj\fly_bird\Debug/../hbird_sdk/SoC/hbirdv2/Common/Source/Drivers/hbirdv2_uart.c:10
    unsigned int uart_div = SystemCoreClock / baudrate - 1;
800002fa:	15fd                	addi	a1,a1,-1
C:\NucleiStudio_workspace\HBirdv2_Prj\fly_bird\Debug/../hbird_sdk/SoC/hbirdv2/Common/Source/Drivers/hbirdv2_uart.c:12
    uart->DLM = (uart_div >> 8) & 0xFF;
800002fc:	0085d713          	srli	a4,a1,0x8
80000300:	0ff77713          	zext.b	a4,a4
80000304:	c3d8                	sw	a4,4(a5)
C:\NucleiStudio_workspace\HBirdv2_Prj\fly_bird\Debug/../hbird_sdk/SoC/hbirdv2/Common/Source/Drivers/hbirdv2_uart.c:13
    uart->DLL = uart_div        & 0xFF;
80000306:	0ff5f593          	zext.b	a1,a1
8000030a:	c38c                	sw	a1,0(a5)
C:\NucleiStudio_workspace\HBirdv2_Prj\fly_bird\Debug/../hbird_sdk/SoC/hbirdv2/Common/Source/Drivers/hbirdv2_uart.c:14
    uart->FCR = 0xC6;
8000030c:	0c600713          	li	a4,198
80000310:	c798                	sw	a4,8(a5)
C:\NucleiStudio_workspace\HBirdv2_Prj\fly_bird\Debug/../hbird_sdk/SoC/hbirdv2/Common/Source/Drivers/hbirdv2_uart.c:15
    uart->LCR = 0x03;
80000312:	470d                	li	a4,3
80000314:	c7d8                	sw	a4,12(a5)
C:\NucleiStudio_workspace\HBirdv2_Prj\fly_bird\Debug/../hbird_sdk/SoC/hbirdv2/Common/Source/Drivers/hbirdv2_uart.c:17
    return 0;
80000316:	8082                	ret
C:\NucleiStudio_workspace\HBirdv2_Prj\fly_bird\Debug/../hbird_sdk/SoC/hbirdv2/Common/Source/Drivers/hbirdv2_uart.c:7
        return -1;
80000318:	557d                	li	a0,-1
C:\NucleiStudio_workspace\HBirdv2_Prj\fly_bird\Debug/../hbird_sdk/SoC/hbirdv2/Common/Source/Drivers/hbirdv2_uart.c:18
}
8000031a:	8082                	ret

8000031c <uart_write>:
uart_write():
C:\NucleiStudio_workspace\HBirdv2_Prj\fly_bird\Debug/../hbird_sdk/SoC/hbirdv2/Common/Source/Drivers/hbirdv2_uart.c:68
    return 0;
}

int32_t uart_write(UART_TypeDef *uart, uint8_t val)
{
    if (__RARELY(uart == NULL)) {
8000031c:	c901                	beqz	a0,8000032c <uart_write+0x10>
C:\NucleiStudio_workspace\HBirdv2_Prj\fly_bird\Debug/../hbird_sdk/SoC/hbirdv2/Common/Source/Drivers/hbirdv2_uart.c:73 (discriminator 1)
        return -1;
    }
#ifndef SIMULATION_SPIKE
#ifndef SIMULATION_XLSPIKE
    while ((uart->LSR & 0x20) == 0);
8000031e:	495c                	lw	a5,20(a0)
80000320:	0207f793          	andi	a5,a5,32
80000324:	dfed                	beqz	a5,8000031e <uart_write+0x2>
C:\NucleiStudio_workspace\HBirdv2_Prj\fly_bird\Debug/../hbird_sdk/SoC/hbirdv2/Common/Source/Drivers/hbirdv2_uart.c:75
#endif
    uart->THR = val;
80000326:	c10c                	sw	a1,0(a0)
C:\NucleiStudio_workspace\HBirdv2_Prj\fly_bird\Debug/../hbird_sdk/SoC/hbirdv2/Common/Source/Drivers/hbirdv2_uart.c:80
#else
    extern void htif_putc(char ch);
    htif_putc(val);
#endif
    return 0;
80000328:	4501                	li	a0,0
8000032a:	8082                	ret
C:\NucleiStudio_workspace\HBirdv2_Prj\fly_bird\Debug/../hbird_sdk/SoC/hbirdv2/Common/Source/Drivers/hbirdv2_uart.c:69
        return -1;
8000032c:	557d                	li	a0,-1
C:\NucleiStudio_workspace\HBirdv2_Prj\fly_bird\Debug/../hbird_sdk/SoC/hbirdv2/Common/Source/Drivers/hbirdv2_uart.c:81
}
8000032e:	8082                	ret

80000330 <uart_read>:
uart_read():
C:\NucleiStudio_workspace\HBirdv2_Prj\fly_bird\Debug/../hbird_sdk/SoC/hbirdv2/Common/Source/Drivers/hbirdv2_uart.c:86

uint8_t uart_read(UART_TypeDef *uart)
{
    uint32_t reg;
    if (__RARELY(uart == NULL)) {
80000330:	c901                	beqz	a0,80000340 <uart_read+0x10>
C:\NucleiStudio_workspace\HBirdv2_Prj\fly_bird\Debug/../hbird_sdk/SoC/hbirdv2/Common/Source/Drivers/hbirdv2_uart.c:90 (discriminator 1)
        return -1;
    }
    
    while ((uart->LSR & 0x1) == 0);
80000332:	495c                	lw	a5,20(a0)
80000334:	8b85                	andi	a5,a5,1
80000336:	dff5                	beqz	a5,80000332 <uart_read+0x2>
C:\NucleiStudio_workspace\HBirdv2_Prj\fly_bird\Debug/../hbird_sdk/SoC/hbirdv2/Common/Source/Drivers/hbirdv2_uart.c:91
    reg = uart->RBR;
80000338:	4108                	lw	a0,0(a0)
C:\NucleiStudio_workspace\HBirdv2_Prj\fly_bird\Debug/../hbird_sdk/SoC/hbirdv2/Common/Source/Drivers/hbirdv2_uart.c:93
    
    return (uint8_t)(reg & 0xFF);
8000033a:	0ff57513          	zext.b	a0,a0
8000033e:	8082                	ret
C:\NucleiStudio_workspace\HBirdv2_Prj\fly_bird\Debug/../hbird_sdk/SoC/hbirdv2/Common/Source/Drivers/hbirdv2_uart.c:87
        return -1;
80000340:	0ff00513          	li	a0,255
C:\NucleiStudio_workspace\HBirdv2_Prj\fly_bird\Debug/../hbird_sdk/SoC/hbirdv2/Common/Source/Drivers/hbirdv2_uart.c:94
}
80000344:	8082                	ret

80000346 <measure_cpu_freq>:
SysTimer_GetLoadValue():
C:\NucleiStudio_workspace\HBirdv2_Prj\fly_bird\hbird_sdk\NMSIS\Core\Include/core_feature_timer.h:106
 * - Load value is 64bits wide.
 * - \ref SysTimer_SetLoadValue
 */
__STATIC_FORCEINLINE uint64_t SysTimer_GetLoadValue(void)
{
    return SysTimer->MTIME;
80000346:	0200c7b7          	lui	a5,0x200c
8000034a:	ff87a703          	lw	a4,-8(a5) # 200bff8 <__stack_size+0x200b7f8>
8000034e:	ffc7a783          	lw	a5,-4(a5)
measure_cpu_freq():
C:\NucleiStudio_workspace\HBirdv2_Prj\fly_bird\Debug/../hbird_sdk/SoC/hbirdv2/Common/Source/hbirdv2_common.c:9
{
    return SOC_TIMER_FREQ;
}

uint32_t measure_cpu_freq(uint32_t n)
{
80000352:	1141                	addi	sp,sp,-16
80000354:	c606                	sw	ra,12(sp)
80000356:	c422                	sw	s0,8(sp)
80000358:	c226                	sw	s1,4(sp)
C:\NucleiStudio_workspace\HBirdv2_Prj\fly_bird\Debug/../hbird_sdk/SoC/hbirdv2/Common/Source/hbirdv2_common.c:15
    uint32_t start_mcycle, delta_mcycle;
    uint32_t start_mtime, delta_mtime;
    uint64_t mtime_freq = get_timer_freq();

    // Don't start measuruing until we see an mtime tick
    uint32_t tmp = (uint32_t)SysTimer_GetLoadValue();
8000035a:	86ba                	mv	a3,a4
SysTimer_GetLoadValue():
C:\NucleiStudio_workspace\HBirdv2_Prj\fly_bird\hbird_sdk\NMSIS\Core\Include/core_feature_timer.h:106
8000035c:	0200c637          	lui	a2,0x200c
C:\NucleiStudio_workspace\HBirdv2_Prj\fly_bird\hbird_sdk\NMSIS\Core\Include/core_feature_timer.h:106 (discriminator 1)
80000360:	ff862703          	lw	a4,-8(a2) # 200bff8 <__stack_size+0x200b7f8>
80000364:	ffc62783          	lw	a5,-4(a2)
measure_cpu_freq():
C:\NucleiStudio_workspace\HBirdv2_Prj\fly_bird\Debug/../hbird_sdk/SoC/hbirdv2/Common/Source/hbirdv2_common.c:18 (discriminator 1)
    do {
        start_mtime = (uint32_t)SysTimer_GetLoadValue();
        start_mcycle = __RV_CSR_READ(CSR_MCYCLE);
80000368:	b00024f3          	csrr	s1,mcycle
C:\NucleiStudio_workspace\HBirdv2_Prj\fly_bird\Debug/../hbird_sdk/SoC/hbirdv2/Common/Source/hbirdv2_common.c:19 (discriminator 1)
    } while (start_mtime == tmp);
8000036c:	fee68ae3          	beq	a3,a4,80000360 <measure_cpu_freq+0x1a>
SysTimer_GetLoadValue():
C:\NucleiStudio_workspace\HBirdv2_Prj\fly_bird\hbird_sdk\NMSIS\Core\Include/core_feature_timer.h:106
80000370:	0200c5b7          	lui	a1,0x200c
C:\NucleiStudio_workspace\HBirdv2_Prj\fly_bird\hbird_sdk\NMSIS\Core\Include/core_feature_timer.h:106 (discriminator 1)
80000374:	ff85a603          	lw	a2,-8(a1) # 200bff8 <__stack_size+0x200b7f8>
80000378:	ffc5a683          	lw	a3,-4(a1)
measure_cpu_freq():
C:\NucleiStudio_workspace\HBirdv2_Prj\fly_bird\Debug/../hbird_sdk/SoC/hbirdv2/Common/Source/hbirdv2_common.c:22 (discriminator 1)

    do {
        delta_mtime = (uint32_t)SysTimer_GetLoadValue() - start_mtime;
8000037c:	40e60433          	sub	s0,a2,a4
C:\NucleiStudio_workspace\HBirdv2_Prj\fly_bird\Debug/../hbird_sdk/SoC/hbirdv2/Common/Source/hbirdv2_common.c:23 (discriminator 1)
        delta_mcycle = __RV_CSR_READ(CSR_MCYCLE) - start_mcycle;
80000380:	b00027f3          	csrr	a5,mcycle
C:\NucleiStudio_workspace\HBirdv2_Prj\fly_bird\Debug/../hbird_sdk/SoC/hbirdv2/Common/Source/hbirdv2_common.c:24 (discriminator 1)
    } while (delta_mtime < n);
80000384:	fea468e3          	bltu	s0,a0,80000374 <measure_cpu_freq+0x2e>
C:\NucleiStudio_workspace\HBirdv2_Prj\fly_bird\Debug/../hbird_sdk/SoC/hbirdv2/Common/Source/hbirdv2_common.c:23
        delta_mcycle = __RV_CSR_READ(CSR_MCYCLE) - start_mcycle;
80000388:	409784b3          	sub	s1,a5,s1
C:\NucleiStudio_workspace\HBirdv2_Prj\fly_bird\Debug/../hbird_sdk/SoC/hbirdv2/Common/Source/hbirdv2_common.c:27

    return (delta_mcycle / delta_mtime) * mtime_freq
           + ((delta_mcycle % delta_mtime) * mtime_freq) / delta_mtime;
8000038c:	0284f5b3          	remu	a1,s1,s0
80000390:	8622                	mv	a2,s0
80000392:	4681                	li	a3,0
80000394:	00f59513          	slli	a0,a1,0xf
80000398:	81c5                	srli	a1,a1,0x11
8000039a:	47d010ef          	jal	ra,80002016 <__udivdi3>
C:\NucleiStudio_workspace\HBirdv2_Prj\fly_bird\Debug/../hbird_sdk/SoC/hbirdv2/Common/Source/hbirdv2_common.c:26
    return (delta_mcycle / delta_mtime) * mtime_freq
8000039e:	0284d633          	divu	a2,s1,s0
C:\NucleiStudio_workspace\HBirdv2_Prj\fly_bird\Debug/../hbird_sdk/SoC/hbirdv2/Common/Source/hbirdv2_common.c:28
}
800003a2:	40b2                	lw	ra,12(sp)
800003a4:	4422                	lw	s0,8(sp)
800003a6:	4492                	lw	s1,4(sp)
800003a8:	0141                	addi	sp,sp,16
C:\NucleiStudio_workspace\HBirdv2_Prj\fly_bird\Debug/../hbird_sdk/SoC/hbirdv2/Common/Source/hbirdv2_common.c:27
           + ((delta_mcycle % delta_mtime) * mtime_freq) / delta_mtime;
800003aa:	063e                	slli	a2,a2,0xf
C:\NucleiStudio_workspace\HBirdv2_Prj\fly_bird\Debug/../hbird_sdk/SoC/hbirdv2/Common/Source/hbirdv2_common.c:28
}
800003ac:	9532                	add	a0,a0,a2
800003ae:	8082                	ret

800003b0 <get_cpu_freq>:
get_cpu_freq():
C:\NucleiStudio_workspace\HBirdv2_Prj\fly_bird\Debug/../hbird_sdk/SoC/hbirdv2/Common/Source/hbirdv2_common.c:31

uint32_t get_cpu_freq(void)
{
800003b0:	1141                	addi	sp,sp,-16
C:\NucleiStudio_workspace\HBirdv2_Prj\fly_bird\Debug/../hbird_sdk/SoC/hbirdv2/Common/Source/hbirdv2_common.c:35
    uint32_t cpu_freq;

    // warm up
    measure_cpu_freq(1);
800003b2:	4505                	li	a0,1
C:\NucleiStudio_workspace\HBirdv2_Prj\fly_bird\Debug/../hbird_sdk/SoC/hbirdv2/Common/Source/hbirdv2_common.c:31
{
800003b4:	c606                	sw	ra,12(sp)
C:\NucleiStudio_workspace\HBirdv2_Prj\fly_bird\Debug/../hbird_sdk/SoC/hbirdv2/Common/Source/hbirdv2_common.c:35
    measure_cpu_freq(1);
800003b6:	3f41                	jal	80000346 <measure_cpu_freq>
C:\NucleiStudio_workspace\HBirdv2_Prj\fly_bird\Debug/../hbird_sdk/SoC/hbirdv2/Common/Source/hbirdv2_common.c:40
    // measure for real
    cpu_freq = measure_cpu_freq(100);

    return cpu_freq;
}
800003b8:	40b2                	lw	ra,12(sp)
C:\NucleiStudio_workspace\HBirdv2_Prj\fly_bird\Debug/../hbird_sdk/SoC/hbirdv2/Common/Source/hbirdv2_common.c:37
    cpu_freq = measure_cpu_freq(100);
800003ba:	06400513          	li	a0,100
C:\NucleiStudio_workspace\HBirdv2_Prj\fly_bird\Debug/../hbird_sdk/SoC/hbirdv2/Common/Source/hbirdv2_common.c:40
}
800003be:	0141                	addi	sp,sp,16
C:\NucleiStudio_workspace\HBirdv2_Prj\fly_bird\Debug/../hbird_sdk/SoC/hbirdv2/Common/Source/hbirdv2_common.c:37
    cpu_freq = measure_cpu_freq(100);
800003c0:	b759                	j	80000346 <measure_cpu_freq>

800003c2 <system_default_exception_handler>:
system_default_exception_handler():
C:\NucleiStudio_workspace\HBirdv2_Prj\fly_bird\Debug/../hbird_sdk/SoC/hbirdv2/Common/Source/system_hbirdv2.c:168
 * \details
 * This function provided a default exception handling code for all exception ids.
 * By default, It will just print some information for debug, Vendor can customize it according to its requirements.
 */
static void system_default_exception_handler(unsigned long mcause, unsigned long sp)
{
800003c2:	1141                	addi	sp,sp,-16
800003c4:	c422                	sw	s0,8(sp)
800003c6:	842a                	mv	s0,a0
C:\NucleiStudio_workspace\HBirdv2_Prj\fly_bird\Debug/../hbird_sdk/SoC/hbirdv2/Common/Source/system_hbirdv2.c:170
    /* TODO: Uncomment this if you have implement printf function */
    printf("Trap in Exception\r\n");
800003c8:	00004517          	auipc	a0,0x4
800003cc:	fac50513          	addi	a0,a0,-84 # 80004374 <_getpid_r+0x4>
C:\NucleiStudio_workspace\HBirdv2_Prj\fly_bird\Debug/../hbird_sdk/SoC/hbirdv2/Common/Source/system_hbirdv2.c:168
{
800003d0:	c606                	sw	ra,12(sp)
C:\NucleiStudio_workspace\HBirdv2_Prj\fly_bird\Debug/../hbird_sdk/SoC/hbirdv2/Common/Source/system_hbirdv2.c:170
    printf("Trap in Exception\r\n");
800003d2:	4f7020ef          	jal	ra,800030c8 <puts>
C:\NucleiStudio_workspace\HBirdv2_Prj\fly_bird\Debug/../hbird_sdk/SoC/hbirdv2/Common/Source/system_hbirdv2.c:171
    printf("MCAUSE: 0x%lx\r\n", mcause);
800003d6:	85a2                	mv	a1,s0
800003d8:	00004517          	auipc	a0,0x4
800003dc:	fb050513          	addi	a0,a0,-80 # 80004388 <_getpid_r+0x18>
800003e0:	3d5020ef          	jal	ra,80002fb4 <iprintf>
C:\NucleiStudio_workspace\HBirdv2_Prj\fly_bird\Debug/../hbird_sdk/SoC/hbirdv2/Common/Source/system_hbirdv2.c:172
    printf("MEPC  : 0x%lx\r\n", __RV_CSR_READ(CSR_MEPC));
800003e4:	341025f3          	csrr	a1,mepc
800003e8:	00004517          	auipc	a0,0x4
800003ec:	fb050513          	addi	a0,a0,-80 # 80004398 <_getpid_r+0x28>
800003f0:	3c5020ef          	jal	ra,80002fb4 <iprintf>
C:\NucleiStudio_workspace\HBirdv2_Prj\fly_bird\Debug/../hbird_sdk/SoC/hbirdv2/Common/Source/system_hbirdv2.c:173
    printf("MTVAL : 0x%lx\r\n", __RV_CSR_READ(CSR_MBADADDR));
800003f4:	343025f3          	csrr	a1,mtval
800003f8:	00004517          	auipc	a0,0x4
800003fc:	fb050513          	addi	a0,a0,-80 # 800043a8 <_getpid_r+0x38>
80000400:	3b5020ef          	jal	ra,80002fb4 <iprintf>
C:\NucleiStudio_workspace\HBirdv2_Prj\fly_bird\Debug/../hbird_sdk/SoC/hbirdv2/Common/Source/system_hbirdv2.c:174 (discriminator 1)
    while(1);
80000404:	a001                	j	80000404 <system_default_exception_handler+0x42>

80000406 <system_default_interrupt_handler>:
system_default_interrupt_handler():
C:\NucleiStudio_workspace\HBirdv2_Prj\fly_bird\Debug/../hbird_sdk/SoC/hbirdv2/Common/Source/system_hbirdv2.c:183
 * \brief      System Default Interrupt Handler
 * \details
 * This function provided a default interrupt handling code for all interrupt ids.
 */
static void system_default_interrupt_handler(unsigned long mcause, unsigned long sp)
{
80000406:	1141                	addi	sp,sp,-16
80000408:	c422                	sw	s0,8(sp)
8000040a:	842a                	mv	s0,a0
C:\NucleiStudio_workspace\HBirdv2_Prj\fly_bird\Debug/../hbird_sdk/SoC/hbirdv2/Common/Source/system_hbirdv2.c:185
    /* TODO: Uncomment this if you have implement printf function */
    printf("Trap in Interrupt\r\n");
8000040c:	00004517          	auipc	a0,0x4
80000410:	fac50513          	addi	a0,a0,-84 # 800043b8 <_getpid_r+0x48>
C:\NucleiStudio_workspace\HBirdv2_Prj\fly_bird\Debug/../hbird_sdk/SoC/hbirdv2/Common/Source/system_hbirdv2.c:183
{
80000414:	c606                	sw	ra,12(sp)
C:\NucleiStudio_workspace\HBirdv2_Prj\fly_bird\Debug/../hbird_sdk/SoC/hbirdv2/Common/Source/system_hbirdv2.c:185
    printf("Trap in Interrupt\r\n");
80000416:	4b3020ef          	jal	ra,800030c8 <puts>
C:\NucleiStudio_workspace\HBirdv2_Prj\fly_bird\Debug/../hbird_sdk/SoC/hbirdv2/Common/Source/system_hbirdv2.c:186
    printf("MCAUSE: 0x%lx\r\n", mcause);
8000041a:	85a2                	mv	a1,s0
8000041c:	00004517          	auipc	a0,0x4
80000420:	f6c50513          	addi	a0,a0,-148 # 80004388 <_getpid_r+0x18>
80000424:	391020ef          	jal	ra,80002fb4 <iprintf>
C:\NucleiStudio_workspace\HBirdv2_Prj\fly_bird\Debug/../hbird_sdk/SoC/hbirdv2/Common/Source/system_hbirdv2.c:187
    printf("MEPC  : 0x%lx\r\n", __RV_CSR_READ(CSR_MEPC));
80000428:	341025f3          	csrr	a1,mepc
8000042c:	00004517          	auipc	a0,0x4
80000430:	f6c50513          	addi	a0,a0,-148 # 80004398 <_getpid_r+0x28>
80000434:	381020ef          	jal	ra,80002fb4 <iprintf>
C:\NucleiStudio_workspace\HBirdv2_Prj\fly_bird\Debug/../hbird_sdk/SoC/hbirdv2/Common/Source/system_hbirdv2.c:188
    printf("MTVAL : 0x%lx\r\n", __RV_CSR_READ(CSR_MBADADDR));
80000438:	343025f3          	csrr	a1,mtval
C:\NucleiStudio_workspace\HBirdv2_Prj\fly_bird\Debug/../hbird_sdk/SoC/hbirdv2/Common/Source/system_hbirdv2.c:189
}
8000043c:	4422                	lw	s0,8(sp)
8000043e:	40b2                	lw	ra,12(sp)
C:\NucleiStudio_workspace\HBirdv2_Prj\fly_bird\Debug/../hbird_sdk/SoC/hbirdv2/Common/Source/system_hbirdv2.c:188
    printf("MTVAL : 0x%lx\r\n", __RV_CSR_READ(CSR_MBADADDR));
80000440:	00004517          	auipc	a0,0x4
80000444:	f6850513          	addi	a0,a0,-152 # 800043a8 <_getpid_r+0x38>
C:\NucleiStudio_workspace\HBirdv2_Prj\fly_bird\Debug/../hbird_sdk/SoC/hbirdv2/Common/Source/system_hbirdv2.c:189
}
80000448:	0141                	addi	sp,sp,16
C:\NucleiStudio_workspace\HBirdv2_Prj\fly_bird\Debug/../hbird_sdk/SoC/hbirdv2/Common/Source/system_hbirdv2.c:188
    printf("MTVAL : 0x%lx\r\n", __RV_CSR_READ(CSR_MBADADDR));
8000044a:	36b0206f          	j	80002fb4 <iprintf>

8000044e <SystemInit>:
SystemInit():
C:\NucleiStudio_workspace\HBirdv2_Prj\fly_bird\Debug/../hbird_sdk/SoC/hbirdv2/Common/Source/system_hbirdv2.c:125
    SystemCoreClock = SYSTEM_CLOCK;
8000044e:	04c4b7b7          	lui	a5,0x4c4b
80000452:	40078793          	addi	a5,a5,1024 # 4c4b400 <__stack_size+0x4c4ac00>
80000456:	80f1a223          	sw	a5,-2044(gp) # 90000064 <SystemCoreClock>
C:\NucleiStudio_workspace\HBirdv2_Prj\fly_bird\Debug/../hbird_sdk/SoC/hbirdv2/Common/Source/system_hbirdv2.c:126
}
8000045a:	8082                	ret

8000045c <core_trap_handler>:
core_trap_handler():
C:\NucleiStudio_workspace\HBirdv2_Prj\fly_bird\Debug/../hbird_sdk/SoC/hbirdv2/Common/Source/system_hbirdv2.c:322
 * - If you want to register core exception handler, please use \ref Exception_Register_EXC
 * - If you want to register core interrupt handler, please use \ref Interrupt_Register_CoreIRQ
 * - If you want to register external interrupt handler, please use \ref Interrupt_Register_ExtIRQ
 */
uint32_t core_trap_handler(unsigned long mcause, unsigned long sp)
{
8000045c:	1141                	addi	sp,sp,-16
C:\NucleiStudio_workspace\HBirdv2_Prj\fly_bird\Debug/../hbird_sdk/SoC/hbirdv2/Common/Source/system_hbirdv2.c:325
    if (mcause & MCAUSE_INTERRUPT) {
        INT_HANDLER int_handler = NULL;
        uint32_t irqn = (uint32_t)(mcause & 0X00000fff);
8000045e:	01451793          	slli	a5,a0,0x14
C:\NucleiStudio_workspace\HBirdv2_Prj\fly_bird\Debug/../hbird_sdk/SoC/hbirdv2/Common/Source/system_hbirdv2.c:322
{
80000462:	c606                	sw	ra,12(sp)
80000464:	c422                	sw	s0,8(sp)
C:\NucleiStudio_workspace\HBirdv2_Prj\fly_bird\Debug/../hbird_sdk/SoC/hbirdv2/Common/Source/system_hbirdv2.c:325
        uint32_t irqn = (uint32_t)(mcause & 0X00000fff);
80000466:	83d1                	srli	a5,a5,0x14
C:\NucleiStudio_workspace\HBirdv2_Prj\fly_bird\Debug/../hbird_sdk/SoC/hbirdv2/Common/Source/system_hbirdv2.c:323
    if (mcause & MCAUSE_INTERRUPT) {
80000468:	02055163          	bgez	a0,8000048a <core_trap_handler+0x2e>
C:\NucleiStudio_workspace\HBirdv2_Prj\fly_bird\Debug/../hbird_sdk/SoC/hbirdv2/Common/Source/system_hbirdv2.c:326
        if (irqn == IRQ_M_EXT) {
8000046c:	472d                	li	a4,11
8000046e:	04e78363          	beq	a5,a4,800004b4 <core_trap_handler+0x58>
C:\NucleiStudio_workspace\HBirdv2_Prj\fly_bird\Debug/../hbird_sdk/SoC/hbirdv2/Common/Source/system_hbirdv2.c:338
                }
                PLIC_CompleteInterrupt(irqn);
            }
#endif
        } else {
            int_handler = (INT_HANDLER)(SystemCoreInterruptHandlers[irqn]);
80000472:	078a                	slli	a5,a5,0x2
80000474:	84018713          	addi	a4,gp,-1984 # 900000a0 <SystemCoreInterruptHandlers>
80000478:	97ba                	add	a5,a5,a4
8000047a:	439c                	lw	a5,0(a5)
C:\NucleiStudio_workspace\HBirdv2_Prj\fly_bird\Debug/../hbird_sdk/SoC/hbirdv2/Common/Source/system_hbirdv2.c:339
            if (int_handler != NULL) {
8000047c:	c391                	beqz	a5,80000480 <core_trap_handler+0x24>
core_exception_handler():
C:\NucleiStudio_workspace\HBirdv2_Prj\fly_bird\Debug/../hbird_sdk/SoC/hbirdv2/Common/Source/system_hbirdv2.c:371
        exc_handler = (EXC_HANDLER)SystemExceptionHandlers[EXCn];
    } else {
        exc_handler = (EXC_HANDLER)system_default_exception_handler;
    }
    if (exc_handler != NULL) {
        exc_handler(mcause, sp);
8000047e:	9782                	jalr	a5
core_trap_handler():
C:\NucleiStudio_workspace\HBirdv2_Prj\fly_bird\Debug/../hbird_sdk/SoC/hbirdv2/Common/Source/system_hbirdv2.c:347
}
80000480:	40b2                	lw	ra,12(sp)
80000482:	4422                	lw	s0,8(sp)
80000484:	4501                	li	a0,0
80000486:	0141                	addi	sp,sp,16
80000488:	8082                	ret
core_exception_handler():
C:\NucleiStudio_workspace\HBirdv2_Prj\fly_bird\Debug/../hbird_sdk/SoC/hbirdv2/Common/Source/system_hbirdv2.c:365
    if ((EXCn < MAX_SYSTEM_EXCEPTION_NUM) && (EXCn >= 0)) {
8000048a:	4629                	li	a2,10
8000048c:	872a                	mv	a4,a0
8000048e:	86ae                	mv	a3,a1
80000490:	00f66b63          	bltu	a2,a5,800004a6 <core_trap_handler+0x4a>
C:\NucleiStudio_workspace\HBirdv2_Prj\fly_bird\Debug/../hbird_sdk/SoC/hbirdv2/Common/Source/system_hbirdv2.c:366
        exc_handler = (EXC_HANDLER)SystemExceptionHandlers[EXCn];
80000494:	078a                	slli	a5,a5,0x2
80000496:	86818613          	addi	a2,gp,-1944 # 900000c8 <SystemExceptionHandlers>
8000049a:	97b2                	add	a5,a5,a2
8000049c:	439c                	lw	a5,0(a5)
C:\NucleiStudio_workspace\HBirdv2_Prj\fly_bird\Debug/../hbird_sdk/SoC/hbirdv2/Common/Source/system_hbirdv2.c:370
    if (exc_handler != NULL) {
8000049e:	d3ed                	beqz	a5,80000480 <core_trap_handler+0x24>
C:\NucleiStudio_workspace\HBirdv2_Prj\fly_bird\Debug/../hbird_sdk/SoC/hbirdv2/Common/Source/system_hbirdv2.c:371
        exc_handler(mcause, sp);
800004a0:	85b6                	mv	a1,a3
800004a2:	853a                	mv	a0,a4
800004a4:	bfe9                	j	8000047e <core_trap_handler+0x22>
C:\NucleiStudio_workspace\HBirdv2_Prj\fly_bird\Debug/../hbird_sdk/SoC/hbirdv2/Common/Source/system_hbirdv2.c:368
        exc_handler = (EXC_HANDLER)system_default_exception_handler;
800004a6:	00000797          	auipc	a5,0x0
800004aa:	f1c78793          	addi	a5,a5,-228 # 800003c2 <system_default_exception_handler>
C:\NucleiStudio_workspace\HBirdv2_Prj\fly_bird\Debug/../hbird_sdk/SoC/hbirdv2/Common/Source/system_hbirdv2.c:371
        exc_handler(mcause, sp);
800004ae:	85b6                	mv	a1,a3
800004b0:	853a                	mv	a0,a4
800004b2:	b7f1                	j	8000047e <core_trap_handler+0x22>
PLIC_ClaimInterrupt():
C:\NucleiStudio_workspace\HBirdv2_Prj\fly_bird\hbird_sdk\NMSIS\Core\Include/core_feature_plic.h:273
 * \sa
 * - \ref PLIC_CompleteInterrupt
 */
__STATIC_FORCEINLINE uint32_t PLIC_ClaimInterrupt(void)
{
    uint32_t hartid = __RV_CSR_READ(CSR_MHARTID);
800004b4:	f14027f3          	csrr	a5,mhartid
C:\NucleiStudio_workspace\HBirdv2_Prj\fly_bird\hbird_sdk\NMSIS\Core\Include/core_feature_plic.h:274
    volatile uint32_t *claim_reg = (uint32_t *)((PLIC_BASE) + PLIC_CLAIM_OFFSET + \
800004b8:	0c200737          	lui	a4,0xc200
C:\NucleiStudio_workspace\HBirdv2_Prj\fly_bird\hbird_sdk\NMSIS\Core\Include/core_feature_plic.h:275
                    + (hartid << PLIC_CLAIM_SHIFT_PER_TARGET));
800004bc:	07b2                	slli	a5,a5,0xc
C:\NucleiStudio_workspace\HBirdv2_Prj\fly_bird\hbird_sdk\NMSIS\Core\Include/core_feature_plic.h:274
    volatile uint32_t *claim_reg = (uint32_t *)((PLIC_BASE) + PLIC_CLAIM_OFFSET + \
800004be:	0711                	addi	a4,a4,4
800004c0:	97ba                	add	a5,a5,a4
C:\NucleiStudio_workspace\HBirdv2_Prj\fly_bird\hbird_sdk\NMSIS\Core\Include/core_feature_plic.h:277

    return (*claim_reg);
800004c2:	4380                	lw	s0,0(a5)
core_trap_handler():
C:\NucleiStudio_workspace\HBirdv2_Prj\fly_bird\Debug/../hbird_sdk/SoC/hbirdv2/Common/Source/system_hbirdv2.c:329
            if (irqn < __PLIC_INTNUM) {
800004c4:	47c1                	li	a5,16
800004c6:	fa87ede3          	bltu	a5,s0,80000480 <core_trap_handler+0x24>
C:\NucleiStudio_workspace\HBirdv2_Prj\fly_bird\Debug/../hbird_sdk/SoC/hbirdv2/Common/Source/system_hbirdv2.c:330
                int_handler = (INT_HANDLER)(SystemExtInterruptHandlers[irqn]);
800004ca:	00241713          	slli	a4,s0,0x2
800004ce:	89418793          	addi	a5,gp,-1900 # 900000f4 <SystemExtInterruptHandlers>
800004d2:	97ba                	add	a5,a5,a4
800004d4:	439c                	lw	a5,0(a5)
C:\NucleiStudio_workspace\HBirdv2_Prj\fly_bird\Debug/../hbird_sdk/SoC/hbirdv2/Common/Source/system_hbirdv2.c:331
                if (int_handler != NULL) {
800004d6:	c391                	beqz	a5,800004da <core_trap_handler+0x7e>
C:\NucleiStudio_workspace\HBirdv2_Prj\fly_bird\Debug/../hbird_sdk/SoC/hbirdv2/Common/Source/system_hbirdv2.c:332
                    int_handler(mcause, sp);
800004d8:	9782                	jalr	a5
PLIC_CompleteInterrupt():
C:\NucleiStudio_workspace\HBirdv2_Prj\fly_bird\hbird_sdk\NMSIS\Core\Include/core_feature_plic.h:298
 * \sa
 * - \ref PLIC_ClaimInterrupt
 */
__STATIC_FORCEINLINE void PLIC_CompleteInterrupt(uint32_t source)
{
    uint32_t hartid = __RV_CSR_READ(CSR_MHARTID);
800004da:	f14027f3          	csrr	a5,mhartid
C:\NucleiStudio_workspace\HBirdv2_Prj\fly_bird\hbird_sdk\NMSIS\Core\Include/core_feature_plic.h:299
    volatile uint32_t *complete_reg = (uint32_t *)((PLIC_BASE) + PLIC_CLAIM_OFFSET + \
800004de:	0c200737          	lui	a4,0xc200
C:\NucleiStudio_workspace\HBirdv2_Prj\fly_bird\hbird_sdk\NMSIS\Core\Include/core_feature_plic.h:300
                    + (hartid << PLIC_CLAIM_SHIFT_PER_TARGET));
800004e2:	07b2                	slli	a5,a5,0xc
C:\NucleiStudio_workspace\HBirdv2_Prj\fly_bird\hbird_sdk\NMSIS\Core\Include/core_feature_plic.h:299
    volatile uint32_t *complete_reg = (uint32_t *)((PLIC_BASE) + PLIC_CLAIM_OFFSET + \
800004e4:	0711                	addi	a4,a4,4
800004e6:	97ba                	add	a5,a5,a4
C:\NucleiStudio_workspace\HBirdv2_Prj\fly_bird\hbird_sdk\NMSIS\Core\Include/core_feature_plic.h:302

    *complete_reg = source;
800004e8:	c380                	sw	s0,0(a5)
C:\NucleiStudio_workspace\HBirdv2_Prj\fly_bird\hbird_sdk\NMSIS\Core\Include/core_feature_plic.h:303
}
800004ea:	bf59                	j	80000480 <core_trap_handler+0x24>

800004ec <PLIC_Register_IRQ>:
PLIC_Register_IRQ():
C:\NucleiStudio_workspace\HBirdv2_Prj\fly_bird\Debug/../hbird_sdk/SoC/hbirdv2/Common/Source/system_hbirdv2.c:437
 * \remarks
 * - This function use to configure specific plic interrupt and register its interrupt handler and enable its interrupt.
 */
int32_t PLIC_Register_IRQ(uint32_t source, uint8_t priority, void *handler)
{
    if ((source >= __PLIC_INTNUM)) {
800004ec:	47c1                	li	a5,16
800004ee:	04a7e063          	bltu	a5,a0,8000052e <PLIC_Register_IRQ+0x42>
PLIC_SetPriority():
C:\NucleiStudio_workspace\HBirdv2_Prj\fly_bird\hbird_sdk\NMSIS\Core\Include/core_feature_plic.h:235
                    + (source << PLIC_PRIORITY_SHIFT_PER_SOURCE));
800004f2:	00251713          	slli	a4,a0,0x2
C:\NucleiStudio_workspace\HBirdv2_Prj\fly_bird\hbird_sdk\NMSIS\Core\Include/core_feature_plic.h:234
    volatile uint32_t *priority_reg = (uint32_t *)((PLIC_BASE) + PLIC_PRIORITY_OFFSET + \
800004f6:	0c0007b7          	lui	a5,0xc000
800004fa:	97ba                	add	a5,a5,a4
C:\NucleiStudio_workspace\HBirdv2_Prj\fly_bird\hbird_sdk\NMSIS\Core\Include/core_feature_plic.h:237
    *priority_reg = priority;
800004fc:	c38c                	sw	a1,0(a5)
PLIC_Register_IRQ():
C:\NucleiStudio_workspace\HBirdv2_Prj\fly_bird\Debug/../hbird_sdk/SoC/hbirdv2/Common/Source/system_hbirdv2.c:443
        return -1;
    }

    /* set interrupt priority */
    PLIC_SetPriority(source, priority);
    if (handler != NULL) {
800004fe:	c609                	beqz	a2,80000508 <PLIC_Register_IRQ+0x1c>
Interrupt_Register_ExtIRQ():
C:\NucleiStudio_workspace\HBirdv2_Prj\fly_bird\Debug/../hbird_sdk/SoC/hbirdv2/Common/Source/system_hbirdv2.c:261
        SystemExtInterruptHandlers[irqn] = int_handler;
80000500:	89418793          	addi	a5,gp,-1900 # 900000f4 <SystemExtInterruptHandlers>
80000504:	97ba                	add	a5,a5,a4
80000506:	c390                	sw	a2,0(a5)
PLIC_EnableInterrupt():
C:\NucleiStudio_workspace\HBirdv2_Prj\fly_bird\hbird_sdk\NMSIS\Core\Include/core_feature_plic.h:171
    uint32_t hartid = __RV_CSR_READ(CSR_MHARTID);
80000508:	f14027f3          	csrr	a5,mhartid
C:\NucleiStudio_workspace\HBirdv2_Prj\fly_bird\hbird_sdk\NMSIS\Core\Include/core_feature_plic.h:173
                    (hartid << PLIC_ENABLE_SHIFT_PER_TARGET) + (source >> 5) * 4);
8000050c:	0c002737          	lui	a4,0xc002
80000510:	079e                	slli	a5,a5,0x7
80000512:	97ba                	add	a5,a5,a4
C:\NucleiStudio_workspace\HBirdv2_Prj\fly_bird\hbird_sdk\NMSIS\Core\Include/core_feature_plic.h:175
    uint32_t current = *enable_reg;
80000514:	4394                	lw	a3,0(a5)
C:\NucleiStudio_workspace\HBirdv2_Prj\fly_bird\hbird_sdk\NMSIS\Core\Include/core_feature_plic.h:176
    current = current | (1<<(source&0x1F));
80000516:	4705                	li	a4,1
80000518:	00a71533          	sll	a0,a4,a0
8000051c:	8d55                	or	a0,a0,a3
C:\NucleiStudio_workspace\HBirdv2_Prj\fly_bird\hbird_sdk\NMSIS\Core\Include/core_feature_plic.h:177
    *enable_reg = current;
8000051e:	c388                	sw	a0,0(a5)
__enable_ext_irq():
C:\NucleiStudio_workspace\HBirdv2_Prj\fly_bird\hbird_sdk\NMSIS\Core\Include/core_feature_base.h:377
    __RV_CSR_SET(CSR_MIE, MIE_MEIE);
80000520:	6785                	lui	a5,0x1
80000522:	80078793          	addi	a5,a5,-2048 # 800 <__stack_size>
80000526:	3047a073          	csrs	mie,a5
PLIC_Register_IRQ():
C:\NucleiStudio_workspace\HBirdv2_Prj\fly_bird\Debug/../hbird_sdk/SoC/hbirdv2/Common/Source/system_hbirdv2.c:450
        Interrupt_Register_ExtIRQ(source, (unsigned long)handler);
    }
    /* enable interrupt */
    PLIC_EnableInterrupt(source);
    __enable_ext_irq();
    return 0;
8000052a:	4501                	li	a0,0
8000052c:	8082                	ret
C:\NucleiStudio_workspace\HBirdv2_Prj\fly_bird\Debug/../hbird_sdk/SoC/hbirdv2/Common/Source/system_hbirdv2.c:438
        return -1;
8000052e:	557d                	li	a0,-1
C:\NucleiStudio_workspace\HBirdv2_Prj\fly_bird\Debug/../hbird_sdk/SoC/hbirdv2/Common/Source/system_hbirdv2.c:451
}
80000530:	8082                	ret

80000532 <_premain_init>:
_premain_init():
C:\NucleiStudio_workspace\HBirdv2_Prj\fly_bird\Debug/../hbird_sdk/SoC/hbirdv2/Common/Source/system_hbirdv2.c:464
 * For RISC-V gnu toolchain, _init function might not be called
 * by __libc_init_array function, so we defined a new function
 * to do initialization
 */
void _premain_init(void)
{
80000532:	1141                	addi	sp,sp,-16
80000534:	c606                	sw	ra,12(sp)
80000536:	c422                	sw	s0,8(sp)
C:\NucleiStudio_workspace\HBirdv2_Prj\fly_bird\Debug/../hbird_sdk/SoC/hbirdv2/Common/Source/system_hbirdv2.c:466
    /* TODO: Add your own initialization code here, called before main */
    SystemCoreClock = get_cpu_freq();
80000538:	3da5                	jal	800003b0 <get_cpu_freq>
8000053a:	87aa                	mv	a5,a0
8000053c:	80418413          	addi	s0,gp,-2044 # 90000064 <SystemCoreClock>
C:\NucleiStudio_workspace\HBirdv2_Prj\fly_bird\Debug/../hbird_sdk/SoC/hbirdv2/Common/Source/system_hbirdv2.c:468
#if ! defined(SIMULATION_SPIKE) && ! defined(SIMULATION_XLSPIKE)
    gpio_iof_config(GPIOA, IOF_UART_MASK);
80000540:	000305b7          	lui	a1,0x30
80000544:	10012537          	lui	a0,0x10012
C:\NucleiStudio_workspace\HBirdv2_Prj\fly_bird\Debug/../hbird_sdk/SoC/hbirdv2/Common/Source/system_hbirdv2.c:466
    SystemCoreClock = get_cpu_freq();
80000548:	c01c                	sw	a5,0(s0)
C:\NucleiStudio_workspace\HBirdv2_Prj\fly_bird\Debug/../hbird_sdk/SoC/hbirdv2/Common/Source/system_hbirdv2.c:468
    gpio_iof_config(GPIOA, IOF_UART_MASK);
8000054a:	39dd                	jal	80000240 <gpio_iof_config>
C:\NucleiStudio_workspace\HBirdv2_Prj\fly_bird\Debug/../hbird_sdk/SoC/hbirdv2/Common/Source/system_hbirdv2.c:469
    uart_init(SOC_DEBUG_UART, 115200);
8000054c:	65f1                	lui	a1,0x1c
8000054e:	20058593          	addi	a1,a1,512 # 1c200 <__stack_size+0x1ba00>
80000552:	10013537          	lui	a0,0x10013
80000556:	3371                	jal	800002e2 <uart_init>
SystemBannerPrint():
C:\NucleiStudio_workspace\HBirdv2_Prj\fly_bird\Debug/../hbird_sdk/SoC/hbirdv2/Common/Source/system_hbirdv2.c:381
    printf("HummingBird SDK Build Time: %s, %s\r\n", __DATE__, __TIME__);
80000558:	00004617          	auipc	a2,0x4
8000055c:	e7460613          	addi	a2,a2,-396 # 800043cc <_getpid_r+0x5c>
80000560:	00004597          	auipc	a1,0x4
80000564:	e7858593          	addi	a1,a1,-392 # 800043d8 <_getpid_r+0x68>
80000568:	00004517          	auipc	a0,0x4
8000056c:	e7c50513          	addi	a0,a0,-388 # 800043e4 <_getpid_r+0x74>
80000570:	245020ef          	jal	ra,80002fb4 <iprintf>
C:\NucleiStudio_workspace\HBirdv2_Prj\fly_bird\Debug/../hbird_sdk/SoC/hbirdv2/Common/Source/system_hbirdv2.c:383
    printf("Download Mode: %s\r\n", DOWNLOAD_MODE_STRING);
80000574:	00004597          	auipc	a1,0x4
80000578:	e9858593          	addi	a1,a1,-360 # 8000440c <_getpid_r+0x9c>
8000057c:	00004517          	auipc	a0,0x4
80000580:	e9450513          	addi	a0,a0,-364 # 80004410 <_getpid_r+0xa0>
80000584:	231020ef          	jal	ra,80002fb4 <iprintf>
C:\NucleiStudio_workspace\HBirdv2_Prj\fly_bird\Debug/../hbird_sdk/SoC/hbirdv2/Common/Source/system_hbirdv2.c:385
    printf("CPU Frequency %lu Hz\r\n", SystemCoreClock);
80000588:	400c                	lw	a1,0(s0)
8000058a:	00004517          	auipc	a0,0x4
8000058e:	e9a50513          	addi	a0,a0,-358 # 80004424 <_getpid_r+0xb4>
80000592:	223020ef          	jal	ra,80002fb4 <iprintf>
Exception_Init():
C:\NucleiStudio_workspace\HBirdv2_Prj\fly_bird\Debug/../hbird_sdk/SoC/hbirdv2/Common/Source/system_hbirdv2.c:201
        SystemExceptionHandlers[i] = (unsigned long)system_default_exception_handler;
80000596:	00000697          	auipc	a3,0x0
8000059a:	e2c68693          	addi	a3,a3,-468 # 800003c2 <system_default_exception_handler>
8000059e:	86818793          	addi	a5,gp,-1944 # 900000c8 <SystemExceptionHandlers>
800005a2:	89418713          	addi	a4,gp,-1900 # 900000f4 <SystemExtInterruptHandlers>
800005a6:	c394                	sw	a3,0(a5)
C:\NucleiStudio_workspace\HBirdv2_Prj\fly_bird\Debug/../hbird_sdk/SoC/hbirdv2/Common/Source/system_hbirdv2.c:200
    for (int i = 0; i < MAX_SYSTEM_EXCEPTION_NUM; i++) {
800005a8:	0791                	addi	a5,a5,4
800005aa:	fee79ee3          	bne	a5,a4,800005a6 <_premain_init+0x74>
Interrupt_Init():
C:\NucleiStudio_workspace\HBirdv2_Prj\fly_bird\Debug/../hbird_sdk/SoC/hbirdv2/Common/Source/system_hbirdv2.c:216
        SystemExtInterruptHandlers[i] = (unsigned long)system_default_interrupt_handler;
800005ae:	00000717          	auipc	a4,0x0
800005b2:	e5870713          	addi	a4,a4,-424 # 80000406 <system_default_interrupt_handler>
800005b6:	89418793          	addi	a5,gp,-1900 # 900000f4 <SystemExtInterruptHandlers>
800005ba:	8d818693          	addi	a3,gp,-1832 # 90000138 <_game_bird_conf>
800005be:	c398                	sw	a4,0(a5)
C:\NucleiStudio_workspace\HBirdv2_Prj\fly_bird\Debug/../hbird_sdk/SoC/hbirdv2/Common/Source/system_hbirdv2.c:215
    for (i = 0; i < __PLIC_INTNUM; i++) {
800005c0:	0791                	addi	a5,a5,4
800005c2:	fef69ee3          	bne	a3,a5,800005be <_premain_init+0x8c>
800005c6:	84018793          	addi	a5,gp,-1984 # 900000a0 <SystemCoreInterruptHandlers>
800005ca:	86818693          	addi	a3,gp,-1944 # 900000c8 <SystemExceptionHandlers>
C:\NucleiStudio_workspace\HBirdv2_Prj\fly_bird\Debug/../hbird_sdk/SoC/hbirdv2/Common/Source/system_hbirdv2.c:219
        SystemCoreInterruptHandlers[i] = (unsigned long)system_default_interrupt_handler;
800005ce:	c398                	sw	a4,0(a5)
C:\NucleiStudio_workspace\HBirdv2_Prj\fly_bird\Debug/../hbird_sdk/SoC/hbirdv2/Common/Source/system_hbirdv2.c:218
    for (i = 0; i < 10; i++) {
800005d0:	0791                	addi	a5,a5,4
800005d2:	fed79ee3          	bne	a5,a3,800005ce <_premain_init+0x9c>
800005d6:	0c000637          	lui	a2,0xc000
PLIC_Init():
C:\NucleiStudio_workspace\HBirdv2_Prj\fly_bird\hbird_sdk\NMSIS\Core\Include/core_feature_plic.h:318
 */
__STATIC_FORCEINLINE void PLIC_Init(uint32_t num_sources)
{
    uint32_t i;

    for (i = 0; i < num_sources; i ++) {
800005da:	4681                	li	a3,0
PLIC_DisableInterrupt():
C:\NucleiStudio_workspace\HBirdv2_Prj\fly_bird\hbird_sdk\NMSIS\Core\Include/core_feature_plic.h:193
                    (hartid << PLIC_ENABLE_SHIFT_PER_TARGET) + (source >> 5) * 4);
800005dc:	0c0028b7          	lui	a7,0xc002
C:\NucleiStudio_workspace\HBirdv2_Prj\fly_bird\hbird_sdk\NMSIS\Core\Include/core_feature_plic.h:196
    current = current & (~(1<<(source&0x1F)));
800005e0:	4805                	li	a6,1
PLIC_Init():
C:\NucleiStudio_workspace\HBirdv2_Prj\fly_bird\hbird_sdk\NMSIS\Core\Include/core_feature_plic.h:318
    for (i = 0; i < num_sources; i ++) {
800005e2:	4545                	li	a0,17
PLIC_DisableInterrupt():
C:\NucleiStudio_workspace\HBirdv2_Prj\fly_bird\hbird_sdk\NMSIS\Core\Include/core_feature_plic.h:191
    uint32_t hartid = __RV_CSR_READ(CSR_MHARTID);
800005e4:	f14027f3          	csrr	a5,mhartid
C:\NucleiStudio_workspace\HBirdv2_Prj\fly_bird\hbird_sdk\NMSIS\Core\Include/core_feature_plic.h:193
                    (hartid << PLIC_ENABLE_SHIFT_PER_TARGET) + (source >> 5) * 4);
800005e8:	079e                	slli	a5,a5,0x7
800005ea:	97c6                	add	a5,a5,a7
C:\NucleiStudio_workspace\HBirdv2_Prj\fly_bird\hbird_sdk\NMSIS\Core\Include/core_feature_plic.h:195
    uint32_t current = *enable_reg;
800005ec:	438c                	lw	a1,0(a5)
C:\NucleiStudio_workspace\HBirdv2_Prj\fly_bird\hbird_sdk\NMSIS\Core\Include/core_feature_plic.h:196
    current = current & (~(1<<(source&0x1F)));
800005ee:	00d81733          	sll	a4,a6,a3
800005f2:	fff74713          	not	a4,a4
800005f6:	8f6d                	and	a4,a4,a1
C:\NucleiStudio_workspace\HBirdv2_Prj\fly_bird\hbird_sdk\NMSIS\Core\Include/core_feature_plic.h:197
    *enable_reg = current;
800005f8:	c398                	sw	a4,0(a5)
PLIC_SetPriority():
C:\NucleiStudio_workspace\HBirdv2_Prj\fly_bird\hbird_sdk\NMSIS\Core\Include/core_feature_plic.h:237
    *priority_reg = priority;
800005fa:	00062023          	sw	zero,0(a2) # c000000 <__stack_size+0xbfff800>
PLIC_Init():
C:\NucleiStudio_workspace\HBirdv2_Prj\fly_bird\hbird_sdk\NMSIS\Core\Include/core_feature_plic.h:318
    for (i = 0; i < num_sources; i ++) {
800005fe:	0685                	addi	a3,a3,1
80000600:	0611                	addi	a2,a2,4
80000602:	fea691e3          	bne	a3,a0,800005e4 <_premain_init+0xb2>
PLIC_SetThreshold():
C:\NucleiStudio_workspace\HBirdv2_Prj\fly_bird\hbird_sdk\NMSIS\Core\Include/core_feature_plic.h:135
    uint32_t hartid = __RV_CSR_READ(CSR_MHARTID);
80000606:	f14027f3          	csrr	a5,mhartid
C:\NucleiStudio_workspace\HBirdv2_Prj\fly_bird\hbird_sdk\NMSIS\Core\Include/core_feature_plic.h:137
                    PLIC_THRESHOLD_OFFSET + (hartid << PLIC_THRESHOLD_SHIFT_PER_TARGET));
8000060a:	0c200737          	lui	a4,0xc200
_premain_init():
C:\NucleiStudio_workspace\HBirdv2_Prj\fly_bird\Debug/../hbird_sdk/SoC/hbirdv2/Common/Source/system_hbirdv2.c:481
    Interrupt_Init();
#if defined(__PLIC_PRESENT) && __PLIC_PRESENT == 1
    /* PLIC initilization */
    PLIC_Init(__PLIC_INTNUM);
#endif
}
8000060e:	40b2                	lw	ra,12(sp)
80000610:	4422                	lw	s0,8(sp)
PLIC_Init():
C:\NucleiStudio_workspace\HBirdv2_Prj\fly_bird\hbird_sdk\NMSIS\Core\Include/core_feature_plic.h:137
80000612:	07b2                	slli	a5,a5,0xc
80000614:	97ba                	add	a5,a5,a4
C:\NucleiStudio_workspace\HBirdv2_Prj\fly_bird\hbird_sdk\NMSIS\Core\Include/core_feature_plic.h:139
    *thresh_reg = thresh;
80000616:	0007a023          	sw	zero,0(a5)
_premain_init():
C:\NucleiStudio_workspace\HBirdv2_Prj\fly_bird\Debug/../hbird_sdk/SoC/hbirdv2/Common/Source/system_hbirdv2.c:481
8000061a:	0141                	addi	sp,sp,16
8000061c:	8082                	ret

8000061e <_postmain_fini>:
_postmain_fini():
C:\NucleiStudio_workspace\HBirdv2_Prj\fly_bird\Debug/../hbird_sdk/SoC/hbirdv2/Common/Source/system_hbirdv2.c:507
#ifdef SIMULATION_RTL
extern void rtlsim_exit(int status);
    rtlsim_exit(status);
#endif

}
8000061e:	8082                	ret

80000620 <_init>:
_init():
C:\NucleiStudio_workspace\HBirdv2_Prj\fly_bird\Debug/../hbird_sdk/SoC/hbirdv2/Common/Source/system_hbirdv2.c:521
 * Please use \ref _premain_init function now
 */
void _init(void)
{
    /* Don't put any code here, please use _premain_init now */
}
80000620:	8082                	ret

80000622 <_fini>:
_fini():
80000622:	8082                	ret

80000624 <LCD_Clear>:
LCD_Clear():
C:\NucleiStudio_workspace\HBirdv2_Prj\fly_bird\Debug/../application/lcd.c:46
{
	//每个像素点是16位宽的
	//可以把两个16位宽的像素组成一个32位宽的像素一次性写入，从而减少写入次数
	//经过测试，用时可以减少一半
	uint32_t*P=(uint32_t*)0x80200000;
	uint32_t color_n2w= (uint32_t)color<<16;
80000624:	01051693          	slli	a3,a0,0x10
C:\NucleiStudio_workspace\HBirdv2_Prj\fly_bird\Debug/../application/lcd.c:47
	color_n2w = color_n2w + color;
80000628:	80200737          	lui	a4,0x80200
C:\NucleiStudio_workspace\HBirdv2_Prj\fly_bird\Debug/../application/lcd.c:48
	for(int i=0;i<LCD_H_MAX;i++)
8000062c:	80296637          	lui	a2,0x80296
C:\NucleiStudio_workspace\HBirdv2_Prj\fly_bird\Debug/../application/lcd.c:47
	color_n2w = color_n2w + color;
80000630:	96aa                	add	a3,a3,a0
80000632:	50070713          	addi	a4,a4,1280 # 80200500 <_sp+0xf01f8500>
C:\NucleiStudio_workspace\HBirdv2_Prj\fly_bird\Debug/../application/lcd.c:48
	for(int i=0;i<LCD_H_MAX;i++)
80000636:	50060613          	addi	a2,a2,1280 # 80296500 <_sp+0xf028e500>
C:\NucleiStudio_workspace\HBirdv2_Prj\fly_bird\Debug/../application/lcd.c:50
	{
		for(int j=0;j<LCD_W_MAX/2;j++)
8000063a:	b0070793          	addi	a5,a4,-1280
C:\NucleiStudio_workspace\HBirdv2_Prj\fly_bird\Debug/../application/lcd.c:52 (discriminator 3)
		{
			*(P+i*LCD_W_MAX/2+j)=color_n2w;
8000063e:	c394                	sw	a3,0(a5)
C:\NucleiStudio_workspace\HBirdv2_Prj\fly_bird\Debug/../application/lcd.c:50 (discriminator 3)
		for(int j=0;j<LCD_W_MAX/2;j++)
80000640:	0791                	addi	a5,a5,4
80000642:	fee79ee3          	bne	a5,a4,8000063e <LCD_Clear+0x1a>
C:\NucleiStudio_workspace\HBirdv2_Prj\fly_bird\Debug/../application/lcd.c:48 (discriminator 2)
	for(int i=0;i<LCD_H_MAX;i++)
80000646:	50078713          	addi	a4,a5,1280
8000064a:	fec718e3          	bne	a4,a2,8000063a <LCD_Clear+0x16>
C:\NucleiStudio_workspace\HBirdv2_Prj\fly_bird\Debug/../application/lcd.c:55
		}
	}
}  
8000064e:	8082                	ret

80000650 <LCD_Fill>:
LCD_Fill():
C:\NucleiStudio_workspace\HBirdv2_Prj\fly_bird\Debug/../application/lcd.c:62
//(sx,sy),(ex,ey):填充矩形对角坐标,区域大小为:(ex-sx+1)*(ey-sy+1)   
//color:要填充的颜色
void LCD_Fill(int16_t sx,int16_t sy,uint16_t w,uint16_t h,uint16_t color)
{          

    int16_t ex=sx+w;
80000650:	fff54793          	not	a5,a0
80000654:	41f7d813          	srai	a6,a5,0x1f
80000658:	962a                	add	a2,a2,a0
8000065a:	fff5c793          	not	a5,a1
C:\NucleiStudio_workspace\HBirdv2_Prj\fly_bird\Debug/../application/lcd.c:63
    int16_t ey=sy+h;
8000065e:	96ae                	add	a3,a3,a1
80000660:	00a87533          	and	a0,a6,a0
80000664:	87fd                	srai	a5,a5,0x1f
C:\NucleiStudio_workspace\HBirdv2_Prj\fly_bird\Debug/../application/lcd.c:62
    int16_t ex=sx+w;
80000666:	0642                	slli	a2,a2,0x10
C:\NucleiStudio_workspace\HBirdv2_Prj\fly_bird\Debug/../application/lcd.c:63
    int16_t ey=sy+h;
80000668:	06c2                	slli	a3,a3,0x10
8000066a:	28000813          	li	a6,640
C:\NucleiStudio_workspace\HBirdv2_Prj\fly_bird\Debug/../application/lcd.c:62
    int16_t ex=sx+w;
8000066e:	8641                	srai	a2,a2,0x10
C:\NucleiStudio_workspace\HBirdv2_Prj\fly_bird\Debug/../application/lcd.c:63
    int16_t ey=sy+h;
80000670:	86c1                	srai	a3,a3,0x10
C:\NucleiStudio_workspace\HBirdv2_Prj\fly_bird\Debug/../application/lcd.c:65
	if(sx<0)sx=0;
	if(sy<0)sy=0;
80000672:	8dfd                	and	a1,a1,a5
C:\NucleiStudio_workspace\HBirdv2_Prj\fly_bird\Debug/../application/lcd.c:66
	if(sx>640)sx=640;
80000674:	88aa                	mv	a7,a0
80000676:	00a85463          	bge	a6,a0,8000067e <LCD_Fill+0x2e>
8000067a:	28000893          	li	a7,640
8000067e:	08c2                	slli	a7,a7,0x10
80000680:	1e000513          	li	a0,480
80000684:	4108d893          	srai	a7,a7,0x10
C:\NucleiStudio_workspace\HBirdv2_Prj\fly_bird\Debug/../application/lcd.c:67
	if(sy>480)sy=480;
80000688:	87ae                	mv	a5,a1
8000068a:	00b55463          	bge	a0,a1,80000692 <LCD_Fill+0x42>
8000068e:	1e000793          	li	a5,480
80000692:	07c2                	slli	a5,a5,0x10
80000694:	28000593          	li	a1,640
80000698:	87c1                	srai	a5,a5,0x10
C:\NucleiStudio_workspace\HBirdv2_Prj\fly_bird\Debug/../application/lcd.c:68
    if(ex>640)ex=640;
8000069a:	8332                	mv	t1,a2
8000069c:	00c5d463          	bge	a1,a2,800006a4 <LCD_Fill+0x54>
800006a0:	28000313          	li	t1,640
800006a4:	01031613          	slli	a2,t1,0x10
800006a8:	1e000593          	li	a1,480
800006ac:	8641                	srai	a2,a2,0x10
C:\NucleiStudio_workspace\HBirdv2_Prj\fly_bird\Debug/../application/lcd.c:69
    if(ey>480)ey=480;
800006ae:	8536                	mv	a0,a3
800006b0:	00d5d463          	bge	a1,a3,800006b8 <LCD_Fill+0x68>
800006b4:	1e000513          	li	a0,480
800006b8:	01051693          	slli	a3,a0,0x10
800006bc:	86c1                	srai	a3,a3,0x10
C:\NucleiStudio_workspace\HBirdv2_Prj\fly_bird\Debug/../application/lcd.c:70
	if(ex<0)ex=0;
800006be:	fff64313          	not	t1,a2
800006c2:	fff6c513          	not	a0,a3
800006c6:	41f35313          	srai	t1,t1,0x1f
800006ca:	857d                	srai	a0,a0,0x1f
C:\NucleiStudio_workspace\HBirdv2_Prj\fly_bird\Debug/../application/lcd.c:72
    if(ey<0)ey=0;
	if(LCDinverse)
800006cc:	8281c583          	lbu	a1,-2008(gp) # 90000088 <LCDinverse>
800006d0:	00c37333          	and	t1,t1,a2
C:\NucleiStudio_workspace\HBirdv2_Prj\fly_bird\Debug/../application/lcd.c:71
    if(ey<0)ey=0;
800006d4:	8d75                	and	a0,a0,a3
C:\NucleiStudio_workspace\HBirdv2_Prj\fly_bird\Debug/../application/lcd.c:72
	if(LCDinverse)
800006d6:	e5a5                	bnez	a1,8000073e <LCD_Fill+0xee>
C:\NucleiStudio_workspace\HBirdv2_Prj\fly_bird\Debug/../application/lcd.c:88
		}
		
	}
	else
	{
		for(int16_t i=sy;i<ey;i++)
800006d8:	06a7d263          	bge	a5,a0,8000073c <LCD_Fill+0xec>
800006dc:	fff7c693          	not	a3,a5
800006e0:	00279613          	slli	a2,a5,0x2
800006e4:	963e                	add	a2,a2,a5
800006e6:	9536                	add	a0,a0,a3
800006e8:	fff8c593          	not	a1,a7
800006ec:	0785                	addi	a5,a5,1
800006ee:	959a                	add	a1,a1,t1
800006f0:	0542                	slli	a0,a0,0x10
800006f2:	07c2                	slli	a5,a5,0x10
800006f4:	8141                	srli	a0,a0,0x10
800006f6:	061e                	slli	a2,a2,0x7
800006f8:	87c1                	srai	a5,a5,0x10
800006fa:	05c2                	slli	a1,a1,0x10
800006fc:	81c1                	srli	a1,a1,0x10
800006fe:	97aa                	add	a5,a5,a0
80000700:	00c886b3          	add	a3,a7,a2
80000704:	96ae                	add	a3,a3,a1
80000706:	00279513          	slli	a0,a5,0x2
8000070a:	80c1a803          	lw	a6,-2036(gp) # 9000006c <LCD_P>
8000070e:	0686                	slli	a3,a3,0x1
80000710:	0809                	addi	a6,a6,2
80000712:	953e                	add	a0,a0,a5
80000714:	fff5c593          	not	a1,a1
80000718:	96c2                	add	a3,a3,a6
8000071a:	051e                	slli	a0,a0,0x7
8000071c:	0586                	slli	a1,a1,0x1
C:\NucleiStudio_workspace\HBirdv2_Prj\fly_bird\Debug/../application/lcd.c:90
		{
			for(int16_t j=sx;j<ex;j++)
8000071e:	00d587b3          	add	a5,a1,a3
80000722:	0068d763          	bge	a7,t1,80000730 <LCD_Fill+0xe0>
C:\NucleiStudio_workspace\HBirdv2_Prj\fly_bird\Debug/../application/lcd.c:92 (discriminator 3)
			{
				*(LCD_P+i*LCD_W_MAX+j)=color;
80000726:	00e79023          	sh	a4,0(a5)
C:\NucleiStudio_workspace\HBirdv2_Prj\fly_bird\Debug/../application/lcd.c:90 (discriminator 3)
			for(int16_t j=sx;j<ex;j++)
8000072a:	0789                	addi	a5,a5,2
8000072c:	fed79de3          	bne	a5,a3,80000726 <LCD_Fill+0xd6>
C:\NucleiStudio_workspace\HBirdv2_Prj\fly_bird\Debug/../application/lcd.c:88
		for(int16_t i=sy;i<ey;i++)
80000730:	28060613          	addi	a2,a2,640
80000734:	50068693          	addi	a3,a3,1280
80000738:	fea613e3          	bne	a2,a0,8000071e <LCD_Fill+0xce>
C:\NucleiStudio_workspace\HBirdv2_Prj\fly_bird\Debug/../application/lcd.c:97
			}
		}
	}
	
}  
8000073c:	8082                	ret
C:\NucleiStudio_workspace\HBirdv2_Prj\fly_bird\Debug/../application/lcd.c:75
		for(int16_t i=sy;i<ey;i++)
8000073e:	fea7dfe3          	bge	a5,a0,8000073c <LCD_Fill+0xec>
80000742:	1df00613          	li	a2,479
80000746:	27f00693          	li	a3,639
8000074a:	40f607b3          	sub	a5,a2,a5
8000074e:	41168eb3          	sub	t4,a3,a7
80000752:	8e09                	sub	a2,a2,a0
80000754:	406686b3          	sub	a3,a3,t1
80000758:	01079593          	slli	a1,a5,0x10
8000075c:	01061e13          	slli	t3,a2,0x10
80000760:	0ec2                	slli	t4,t4,0x10
80000762:	01069513          	slli	a0,a3,0x10
C:\NucleiStudio_workspace\HBirdv2_Prj\fly_bird\Debug/../application/lcd.c:81
				*(LCD_P+invy*LCD_W_MAX+invx)=color;
80000766:	80c1a803          	lw	a6,-2036(gp) # 9000006c <LCD_P>
8000076a:	81c1                	srli	a1,a1,0x10
8000076c:	010e5e13          	srli	t3,t3,0x10
80000770:	010ede93          	srli	t4,t4,0x10
80000774:	8141                	srli	a0,a0,0x10
C:\NucleiStudio_workspace\HBirdv2_Prj\fly_bird\Debug/../application/lcd.c:78
			for(int16_t j=sx;j<ex;j++)
80000776:	0268d263          	bge	a7,t1,8000079a <LCD_Fill+0x14a>
C:\NucleiStudio_workspace\HBirdv2_Prj\fly_bird\Debug/../application/lcd.c:81
				*(LCD_P+invy*LCD_W_MAX+invx)=color;
8000077a:	00259613          	slli	a2,a1,0x2
8000077e:	962e                	add	a2,a2,a1
80000780:	061e                	slli	a2,a2,0x7
80000782:	87f6                	mv	a5,t4
C:\NucleiStudio_workspace\HBirdv2_Prj\fly_bird\Debug/../application/lcd.c:81 (discriminator 3)
80000784:	00c786b3          	add	a3,a5,a2
80000788:	0686                	slli	a3,a3,0x1
C:\NucleiStudio_workspace\HBirdv2_Prj\fly_bird\Debug/../application/lcd.c:78 (discriminator 3)
			for(int16_t j=sx;j<ex;j++)
8000078a:	17fd                	addi	a5,a5,-1
C:\NucleiStudio_workspace\HBirdv2_Prj\fly_bird\Debug/../application/lcd.c:81 (discriminator 3)
				*(LCD_P+invy*LCD_W_MAX+invx)=color;
8000078c:	96c2                	add	a3,a3,a6
C:\NucleiStudio_workspace\HBirdv2_Prj\fly_bird\Debug/../application/lcd.c:78 (discriminator 3)
			for(int16_t j=sx;j<ex;j++)
8000078e:	07c2                	slli	a5,a5,0x10
C:\NucleiStudio_workspace\HBirdv2_Prj\fly_bird\Debug/../application/lcd.c:81 (discriminator 3)
				*(LCD_P+invy*LCD_W_MAX+invx)=color;
80000790:	00e69023          	sh	a4,0(a3)
C:\NucleiStudio_workspace\HBirdv2_Prj\fly_bird\Debug/../application/lcd.c:78 (discriminator 3)
			for(int16_t j=sx;j<ex;j++)
80000794:	83c1                	srli	a5,a5,0x10
80000796:	fef517e3          	bne	a0,a5,80000784 <LCD_Fill+0x134>
C:\NucleiStudio_workspace\HBirdv2_Prj\fly_bird\Debug/../application/lcd.c:75
		for(int16_t i=sy;i<ey;i++)
8000079a:	15fd                	addi	a1,a1,-1
8000079c:	05c2                	slli	a1,a1,0x10
8000079e:	81c1                	srli	a1,a1,0x10
800007a0:	fcbe1be3          	bne	t3,a1,80000776 <LCD_Fill+0x126>
800007a4:	8082                	ret

800007a6 <LCD_DrawRectangle>:
LCD_DrawRectangle():
C:\NucleiStudio_workspace\HBirdv2_Prj\fly_bird\Debug/../application/lcd.c:158
}    
//画矩形	  
//(x1,y1),(x2,y2):矩形的对角坐标
void LCD_DrawRectangle(int16_t x1, int16_t y1, uint16_t w, uint16_t h,uint16_t color)
{
	int16_t x2=x1+w;
800007a6:	fff54793          	not	a5,a0
800007aa:	41f7d813          	srai	a6,a5,0x1f
800007ae:	962a                	add	a2,a2,a0
800007b0:	fff5c793          	not	a5,a1
C:\NucleiStudio_workspace\HBirdv2_Prj\fly_bird\Debug/../application/lcd.c:159
    int16_t y2=y1+h;
800007b4:	96ae                	add	a3,a3,a1
800007b6:	00a87833          	and	a6,a6,a0
800007ba:	87fd                	srai	a5,a5,0x1f
C:\NucleiStudio_workspace\HBirdv2_Prj\fly_bird\Debug/../application/lcd.c:158
	int16_t x2=x1+w;
800007bc:	0642                	slli	a2,a2,0x10
C:\NucleiStudio_workspace\HBirdv2_Prj\fly_bird\Debug/../application/lcd.c:159
    int16_t y2=y1+h;
800007be:	06c2                	slli	a3,a3,0x10
800007c0:	28000893          	li	a7,640
C:\NucleiStudio_workspace\HBirdv2_Prj\fly_bird\Debug/../application/lcd.c:158
	int16_t x2=x1+w;
800007c4:	8641                	srai	a2,a2,0x10
C:\NucleiStudio_workspace\HBirdv2_Prj\fly_bird\Debug/../application/lcd.c:159
    int16_t y2=y1+h;
800007c6:	86c1                	srai	a3,a3,0x10
C:\NucleiStudio_workspace\HBirdv2_Prj\fly_bird\Debug/../application/lcd.c:161
	if(x1<0)x1=0;
	if(y1<0)y1=0;
800007c8:	8dfd                	and	a1,a1,a5
C:\NucleiStudio_workspace\HBirdv2_Prj\fly_bird\Debug/../application/lcd.c:162
	if(x1>640)x1=640;
800007ca:	8542                	mv	a0,a6
800007cc:	0108d463          	bge	a7,a6,800007d4 <LCD_DrawRectangle+0x2e>
800007d0:	28000513          	li	a0,640
800007d4:	0542                	slli	a0,a0,0x10
800007d6:	1e000793          	li	a5,480
800007da:	8541                	srai	a0,a0,0x10
C:\NucleiStudio_workspace\HBirdv2_Prj\fly_bird\Debug/../application/lcd.c:163
	if(y1>480)y1=480;
800007dc:	832e                	mv	t1,a1
800007de:	00b7d463          	bge	a5,a1,800007e6 <LCD_DrawRectangle+0x40>
800007e2:	1e000313          	li	t1,480
800007e6:	0342                	slli	t1,t1,0x10
800007e8:	28000793          	li	a5,640
800007ec:	41035313          	srai	t1,t1,0x10
C:\NucleiStudio_workspace\HBirdv2_Prj\fly_bird\Debug/../application/lcd.c:164
    if(x2>640)x2=640;
800007f0:	8832                	mv	a6,a2
800007f2:	00c7d463          	bge	a5,a2,800007fa <LCD_DrawRectangle+0x54>
800007f6:	28000813          	li	a6,640
800007fa:	01081613          	slli	a2,a6,0x10
800007fe:	1e000593          	li	a1,480
80000802:	8641                	srai	a2,a2,0x10
C:\NucleiStudio_workspace\HBirdv2_Prj\fly_bird\Debug/../application/lcd.c:165
    if(y2>480)y2=480;
80000804:	87b6                	mv	a5,a3
80000806:	00d5d463          	bge	a1,a3,8000080e <LCD_DrawRectangle+0x68>
8000080a:	1e000793          	li	a5,480
8000080e:	07c2                	slli	a5,a5,0x10
80000810:	87c1                	srai	a5,a5,0x10
C:\NucleiStudio_workspace\HBirdv2_Prj\fly_bird\Debug/../application/lcd.c:166
	if(x2<0)x2=0;
80000812:	fff7c693          	not	a3,a5
80000816:	86fd                	srai	a3,a3,0x1f
80000818:	8ff5                	and	a5,a5,a3
8000081a:	fff64813          	not	a6,a2
8000081e:	41f85813          	srai	a6,a6,0x1f
80000822:	01079e13          	slli	t3,a5,0x10
C:\NucleiStudio_workspace\HBirdv2_Prj\fly_bird\Debug/../application/lcd.c:168
    if(y2<0)y2=0;
	if(LCDinverse)
80000826:	8281c683          	lbu	a3,-2008(gp) # 90000088 <LCDinverse>
8000082a:	00c87833          	and	a6,a6,a2
C:\NucleiStudio_workspace\HBirdv2_Prj\fly_bird\Debug/../application/lcd.c:167
    if(y2<0)y2=0;
8000082e:	410e5e13          	srai	t3,t3,0x10
C:\NucleiStudio_workspace\HBirdv2_Prj\fly_bird\Debug/../application/lcd.c:168
	if(LCDinverse)
80000832:	ead5                	bnez	a3,800008e6 <LCD_DrawRectangle+0x140>
C:\NucleiStudio_workspace\HBirdv2_Prj\fly_bird\Debug/../application/lcd.c:190
			*(LCD_P+invy1*LCD_W_MAX+invx2-1)=color;
		}
	}
	else
	{
		for(int16_t ii=x1;ii<x2;ii++)
80000834:	05055d63          	bge	a0,a6,8000088e <LCD_DrawRectangle+0xe8>
C:\NucleiStudio_workspace\HBirdv2_Prj\fly_bird\Debug/../application/lcd.c:192
		{
			*(LCD_P+y1*LCD_W_MAX+ii)=color;
80000838:	00231593          	slli	a1,t1,0x2
8000083c:	fff54613          	not	a2,a0
80000840:	959a                	add	a1,a1,t1
C:\NucleiStudio_workspace\HBirdv2_Prj\fly_bird\Debug/../application/lcd.c:193
			*(LCD_P+(y2-1)*LCD_W_MAX+ii)=color;
80000842:	fffe0893          	addi	a7,t3,-1
80000846:	9642                	add	a2,a2,a6
C:\NucleiStudio_workspace\HBirdv2_Prj\fly_bird\Debug/../application/lcd.c:192
			*(LCD_P+y1*LCD_W_MAX+ii)=color;
80000848:	00759693          	slli	a3,a1,0x7
C:\NucleiStudio_workspace\HBirdv2_Prj\fly_bird\Debug/../application/lcd.c:193
			*(LCD_P+(y2-1)*LCD_W_MAX+ii)=color;
8000084c:	01089e93          	slli	t4,a7,0x10
80000850:	0642                	slli	a2,a2,0x10
80000852:	96aa                	add	a3,a3,a0
80000854:	410ede93          	srai	t4,t4,0x10
80000858:	8241                	srli	a2,a2,0x10
C:\NucleiStudio_workspace\HBirdv2_Prj\fly_bird\Debug/../application/lcd.c:192
			*(LCD_P+y1*LCD_W_MAX+ii)=color;
8000085a:	80c1a783          	lw	a5,-2036(gp) # 9000006c <LCD_P>
8000085e:	9636                	add	a2,a2,a3
80000860:	002e9893          	slli	a7,t4,0x2
80000864:	00278f13          	addi	t5,a5,2
80000868:	0686                	slli	a3,a3,0x1
8000086a:	0606                	slli	a2,a2,0x1
8000086c:	05a2                	slli	a1,a1,0x8
8000086e:	98f6                	add	a7,a7,t4
80000870:	97b6                	add	a5,a5,a3
80000872:	967a                	add	a2,a2,t5
80000874:	40b005b3          	neg	a1,a1
80000878:	08a2                	slli	a7,a7,0x8
C:\NucleiStudio_workspace\HBirdv2_Prj\fly_bird\Debug/../application/lcd.c:193 (discriminator 3)
			*(LCD_P+(y2-1)*LCD_W_MAX+ii)=color;
8000087a:	00f586b3          	add	a3,a1,a5
C:\NucleiStudio_workspace\HBirdv2_Prj\fly_bird\Debug/../application/lcd.c:192 (discriminator 3)
			*(LCD_P+y1*LCD_W_MAX+ii)=color;
8000087e:	00e79023          	sh	a4,0(a5)
C:\NucleiStudio_workspace\HBirdv2_Prj\fly_bird\Debug/../application/lcd.c:193 (discriminator 3)
			*(LCD_P+(y2-1)*LCD_W_MAX+ii)=color;
80000882:	96c6                	add	a3,a3,a7
80000884:	00e69023          	sh	a4,0(a3)
C:\NucleiStudio_workspace\HBirdv2_Prj\fly_bird\Debug/../application/lcd.c:190 (discriminator 3)
		for(int16_t ii=x1;ii<x2;ii++)
80000888:	0789                	addi	a5,a5,2
8000088a:	fef618e3          	bne	a2,a5,8000087a <LCD_DrawRectangle+0xd4>
C:\NucleiStudio_workspace\HBirdv2_Prj\fly_bird\Debug/../application/lcd.c:195
		}
		for(int16_t ii=y1;ii<y2;ii++)
8000088e:	13c35963          	bge	t1,t3,800009c0 <LCD_DrawRectangle+0x21a>
80000892:	fff34613          	not	a2,t1
80000896:	9e32                	add	t3,t3,a2
80000898:	010e1613          	slli	a2,t3,0x10
8000089c:	8241                	srli	a2,a2,0x10
8000089e:	00660e33          	add	t3,a2,t1
800008a2:	00231693          	slli	a3,t1,0x2
800008a6:	002e1613          	slli	a2,t3,0x2
800008aa:	969a                	add	a3,a3,t1
800008ac:	9672                	add	a2,a2,t3
800008ae:	069e                	slli	a3,a3,0x7
800008b0:	061e                	slli	a2,a2,0x7
C:\NucleiStudio_workspace\HBirdv2_Prj\fly_bird\Debug/../application/lcd.c:197
		{
			*(LCD_P+ii*LCD_W_MAX+x1)=color;
800008b2:	80c1a783          	lw	a5,-2036(gp) # 9000006c <LCD_P>
800008b6:	96aa                	add	a3,a3,a0
800008b8:	962a                	add	a2,a2,a0
800008ba:	50078593          	addi	a1,a5,1280
800008be:	0686                	slli	a3,a3,0x1
800008c0:	0606                	slli	a2,a2,0x1
800008c2:	40a00533          	neg	a0,a0
800008c6:	97b6                	add	a5,a5,a3
800008c8:	962e                	add	a2,a2,a1
800008ca:	0506                	slli	a0,a0,0x1
800008cc:	0806                	slli	a6,a6,0x1
C:\NucleiStudio_workspace\HBirdv2_Prj\fly_bird\Debug/../application/lcd.c:198 (discriminator 3)
			*(LCD_P+ii*LCD_W_MAX+x2-1)=color;
800008ce:	00f506b3          	add	a3,a0,a5
C:\NucleiStudio_workspace\HBirdv2_Prj\fly_bird\Debug/../application/lcd.c:197 (discriminator 3)
			*(LCD_P+ii*LCD_W_MAX+x1)=color;
800008d2:	00e79023          	sh	a4,0(a5)
C:\NucleiStudio_workspace\HBirdv2_Prj\fly_bird\Debug/../application/lcd.c:198 (discriminator 3)
			*(LCD_P+ii*LCD_W_MAX+x2-1)=color;
800008d6:	96c2                	add	a3,a3,a6
800008d8:	fee69f23          	sh	a4,-2(a3)
C:\NucleiStudio_workspace\HBirdv2_Prj\fly_bird\Debug/../application/lcd.c:195 (discriminator 3)
		for(int16_t ii=y1;ii<y2;ii++)
800008dc:	50078793          	addi	a5,a5,1280
800008e0:	fef617e3          	bne	a2,a5,800008ce <LCD_DrawRectangle+0x128>
C:\NucleiStudio_workspace\HBirdv2_Prj\fly_bird\Debug/../application/lcd.c:208
    //这里不调用画线来画矩形，可以使速度更快
	//LCD_DrawLine(x1,y1,x2,y1,color);
	//LCD_DrawLine(x1,y1,x1,y2,color);
	//LCD_DrawLine(x1,y2,x2,y2,color);
	//LCD_DrawLine(x2,y1,x2,y2,color);
}
800008e4:	8082                	ret
C:\NucleiStudio_workspace\HBirdv2_Prj\fly_bird\Debug/../application/lcd.c:171
		invy1=LCD_H_MAX-1-y1;
800008e6:	1df00293          	li	t0,479
800008ea:	406282b3          	sub	t0,t0,t1
800008ee:	01029693          	slli	a3,t0,0x10
800008f2:	01029613          	slli	a2,t0,0x10
C:\NucleiStudio_workspace\HBirdv2_Prj\fly_bird\Debug/../application/lcd.c:172
		invy2=LCD_H_MAX-1-y2;
800008f6:	01079e93          	slli	t4,a5,0x10
C:\NucleiStudio_workspace\HBirdv2_Prj\fly_bird\Debug/../application/lcd.c:171
		invy1=LCD_H_MAX-1-y1;
800008fa:	82c1                	srli	a3,a3,0x10
800008fc:	8641                	srai	a2,a2,0x10
C:\NucleiStudio_workspace\HBirdv2_Prj\fly_bird\Debug/../application/lcd.c:172
		invy2=LCD_H_MAX-1-y2;
800008fe:	010ede93          	srli	t4,t4,0x10
C:\NucleiStudio_workspace\HBirdv2_Prj\fly_bird\Debug/../application/lcd.c:173
		for(int16_t ii=x1;ii<x2;ii++)
80000902:	05055f63          	bge	a0,a6,80000960 <LCD_DrawRectangle+0x1ba>
C:\NucleiStudio_workspace\HBirdv2_Prj\fly_bird\Debug/../application/lcd.c:177
			*(LCD_P+(invy2-1)*LCD_W_MAX+invx1)=color;
80000906:	1de00f93          	li	t6,478
8000090a:	41df8fb3          	sub	t6,t6,t4
8000090e:	010f9793          	slli	a5,t6,0x10
80000912:	87c1                	srai	a5,a5,0x10
80000914:	27f00f13          	li	t5,639
80000918:	00279f93          	slli	t6,a5,0x2
8000091c:	9fbe                	add	t6,t6,a5
C:\NucleiStudio_workspace\HBirdv2_Prj\fly_bird\Debug/../application/lcd.c:176
			*(LCD_P+invy1*LCD_W_MAX+invx1)=color;
8000091e:	00261293          	slli	t0,a2,0x2
80000922:	40af07b3          	sub	a5,t5,a0
80000926:	410f0f33          	sub	t5,t5,a6
8000092a:	92b2                	add	t0,t0,a2
8000092c:	07c2                	slli	a5,a5,0x10
8000092e:	0f42                	slli	t5,t5,0x10
80000930:	80c1a883          	lw	a7,-2036(gp) # 9000006c <LCD_P>
80000934:	029e                	slli	t0,t0,0x7
C:\NucleiStudio_workspace\HBirdv2_Prj\fly_bird\Debug/../application/lcd.c:177
			*(LCD_P+(invy2-1)*LCD_W_MAX+invx1)=color;
80000936:	0f9e                	slli	t6,t6,0x7
80000938:	83c1                	srli	a5,a5,0x10
8000093a:	010f5f13          	srli	t5,t5,0x10
C:\NucleiStudio_workspace\HBirdv2_Prj\fly_bird\Debug/../application/lcd.c:176 (discriminator 3)
			*(LCD_P+invy1*LCD_W_MAX+invx1)=color;
8000093e:	00f285b3          	add	a1,t0,a5
C:\NucleiStudio_workspace\HBirdv2_Prj\fly_bird\Debug/../application/lcd.c:177 (discriminator 3)
			*(LCD_P+(invy2-1)*LCD_W_MAX+invx1)=color;
80000942:	01f78633          	add	a2,a5,t6
C:\NucleiStudio_workspace\HBirdv2_Prj\fly_bird\Debug/../application/lcd.c:176 (discriminator 3)
			*(LCD_P+invy1*LCD_W_MAX+invx1)=color;
80000946:	0586                	slli	a1,a1,0x1
80000948:	95c6                	add	a1,a1,a7
C:\NucleiStudio_workspace\HBirdv2_Prj\fly_bird\Debug/../application/lcd.c:177 (discriminator 3)
			*(LCD_P+(invy2-1)*LCD_W_MAX+invx1)=color;
8000094a:	0606                	slli	a2,a2,0x1
C:\NucleiStudio_workspace\HBirdv2_Prj\fly_bird\Debug/../application/lcd.c:173 (discriminator 3)
		for(int16_t ii=x1;ii<x2;ii++)
8000094c:	17fd                	addi	a5,a5,-1
C:\NucleiStudio_workspace\HBirdv2_Prj\fly_bird\Debug/../application/lcd.c:176 (discriminator 3)
			*(LCD_P+invy1*LCD_W_MAX+invx1)=color;
8000094e:	00e59023          	sh	a4,0(a1)
C:\NucleiStudio_workspace\HBirdv2_Prj\fly_bird\Debug/../application/lcd.c:177 (discriminator 3)
			*(LCD_P+(invy2-1)*LCD_W_MAX+invx1)=color;
80000952:	9646                	add	a2,a2,a7
C:\NucleiStudio_workspace\HBirdv2_Prj\fly_bird\Debug/../application/lcd.c:173 (discriminator 3)
		for(int16_t ii=x1;ii<x2;ii++)
80000954:	07c2                	slli	a5,a5,0x10
C:\NucleiStudio_workspace\HBirdv2_Prj\fly_bird\Debug/../application/lcd.c:177 (discriminator 3)
			*(LCD_P+(invy2-1)*LCD_W_MAX+invx1)=color;
80000956:	00e61023          	sh	a4,0(a2)
C:\NucleiStudio_workspace\HBirdv2_Prj\fly_bird\Debug/../application/lcd.c:173 (discriminator 3)
		for(int16_t ii=x1;ii<x2;ii++)
8000095a:	83c1                	srli	a5,a5,0x10
8000095c:	feff11e3          	bne	t5,a5,8000093e <LCD_DrawRectangle+0x198>
C:\NucleiStudio_workspace\HBirdv2_Prj\fly_bird\Debug/../application/lcd.c:179
		invx1=LCD_W_MAX-1-x1;
80000960:	27f00793          	li	a5,639
80000964:	40a78533          	sub	a0,a5,a0
C:\NucleiStudio_workspace\HBirdv2_Prj\fly_bird\Debug/../application/lcd.c:180
		invx2=LCD_W_MAX-1-x2;
80000968:	41078833          	sub	a6,a5,a6
C:\NucleiStudio_workspace\HBirdv2_Prj\fly_bird\Debug/../application/lcd.c:179
		invx1=LCD_W_MAX-1-x1;
8000096c:	0542                	slli	a0,a0,0x10
C:\NucleiStudio_workspace\HBirdv2_Prj\fly_bird\Debug/../application/lcd.c:180
		invx2=LCD_W_MAX-1-x2;
8000096e:	0842                	slli	a6,a6,0x10
C:\NucleiStudio_workspace\HBirdv2_Prj\fly_bird\Debug/../application/lcd.c:179
		invx1=LCD_W_MAX-1-x1;
80000970:	8541                	srai	a0,a0,0x10
C:\NucleiStudio_workspace\HBirdv2_Prj\fly_bird\Debug/../application/lcd.c:180
		invx2=LCD_W_MAX-1-x2;
80000972:	41085813          	srai	a6,a6,0x10
C:\NucleiStudio_workspace\HBirdv2_Prj\fly_bird\Debug/../application/lcd.c:181
		for(int16_t ii=y1;ii<y2;ii++)
80000976:	05c35663          	bge	t1,t3,800009c2 <LCD_DrawRectangle+0x21c>
8000097a:	1df00793          	li	a5,479
8000097e:	41d78eb3          	sub	t4,a5,t4
80000982:	0ec2                	slli	t4,t4,0x10
C:\NucleiStudio_workspace\HBirdv2_Prj\fly_bird\Debug/../application/lcd.c:185
			*(LCD_P+invy1*LCD_W_MAX+invx2-1)=color;
80000984:	800008b7          	lui	a7,0x80000
C:\NucleiStudio_workspace\HBirdv2_Prj\fly_bird\Debug/../application/lcd.c:184
			*(LCD_P+invy1*LCD_W_MAX+invx1)=color;
80000988:	80c1a583          	lw	a1,-2036(gp) # 9000006c <LCD_P>
8000098c:	010ede93          	srli	t4,t4,0x10
C:\NucleiStudio_workspace\HBirdv2_Prj\fly_bird\Debug/../application/lcd.c:185
			*(LCD_P+invy1*LCD_W_MAX+invx2-1)=color;
80000990:	fff8c893          	not	a7,a7
C:\NucleiStudio_workspace\HBirdv2_Prj\fly_bird\Debug/../application/lcd.c:184 (discriminator 3)
			*(LCD_P+invy1*LCD_W_MAX+invx1)=color;
80000994:	00269793          	slli	a5,a3,0x2
80000998:	97b6                	add	a5,a5,a3
8000099a:	079e                	slli	a5,a5,0x7
8000099c:	00a78633          	add	a2,a5,a0
C:\NucleiStudio_workspace\HBirdv2_Prj\fly_bird\Debug/../application/lcd.c:185 (discriminator 3)
			*(LCD_P+invy1*LCD_W_MAX+invx2-1)=color;
800009a0:	97c2                	add	a5,a5,a6
C:\NucleiStudio_workspace\HBirdv2_Prj\fly_bird\Debug/../application/lcd.c:184 (discriminator 3)
			*(LCD_P+invy1*LCD_W_MAX+invx1)=color;
800009a2:	0606                	slli	a2,a2,0x1
C:\NucleiStudio_workspace\HBirdv2_Prj\fly_bird\Debug/../application/lcd.c:185 (discriminator 3)
			*(LCD_P+invy1*LCD_W_MAX+invx2-1)=color;
800009a4:	97c6                	add	a5,a5,a7
C:\NucleiStudio_workspace\HBirdv2_Prj\fly_bird\Debug/../application/lcd.c:184 (discriminator 3)
			*(LCD_P+invy1*LCD_W_MAX+invx1)=color;
800009a6:	962e                	add	a2,a2,a1
C:\NucleiStudio_workspace\HBirdv2_Prj\fly_bird\Debug/../application/lcd.c:185 (discriminator 3)
			*(LCD_P+invy1*LCD_W_MAX+invx2-1)=color;
800009a8:	0786                	slli	a5,a5,0x1
C:\NucleiStudio_workspace\HBirdv2_Prj\fly_bird\Debug/../application/lcd.c:181 (discriminator 3)
		for(int16_t ii=y1;ii<y2;ii++)
800009aa:	16fd                	addi	a3,a3,-1
C:\NucleiStudio_workspace\HBirdv2_Prj\fly_bird\Debug/../application/lcd.c:184 (discriminator 3)
			*(LCD_P+invy1*LCD_W_MAX+invx1)=color;
800009ac:	00e61023          	sh	a4,0(a2)
C:\NucleiStudio_workspace\HBirdv2_Prj\fly_bird\Debug/../application/lcd.c:185 (discriminator 3)
			*(LCD_P+invy1*LCD_W_MAX+invx2-1)=color;
800009b0:	97ae                	add	a5,a5,a1
C:\NucleiStudio_workspace\HBirdv2_Prj\fly_bird\Debug/../application/lcd.c:181 (discriminator 3)
		for(int16_t ii=y1;ii<y2;ii++)
800009b2:	06c2                	slli	a3,a3,0x10
C:\NucleiStudio_workspace\HBirdv2_Prj\fly_bird\Debug/../application/lcd.c:185 (discriminator 3)
			*(LCD_P+invy1*LCD_W_MAX+invx2-1)=color;
800009b4:	00e79023          	sh	a4,0(a5)
C:\NucleiStudio_workspace\HBirdv2_Prj\fly_bird\Debug/../application/lcd.c:181 (discriminator 3)
		for(int16_t ii=y1;ii<y2;ii++)
800009b8:	82c1                	srli	a3,a3,0x10
800009ba:	fdd69de3          	bne	a3,t4,80000994 <LCD_DrawRectangle+0x1ee>
800009be:	8082                	ret
800009c0:	8082                	ret
800009c2:	8082                	ret

800009c4 <LCD_ShowChar>:
LCD_ShowChar():
C:\NucleiStudio_workspace\HBirdv2_Prj\fly_bird\Debug/../application/lcd.c:247
//mode:叠加方式(1)还是非叠加方式(0)
void LCD_ShowChar(uint16_t x,uint16_t y,uint8_t num,uint8_t size,uint8_t mode)
{  							  
    uint8_t temp,t1,t;
	uint16_t y0=y;
	uint8_t csize=(size/8+((size%8)?1:0))*(size/2);		//得到字体一个字符对应点阵集所占的字节数	
800009c4:	0076f793          	andi	a5,a3,7
800009c8:	0036d813          	srli	a6,a3,0x3
800009cc:	00f037b3          	snez	a5,a5
800009d0:	97c2                	add	a5,a5,a6
800009d2:	0016d813          	srli	a6,a3,0x1
800009d6:	030787b3          	mul	a5,a5,a6
C:\NucleiStudio_workspace\HBirdv2_Prj\fly_bird\Debug/../application/lcd.c:244
{  							  
800009da:	7179                	addi	sp,sp,-48
C:\NucleiStudio_workspace\HBirdv2_Prj\fly_bird\Debug/../application/lcd.c:248
 	num=num-' ';//得到偏移后的值（ASCII字库是从空格开始取模，所以-' '就是对应字符的字库）
800009dc:	1601                	addi	a2,a2,-32
C:\NucleiStudio_workspace\HBirdv2_Prj\fly_bird\Debug/../application/lcd.c:244
{  							  
800009de:	d622                	sw	s0,44(sp)
800009e0:	d426                	sw	s1,40(sp)
800009e2:	d24a                	sw	s2,36(sp)
800009e4:	d04e                	sw	s3,32(sp)
800009e6:	ce52                	sw	s4,28(sp)
800009e8:	cc56                	sw	s5,24(sp)
800009ea:	ca5a                	sw	s6,20(sp)
800009ec:	c85e                	sw	s7,16(sp)
800009ee:	c662                	sw	s8,12(sp)
800009f0:	c466                	sw	s9,8(sp)
800009f2:	c26a                	sw	s10,4(sp)
C:\NucleiStudio_workspace\HBirdv2_Prj\fly_bird\Debug/../application/lcd.c:249
	if(LCDinverse)
800009f4:	8281c803          	lbu	a6,-2008(gp) # 90000088 <LCDinverse>
C:\NucleiStudio_workspace\HBirdv2_Prj\fly_bird\Debug/../application/lcd.c:247
	uint8_t csize=(size/8+((size%8)?1:0))*(size/2);		//得到字体一个字符对应点阵集所占的字节数	
800009f8:	0ff7f793          	zext.b	a5,a5
C:\NucleiStudio_workspace\HBirdv2_Prj\fly_bird\Debug/../application/lcd.c:248
 	num=num-' ';//得到偏移后的值（ASCII字库是从空格开始取模，所以-' '就是对应字符的字库）
800009fc:	0ff67613          	zext.b	a2,a2
C:\NucleiStudio_workspace\HBirdv2_Prj\fly_bird\Debug/../application/lcd.c:249
	if(LCDinverse)
80000a00:	10081c63          	bnez	a6,80000b18 <LCD_ShowChar+0x154>
C:\NucleiStudio_workspace\HBirdv2_Prj\fly_bird\Debug/../application/lcd.c:285
			}  	 
		}  	    	   	 	
	}
	else
	{
		for(t=0;t<csize;t++)
80000a04:	0e078d63          	beqz	a5,80000afe <LCD_ShowChar+0x13a>
80000a08:	00161393          	slli	t2,a2,0x1
80000a0c:	00361f93          	slli	t6,a2,0x3
80000a10:	93b2                	add	t2,t2,a2
80000a12:	00461813          	slli	a6,a2,0x4
80000a16:	9fb2                	add	t6,t6,a2
80000a18:	17fd                	addi	a5,a5,-1
80000a1a:	00239613          	slli	a2,t2,0x2
80000a1e:	00004497          	auipc	s1,0x4
80000a22:	e9348493          	addi	s1,s1,-365 # 800048b1 <asc2_1608+0x1>
80000a26:	00004397          	auipc	t2,0x4
80000a2a:	a1638393          	addi	t2,t2,-1514 # 8000443c <asc2_1206>
80000a2e:	0f8a                	slli	t6,t6,0x2
80000a30:	94c2                	add	s1,s1,a6
80000a32:	0ff7f793          	zext.b	a5,a5
80000a36:	93b2                	add	t2,t2,a2
80000a38:	00004297          	auipc	t0,0x4
80000a3c:	e7828293          	addi	t0,t0,-392 # 800048b0 <asc2_1608>
80000a40:	00004617          	auipc	a2,0x4
80000a44:	46060613          	addi	a2,a2,1120 # 80004ea0 <asc2_2412>
C:\NucleiStudio_workspace\HBirdv2_Prj\fly_bird\Debug/../application/lcd.c:287
		{   
			if(size==12)temp=asc2_1206[num][t]; 	 	//调用1206字体
80000a48:	49b1                	li	s3,12
80000a4a:	9fb2                	add	t6,t6,a2
C:\NucleiStudio_workspace\HBirdv2_Prj\fly_bird\Debug/../application/lcd.c:299
				{
					*(LCD_P+y*LCD_W_MAX+x)=POINT_COLOR;
				}
				else if(mode==0)
				{
					*(LCD_P+y*LCD_W_MAX+x)=BACK_COLOR;
80000a4c:	80c1ae83          	lw	t4,-2036(gp) # 9000006c <LCD_P>
80000a50:	92c2                	add	t0,t0,a6
80000a52:	94be                	add	s1,s1,a5
80000a54:	862e                	mv	a2,a1
C:\NucleiStudio_workspace\HBirdv2_Prj\fly_bird\Debug/../application/lcd.c:288
			else if(size==16)temp=asc2_1608[num][t];	//调用1608字体
80000a56:	4a41                	li	s4,16
C:\NucleiStudio_workspace\HBirdv2_Prj\fly_bird\Debug/../application/lcd.c:289
			else if(size==24)temp=asc2_2412[num][t];	//调用2412字体
80000a58:	4ae1                	li	s5,24
C:\NucleiStudio_workspace\HBirdv2_Prj\fly_bird\Debug/../application/lcd.c:299
					*(LCD_P+y*LCD_W_MAX+x)=BACK_COLOR;
80000a5a:	80818913          	addi	s2,gp,-2040 # 90000068 <BACK_COLOR>
C:\NucleiStudio_workspace\HBirdv2_Prj\fly_bird\Debug/../application/lcd.c:295
					*(LCD_P+y*LCD_W_MAX+x)=POINT_COLOR;
80000a5e:	82a18413          	addi	s0,gp,-2006 # 9000008a <POINT_COLOR>
C:\NucleiStudio_workspace\HBirdv2_Prj\fly_bird\Debug/../application/lcd.c:303
				}
				temp<<=1;
				y++;
				if(y>=LCD_H_MAX)return;		//超区域了
80000a62:	1df00f13          	li	t5,479
C:\NucleiStudio_workspace\HBirdv2_Prj\fly_bird\Debug/../application/lcd.c:308
				if((y-y0)==size)
				{
					y=y0;
					x++;
					if(x>=LCD_W_MAX)return;	//超区域了
80000a66:	27f00b13          	li	s6,639
C:\NucleiStudio_workspace\HBirdv2_Prj\fly_bird\Debug/../application/lcd.c:287
			if(size==12)temp=asc2_1206[num][t]; 	 	//调用1206字体
80000a6a:	1d368663          	beq	a3,s3,80000c36 <LCD_ShowChar+0x272>
C:\NucleiStudio_workspace\HBirdv2_Prj\fly_bird\Debug/../application/lcd.c:288
			else if(size==16)temp=asc2_1608[num][t];	//调用1608字体
80000a6e:	1f468763          	beq	a3,s4,80000c5c <LCD_ShowChar+0x298>
C:\NucleiStudio_workspace\HBirdv2_Prj\fly_bird\Debug/../application/lcd.c:289
			else if(size==24)temp=asc2_2412[num][t];	//调用2412字体
80000a72:	09569663          	bne	a3,s5,80000afe <LCD_ShowChar+0x13a>
C:\NucleiStudio_workspace\HBirdv2_Prj\fly_bird\Debug/../application/lcd.c:289 (discriminator 1)
80000a76:	000fc803          	lbu	a6,0(t6)
80000a7a:	00160313          	addi	t1,a2,1
80000a7e:	01031893          	slli	a7,t1,0x10
80000a82:	00860e13          	addi	t3,a2,8
80000a86:	0108d893          	srli	a7,a7,0x10
80000a8a:	0e42                	slli	t3,t3,0x10
80000a8c:	40b888b3          	sub	a7,a7,a1
80000a90:	010e5e13          	srli	t3,t3,0x10
80000a94:	a825                	j	80000acc <LCD_ShowChar+0x108>
C:\NucleiStudio_workspace\HBirdv2_Prj\fly_bird\Debug/../application/lcd.c:299
					*(LCD_P+y*LCD_W_MAX+x)=BACK_COLOR;
80000a96:	00261793          	slli	a5,a2,0x2
80000a9a:	963e                	add	a2,a2,a5
80000a9c:	061e                	slli	a2,a2,0x7
80000a9e:	962a                	add	a2,a2,a0
80000aa0:	0606                	slli	a2,a2,0x1
80000aa2:	9676                	add	a2,a2,t4
C:\NucleiStudio_workspace\HBirdv2_Prj\fly_bird\Debug/../application/lcd.c:297
				else if(mode==0)
80000aa4:	e709                	bnez	a4,80000aae <LCD_ShowChar+0xea>
C:\NucleiStudio_workspace\HBirdv2_Prj\fly_bird\Debug/../application/lcd.c:299
					*(LCD_P+y*LCD_W_MAX+x)=BACK_COLOR;
80000aa6:	00095783          	lhu	a5,0(s2)
80000aaa:	00f61023          	sh	a5,0(a2)
C:\NucleiStudio_workspace\HBirdv2_Prj\fly_bird\Debug/../application/lcd.c:302
				y++;
80000aae:	01031613          	slli	a2,t1,0x10
C:\NucleiStudio_workspace\HBirdv2_Prj\fly_bird\Debug/../application/lcd.c:301
				temp<<=1;
80000ab2:	0806                	slli	a6,a6,0x1
C:\NucleiStudio_workspace\HBirdv2_Prj\fly_bird\Debug/../application/lcd.c:302
				y++;
80000ab4:	8241                	srli	a2,a2,0x10
C:\NucleiStudio_workspace\HBirdv2_Prj\fly_bird\Debug/../application/lcd.c:301
				temp<<=1;
80000ab6:	0ff87813          	zext.b	a6,a6
C:\NucleiStudio_workspace\HBirdv2_Prj\fly_bird\Debug/../application/lcd.c:303
				if(y>=LCD_H_MAX)return;		//超区域了
80000aba:	04cf6263          	bltu	t5,a2,80000afe <LCD_ShowChar+0x13a>
C:\NucleiStudio_workspace\HBirdv2_Prj\fly_bird\Debug/../application/lcd.c:304
				if((y-y0)==size)
80000abe:	14d88f63          	beq	a7,a3,80000c1c <LCD_ShowChar+0x258>
C:\NucleiStudio_workspace\HBirdv2_Prj\fly_bird\Debug/../application/lcd.c:291 (discriminator 2)
			for(t1=0;t1<8;t1++)
80000ac2:	0885                	addi	a7,a7,1
80000ac4:	17c60263          	beq	a2,t3,80000c28 <LCD_ShowChar+0x264>
80000ac8:	00160313          	addi	t1,a2,1
C:\NucleiStudio_workspace\HBirdv2_Prj\fly_bird\Debug/../application/lcd.c:295
					*(LCD_P+y*LCD_W_MAX+x)=POINT_COLOR;
80000acc:	00261793          	slli	a5,a2,0x2
80000ad0:	97b2                	add	a5,a5,a2
80000ad2:	079e                	slli	a5,a5,0x7
80000ad4:	97aa                	add	a5,a5,a0
C:\NucleiStudio_workspace\HBirdv2_Prj\fly_bird\Debug/../application/lcd.c:293
				if(temp&0x80)
80000ad6:	01881b93          	slli	s7,a6,0x18
C:\NucleiStudio_workspace\HBirdv2_Prj\fly_bird\Debug/../application/lcd.c:295
					*(LCD_P+y*LCD_W_MAX+x)=POINT_COLOR;
80000ada:	0786                	slli	a5,a5,0x1
C:\NucleiStudio_workspace\HBirdv2_Prj\fly_bird\Debug/../application/lcd.c:293
				if(temp&0x80)
80000adc:	418bdb93          	srai	s7,s7,0x18
C:\NucleiStudio_workspace\HBirdv2_Prj\fly_bird\Debug/../application/lcd.c:295
					*(LCD_P+y*LCD_W_MAX+x)=POINT_COLOR;
80000ae0:	97f6                	add	a5,a5,t4
C:\NucleiStudio_workspace\HBirdv2_Prj\fly_bird\Debug/../application/lcd.c:293
				if(temp&0x80)
80000ae2:	fa0bdae3          	bgez	s7,80000a96 <LCD_ShowChar+0xd2>
C:\NucleiStudio_workspace\HBirdv2_Prj\fly_bird\Debug/../application/lcd.c:295
					*(LCD_P+y*LCD_W_MAX+x)=POINT_COLOR;
80000ae6:	00045603          	lhu	a2,0(s0)
C:\NucleiStudio_workspace\HBirdv2_Prj\fly_bird\Debug/../application/lcd.c:301
				temp<<=1;
80000aea:	0806                	slli	a6,a6,0x1
80000aec:	0ff87813          	zext.b	a6,a6
C:\NucleiStudio_workspace\HBirdv2_Prj\fly_bird\Debug/../application/lcd.c:295
					*(LCD_P+y*LCD_W_MAX+x)=POINT_COLOR;
80000af0:	00c79023          	sh	a2,0(a5)
C:\NucleiStudio_workspace\HBirdv2_Prj\fly_bird\Debug/../application/lcd.c:302
				y++;
80000af4:	01031613          	slli	a2,t1,0x10
80000af8:	8241                	srli	a2,a2,0x10
C:\NucleiStudio_workspace\HBirdv2_Prj\fly_bird\Debug/../application/lcd.c:303
				if(y>=LCD_H_MAX)return;		//超区域了
80000afa:	fccf72e3          	bgeu	t5,a2,80000abe <LCD_ShowChar+0xfa>
C:\NucleiStudio_workspace\HBirdv2_Prj\fly_bird\Debug/../application/lcd.c:314
					break;
				}
			}  	 
		}  	   
	} 	   	 	  
}   
80000afe:	5432                	lw	s0,44(sp)
80000b00:	54a2                	lw	s1,40(sp)
80000b02:	5912                	lw	s2,36(sp)
80000b04:	5982                	lw	s3,32(sp)
80000b06:	4a72                	lw	s4,28(sp)
80000b08:	4ae2                	lw	s5,24(sp)
80000b0a:	4b52                	lw	s6,20(sp)
80000b0c:	4bc2                	lw	s7,16(sp)
80000b0e:	4c32                	lw	s8,12(sp)
80000b10:	4ca2                	lw	s9,8(sp)
80000b12:	4d12                	lw	s10,4(sp)
80000b14:	6145                	addi	sp,sp,48
80000b16:	8082                	ret
C:\NucleiStudio_workspace\HBirdv2_Prj\fly_bird\Debug/../application/lcd.c:252
		for(t=0;t<csize;t++)
80000b18:	d3fd                	beqz	a5,80000afe <LCD_ShowChar+0x13a>
80000b1a:	00161913          	slli	s2,a2,0x1
80000b1e:	00361413          	slli	s0,a2,0x3
80000b22:	9932                	add	s2,s2,a2
80000b24:	00461813          	slli	a6,a2,0x4
80000b28:	9432                	add	s0,s0,a2
80000b2a:	17fd                	addi	a5,a5,-1
80000b2c:	00291613          	slli	a2,s2,0x2
80000b30:	00004a17          	auipc	s4,0x4
80000b34:	d81a0a13          	addi	s4,s4,-639 # 800048b1 <asc2_1608+0x1>
80000b38:	00004917          	auipc	s2,0x4
80000b3c:	90490913          	addi	s2,s2,-1788 # 8000443c <asc2_1206>
80000b40:	040a                	slli	s0,s0,0x2
80000b42:	9a42                	add	s4,s4,a6
80000b44:	0ff7f793          	zext.b	a5,a5
80000b48:	9932                	add	s2,s2,a2
80000b4a:	00004497          	auipc	s1,0x4
80000b4e:	d6648493          	addi	s1,s1,-666 # 800048b0 <asc2_1608>
80000b52:	00004617          	auipc	a2,0x4
80000b56:	34e60613          	addi	a2,a2,846 # 80004ea0 <asc2_2412>
C:\NucleiStudio_workspace\HBirdv2_Prj\fly_bird\Debug/../application/lcd.c:254
			if(size==12)temp=asc2_1206[num][t]; 	 	//调用1206字体
80000b5a:	4b31                	li	s6,12
80000b5c:	9432                	add	s0,s0,a2
C:\NucleiStudio_workspace\HBirdv2_Prj\fly_bird\Debug/../application/lcd.c:268
					*(LCD_P+invy*LCD_W_MAX+invx)=BACK_COLOR;
80000b5e:	80c1af83          	lw	t6,-2036(gp) # 9000006c <LCD_P>
80000b62:	94c2                	add	s1,s1,a6
80000b64:	9a3e                	add	s4,s4,a5
80000b66:	862e                	mv	a2,a1
C:\NucleiStudio_workspace\HBirdv2_Prj\fly_bird\Debug/../application/lcd.c:255
			else if(size==16)temp=asc2_1608[num][t];	//调用1608字体
80000b68:	4c41                	li	s8,16
C:\NucleiStudio_workspace\HBirdv2_Prj\fly_bird\Debug/../application/lcd.c:256
			else if(size==24)temp=asc2_2412[num][t];	//调用2412字体
80000b6a:	4ce1                	li	s9,24
C:\NucleiStudio_workspace\HBirdv2_Prj\fly_bird\Debug/../application/lcd.c:260
				invx=LCD_W_MAX-1-x;
80000b6c:	27f00b93          	li	s7,639
80000b70:	1df00393          	li	t2,479
C:\NucleiStudio_workspace\HBirdv2_Prj\fly_bird\Debug/../application/lcd.c:268
					*(LCD_P+invy*LCD_W_MAX+invx)=BACK_COLOR;
80000b74:	80818a93          	addi	s5,gp,-2040 # 90000068 <BACK_COLOR>
C:\NucleiStudio_workspace\HBirdv2_Prj\fly_bird\Debug/../application/lcd.c:264
					*(LCD_P+invy*LCD_W_MAX+invx)=POINT_COLOR;
80000b78:	82a18993          	addi	s3,gp,-2006 # 9000008a <POINT_COLOR>
C:\NucleiStudio_workspace\HBirdv2_Prj\fly_bird\Debug/../application/lcd.c:272
				if(y>=LCD_H_MAX)return;		//超区域了
80000b7c:	1df00293          	li	t0,479
C:\NucleiStudio_workspace\HBirdv2_Prj\fly_bird\Debug/../application/lcd.c:277
					if(x>=LCD_W_MAX)return;	//超区域了
80000b80:	27f00d13          	li	s10,639
C:\NucleiStudio_workspace\HBirdv2_Prj\fly_bird\Debug/../application/lcd.c:254
			if(size==12)temp=asc2_1206[num][t]; 	 	//调用1206字体
80000b84:	0d668963          	beq	a3,s6,80000c56 <LCD_ShowChar+0x292>
C:\NucleiStudio_workspace\HBirdv2_Prj\fly_bird\Debug/../application/lcd.c:255
			else if(size==16)temp=asc2_1608[num][t];	//调用1608字体
80000b88:	0d868d63          	beq	a3,s8,80000c62 <LCD_ShowChar+0x29e>
C:\NucleiStudio_workspace\HBirdv2_Prj\fly_bird\Debug/../application/lcd.c:256
			else if(size==24)temp=asc2_2412[num][t];	//调用2412字体
80000b8c:	f79699e3          	bne	a3,s9,80000afe <LCD_ShowChar+0x13a>
C:\NucleiStudio_workspace\HBirdv2_Prj\fly_bird\Debug/../application/lcd.c:256 (discriminator 1)
80000b90:	00044803          	lbu	a6,0(s0)
80000b94:	00160e93          	addi	t4,a2,1
C:\NucleiStudio_workspace\HBirdv2_Prj\fly_bird\Debug/../application/lcd.c:260
				invx=LCD_W_MAX-1-x;
80000b98:	40ab8e33          	sub	t3,s7,a0
80000b9c:	010e9313          	slli	t1,t4,0x10
80000ba0:	00860f13          	addi	t5,a2,8
80000ba4:	01035313          	srli	t1,t1,0x10
80000ba8:	0e42                	slli	t3,t3,0x10
80000baa:	0f42                	slli	t5,t5,0x10
80000bac:	410e5e13          	srai	t3,t3,0x10
80000bb0:	40b30333          	sub	t1,t1,a1
80000bb4:	010f5f13          	srli	t5,t5,0x10
80000bb8:	a825                	j	80000bf0 <LCD_ShowChar+0x22c>
C:\NucleiStudio_workspace\HBirdv2_Prj\fly_bird\Debug/../application/lcd.c:268
					*(LCD_P+invy*LCD_W_MAX+invx)=BACK_COLOR;
80000bba:	00261793          	slli	a5,a2,0x2
80000bbe:	963e                	add	a2,a2,a5
80000bc0:	061e                	slli	a2,a2,0x7
80000bc2:	9672                	add	a2,a2,t3
80000bc4:	0606                	slli	a2,a2,0x1
80000bc6:	967e                	add	a2,a2,t6
C:\NucleiStudio_workspace\HBirdv2_Prj\fly_bird\Debug/../application/lcd.c:266
				else if(mode==0)
80000bc8:	e709                	bnez	a4,80000bd2 <LCD_ShowChar+0x20e>
C:\NucleiStudio_workspace\HBirdv2_Prj\fly_bird\Debug/../application/lcd.c:268
					*(LCD_P+invy*LCD_W_MAX+invx)=BACK_COLOR;
80000bca:	000ad783          	lhu	a5,0(s5)
80000bce:	00f61023          	sh	a5,0(a2)
C:\NucleiStudio_workspace\HBirdv2_Prj\fly_bird\Debug/../application/lcd.c:271
				y++;
80000bd2:	010e9613          	slli	a2,t4,0x10
C:\NucleiStudio_workspace\HBirdv2_Prj\fly_bird\Debug/../application/lcd.c:270
				temp<<=1;
80000bd6:	0806                	slli	a6,a6,0x1
C:\NucleiStudio_workspace\HBirdv2_Prj\fly_bird\Debug/../application/lcd.c:271
				y++;
80000bd8:	8241                	srli	a2,a2,0x10
C:\NucleiStudio_workspace\HBirdv2_Prj\fly_bird\Debug/../application/lcd.c:270
				temp<<=1;
80000bda:	0ff87813          	zext.b	a6,a6
C:\NucleiStudio_workspace\HBirdv2_Prj\fly_bird\Debug/../application/lcd.c:272
				if(y>=LCD_H_MAX)return;		//超区域了
80000bde:	f2c2e0e3          	bltu	t0,a2,80000afe <LCD_ShowChar+0x13a>
C:\NucleiStudio_workspace\HBirdv2_Prj\fly_bird\Debug/../application/lcd.c:273
				if((y-y0)==size)
80000be2:	04668d63          	beq	a3,t1,80000c3c <LCD_ShowChar+0x278>
C:\NucleiStudio_workspace\HBirdv2_Prj\fly_bird\Debug/../application/lcd.c:258 (discriminator 2)
			for(t1=0;t1<8;t1++)
80000be6:	0305                	addi	t1,t1,1
80000be8:	06cf0063          	beq	t5,a2,80000c48 <LCD_ShowChar+0x284>
80000bec:	00160e93          	addi	t4,a2,1
C:\NucleiStudio_workspace\HBirdv2_Prj\fly_bird\Debug/../application/lcd.c:266
				else if(mode==0)
80000bf0:	40c38633          	sub	a2,t2,a2
80000bf4:	0642                	slli	a2,a2,0x10
80000bf6:	8641                	srai	a2,a2,0x10
C:\NucleiStudio_workspace\HBirdv2_Prj\fly_bird\Debug/../application/lcd.c:264
					*(LCD_P+invy*LCD_W_MAX+invx)=POINT_COLOR;
80000bf8:	00261793          	slli	a5,a2,0x2
80000bfc:	97b2                	add	a5,a5,a2
80000bfe:	079e                	slli	a5,a5,0x7
C:\NucleiStudio_workspace\HBirdv2_Prj\fly_bird\Debug/../application/lcd.c:262
				if(temp&0x80)
80000c00:	01881893          	slli	a7,a6,0x18
C:\NucleiStudio_workspace\HBirdv2_Prj\fly_bird\Debug/../application/lcd.c:264
					*(LCD_P+invy*LCD_W_MAX+invx)=POINT_COLOR;
80000c04:	97f2                	add	a5,a5,t3
80000c06:	0786                	slli	a5,a5,0x1
C:\NucleiStudio_workspace\HBirdv2_Prj\fly_bird\Debug/../application/lcd.c:262
				if(temp&0x80)
80000c08:	4188d893          	srai	a7,a7,0x18
C:\NucleiStudio_workspace\HBirdv2_Prj\fly_bird\Debug/../application/lcd.c:264
					*(LCD_P+invy*LCD_W_MAX+invx)=POINT_COLOR;
80000c0c:	97fe                	add	a5,a5,t6
C:\NucleiStudio_workspace\HBirdv2_Prj\fly_bird\Debug/../application/lcd.c:262
				if(temp&0x80)
80000c0e:	fa08d6e3          	bgez	a7,80000bba <LCD_ShowChar+0x1f6>
C:\NucleiStudio_workspace\HBirdv2_Prj\fly_bird\Debug/../application/lcd.c:264
					*(LCD_P+invy*LCD_W_MAX+invx)=POINT_COLOR;
80000c12:	0009d603          	lhu	a2,0(s3)
80000c16:	00c79023          	sh	a2,0(a5)
80000c1a:	bf65                	j	80000bd2 <LCD_ShowChar+0x20e>
C:\NucleiStudio_workspace\HBirdv2_Prj\fly_bird\Debug/../application/lcd.c:307
					x++;
80000c1c:	0505                	addi	a0,a0,1
80000c1e:	0542                	slli	a0,a0,0x10
80000c20:	8141                	srli	a0,a0,0x10
C:\NucleiStudio_workspace\HBirdv2_Prj\fly_bird\Debug/../application/lcd.c:308
					if(x>=LCD_W_MAX)return;	//超区域了
80000c22:	ecab6ee3          	bltu	s6,a0,80000afe <LCD_ShowChar+0x13a>
C:\NucleiStudio_workspace\HBirdv2_Prj\fly_bird\Debug/../application/lcd.c:306
					y=y0;
80000c26:	862e                	mv	a2,a1
C:\NucleiStudio_workspace\HBirdv2_Prj\fly_bird\Debug/../application/lcd.c:285 (discriminator 2)
		for(t=0;t<csize;t++)
80000c28:	0285                	addi	t0,t0,1
80000c2a:	0385                	addi	t2,t2,1
80000c2c:	0f85                	addi	t6,t6,1
80000c2e:	ec9288e3          	beq	t0,s1,80000afe <LCD_ShowChar+0x13a>
C:\NucleiStudio_workspace\HBirdv2_Prj\fly_bird\Debug/../application/lcd.c:287
			if(size==12)temp=asc2_1206[num][t]; 	 	//调用1206字体
80000c32:	e3369ee3          	bne	a3,s3,80000a6e <LCD_ShowChar+0xaa>
C:\NucleiStudio_workspace\HBirdv2_Prj\fly_bird\Debug/../application/lcd.c:287 (discriminator 1)
80000c36:	0003c803          	lbu	a6,0(t2)
80000c3a:	b581                	j	80000a7a <LCD_ShowChar+0xb6>
C:\NucleiStudio_workspace\HBirdv2_Prj\fly_bird\Debug/../application/lcd.c:276
					x++;
80000c3c:	0505                	addi	a0,a0,1
80000c3e:	0542                	slli	a0,a0,0x10
80000c40:	8141                	srli	a0,a0,0x10
C:\NucleiStudio_workspace\HBirdv2_Prj\fly_bird\Debug/../application/lcd.c:277
					if(x>=LCD_W_MAX)return;	//超区域了
80000c42:	eaad6ee3          	bltu	s10,a0,80000afe <LCD_ShowChar+0x13a>
C:\NucleiStudio_workspace\HBirdv2_Prj\fly_bird\Debug/../application/lcd.c:275
					y=y0;
80000c46:	862e                	mv	a2,a1
C:\NucleiStudio_workspace\HBirdv2_Prj\fly_bird\Debug/../application/lcd.c:252 (discriminator 2)
		for(t=0;t<csize;t++)
80000c48:	0485                	addi	s1,s1,1
80000c4a:	0905                	addi	s2,s2,1
80000c4c:	0405                	addi	s0,s0,1
80000c4e:	ea9a08e3          	beq	s4,s1,80000afe <LCD_ShowChar+0x13a>
C:\NucleiStudio_workspace\HBirdv2_Prj\fly_bird\Debug/../application/lcd.c:254
			if(size==12)temp=asc2_1206[num][t]; 	 	//调用1206字体
80000c52:	f3669be3          	bne	a3,s6,80000b88 <LCD_ShowChar+0x1c4>
C:\NucleiStudio_workspace\HBirdv2_Prj\fly_bird\Debug/../application/lcd.c:254 (discriminator 1)
80000c56:	00094803          	lbu	a6,0(s2)
80000c5a:	bf2d                	j	80000b94 <LCD_ShowChar+0x1d0>
C:\NucleiStudio_workspace\HBirdv2_Prj\fly_bird\Debug/../application/lcd.c:288 (discriminator 1)
			else if(size==16)temp=asc2_1608[num][t];	//调用1608字体
80000c5c:	0002c803          	lbu	a6,0(t0)
80000c60:	bd29                	j	80000a7a <LCD_ShowChar+0xb6>
C:\NucleiStudio_workspace\HBirdv2_Prj\fly_bird\Debug/../application/lcd.c:255 (discriminator 1)
			else if(size==16)temp=asc2_1608[num][t];	//调用1608字体
80000c62:	0004c803          	lbu	a6,0(s1)
80000c66:	b73d                	j	80000b94 <LCD_ShowChar+0x1d0>

80000c68 <LCD_ShowNum>:
LCD_ShowNum():
C:\NucleiStudio_workspace\HBirdv2_Prj\fly_bird\Debug/../application/lcd.c:333
//num:数值(0~4294967295);	 
void LCD_ShowNum(uint16_t x,uint16_t y,uint32_t num,uint8_t len,uint8_t size)
{         	
	uint8_t t,temp;
	uint8_t enshow=0;						   
	for(t=0;t<len;t++)
80000c68:	cedd                	beqz	a3,80000d26 <LCD_ShowNum+0xbe>
C:\NucleiStudio_workspace\HBirdv2_Prj\fly_bird\Debug/../application/lcd.c:330
{         	
80000c6a:	7179                	addi	sp,sp,-48
80000c6c:	d422                	sw	s0,40(sp)
80000c6e:	fff68413          	addi	s0,a3,-1
80000c72:	d226                	sw	s1,36(sp)
80000c74:	d04a                	sw	s2,32(sp)
80000c76:	ce4e                	sw	s3,28(sp)
80000c78:	cc52                	sw	s4,24(sp)
80000c7a:	ca56                	sw	s5,20(sp)
80000c7c:	c85a                	sw	s6,16(sp)
80000c7e:	c65e                	sw	s7,12(sp)
80000c80:	c462                	sw	s8,8(sp)
80000c82:	c266                	sw	s9,4(sp)
80000c84:	c06a                	sw	s10,0(sp)
80000c86:	d606                	sw	ra,44(sp)
80000c88:	8caa                	mv	s9,a0
80000c8a:	8b2e                	mv	s6,a1
80000c8c:	89b2                	mv	s3,a2
80000c8e:	84ba                	mv	s1,a4
C:\NucleiStudio_workspace\HBirdv2_Prj\fly_bird\Debug/../application/lcd.c:345
				LCD_ShowChar(x+(size/2)*t,y,' ',size,0);
				continue;
			}else enshow=1; 
		 	 
		}
	 	LCD_ShowChar(x+(size/2)*t,y,temp+'0',size,0); 
80000c90:	00175a93          	srli	s5,a4,0x1
80000c94:	0ff47c13          	zext.b	s8,s0
80000c98:	4d01                	li	s10,0
C:\NucleiStudio_workspace\HBirdv2_Prj\fly_bird\Debug/../application/lcd.c:332
	uint8_t enshow=0;						   
80000c9a:	4901                	li	s2,0
LCD_Pow():
C:\NucleiStudio_workspace\HBirdv2_Prj\fly_bird\Debug/../application/lcd.c:320
	while(n--)result*=m;    
80000c9c:	0ff00b93          	li	s7,255
LCD_ShowNum():
C:\NucleiStudio_workspace\HBirdv2_Prj\fly_bird\Debug/../application/lcd.c:335
		temp=(num/LCD_Pow(10,len-t-1))%10;
80000ca0:	4a29                	li	s4,10
LCD_Pow():
C:\NucleiStudio_workspace\HBirdv2_Prj\fly_bird\Debug/../application/lcd.c:320
	while(n--)result*=m;    
80000ca2:	87e2                	mv	a5,s8
80000ca4:	1c7d                	addi	s8,s8,-1
80000ca6:	0ffc7c13          	zext.b	s8,s8
80000caa:	c7a5                	beqz	a5,80000d12 <LCD_ShowNum+0xaa>
80000cac:	8862                	mv	a6,s8
C:\NucleiStudio_workspace\HBirdv2_Prj\fly_bird\Debug/../application/lcd.c:319
	uint32_t result=1;	 
80000cae:	4785                	li	a5,1
C:\NucleiStudio_workspace\HBirdv2_Prj\fly_bird\Debug/../application/lcd.c:320
	while(n--)result*=m;    
80000cb0:	00279713          	slli	a4,a5,0x2
80000cb4:	187d                	addi	a6,a6,-1
80000cb6:	97ba                	add	a5,a5,a4
80000cb8:	0ff87813          	zext.b	a6,a6
80000cbc:	0786                	slli	a5,a5,0x1
80000cbe:	ff7819e3          	bne	a6,s7,80000cb0 <LCD_ShowNum+0x48>
LCD_ShowNum():
C:\NucleiStudio_workspace\HBirdv2_Prj\fly_bird\Debug/../application/lcd.c:335
		temp=(num/LCD_Pow(10,len-t-1))%10;
80000cc2:	02f9d7b3          	divu	a5,s3,a5
80000cc6:	0347f7b3          	remu	a5,a5,s4
80000cca:	0ff7f613          	zext.b	a2,a5
C:\NucleiStudio_workspace\HBirdv2_Prj\fly_bird\Debug/../application/lcd.c:336
		if(enshow==0&&t<(len-1))
80000cce:	00091663          	bnez	s2,80000cda <LCD_ShowNum+0x72>
C:\NucleiStudio_workspace\HBirdv2_Prj\fly_bird\Debug/../application/lcd.c:336 (discriminator 1)
80000cd2:	008d5463          	bge	s10,s0,80000cda <LCD_ShowNum+0x72>
C:\NucleiStudio_workspace\HBirdv2_Prj\fly_bird\Debug/../application/lcd.c:338
			if(temp==0)
80000cd6:	c3a1                	beqz	a5,80000d16 <LCD_ShowNum+0xae>
80000cd8:	4905                	li	s2,1
C:\NucleiStudio_workspace\HBirdv2_Prj\fly_bird\Debug/../application/lcd.c:345
	 	LCD_ShowChar(x+(size/2)*t,y,temp+'0',size,0); 
80000cda:	4701                	li	a4,0
80000cdc:	86a6                	mv	a3,s1
80000cde:	03060613          	addi	a2,a2,48
80000ce2:	85da                	mv	a1,s6
80000ce4:	8566                	mv	a0,s9
80000ce6:	39f9                	jal	800009c4 <LCD_ShowChar>
C:\NucleiStudio_workspace\HBirdv2_Prj\fly_bird\Debug/../application/lcd.c:333 (discriminator 2)
	for(t=0;t<len;t++)
80000ce8:	9cd6                	add	s9,s9,s5
80000cea:	0cc2                	slli	s9,s9,0x10
80000cec:	0d05                	addi	s10,s10,1
80000cee:	010cdc93          	srli	s9,s9,0x10
80000cf2:	fb7c18e3          	bne	s8,s7,80000ca2 <LCD_ShowNum+0x3a>
C:\NucleiStudio_workspace\HBirdv2_Prj\fly_bird\Debug/../application/lcd.c:347
	}
} 
80000cf6:	50b2                	lw	ra,44(sp)
80000cf8:	5422                	lw	s0,40(sp)
80000cfa:	5492                	lw	s1,36(sp)
80000cfc:	5902                	lw	s2,32(sp)
80000cfe:	49f2                	lw	s3,28(sp)
80000d00:	4a62                	lw	s4,24(sp)
80000d02:	4ad2                	lw	s5,20(sp)
80000d04:	4b42                	lw	s6,16(sp)
80000d06:	4bb2                	lw	s7,12(sp)
80000d08:	4c22                	lw	s8,8(sp)
80000d0a:	4c92                	lw	s9,4(sp)
80000d0c:	4d02                	lw	s10,0(sp)
80000d0e:	6145                	addi	sp,sp,48
80000d10:	8082                	ret
LCD_Pow():
C:\NucleiStudio_workspace\HBirdv2_Prj\fly_bird\Debug/../application/lcd.c:320
	while(n--)result*=m;    
80000d12:	87ce                	mv	a5,s3
80000d14:	bf4d                	j	80000cc6 <LCD_ShowNum+0x5e>
LCD_ShowNum():
C:\NucleiStudio_workspace\HBirdv2_Prj\fly_bird\Debug/../application/lcd.c:340
				LCD_ShowChar(x+(size/2)*t,y,' ',size,0);
80000d16:	4701                	li	a4,0
80000d18:	86a6                	mv	a3,s1
80000d1a:	02000613          	li	a2,32
80000d1e:	85da                	mv	a1,s6
80000d20:	8566                	mv	a0,s9
80000d22:	314d                	jal	800009c4 <LCD_ShowChar>
C:\NucleiStudio_workspace\HBirdv2_Prj\fly_bird\Debug/../application/lcd.c:341
				continue;
80000d24:	b7d1                	j	80000ce8 <LCD_ShowNum+0x80>
80000d26:	8082                	ret

80000d28 <LCD_ShowString>:
LCD_ShowString():
C:\NucleiStudio_workspace\HBirdv2_Prj\fly_bird\Debug/../application/lcd.c:383
//x,y:起点坐标
//width,height:区域大小  
//size:字体大小
//*p:字符串起始地址		  
void LCD_ShowString(uint16_t x,uint16_t y,uint16_t width,uint16_t height,uint8_t size,uint8_t *p)
{         
80000d28:	7179                	addi	sp,sp,-48
80000d2a:	d422                	sw	s0,40(sp)
80000d2c:	d226                	sw	s1,36(sp)
80000d2e:	d04a                	sw	s2,32(sp)
80000d30:	d606                	sw	ra,44(sp)
80000d32:	ce4e                	sw	s3,28(sp)
80000d34:	cc52                	sw	s4,24(sp)
80000d36:	ca56                	sw	s5,20(sp)
80000d38:	c85a                	sw	s6,16(sp)
80000d3a:	c65e                	sw	s7,12(sp)
80000d3c:	c462                	sw	s8,8(sp)
80000d3e:	893e                	mv	s2,a5
C:\NucleiStudio_workspace\HBirdv2_Prj\fly_bird\Debug/../application/lcd.c:387
	uint8_t x0=x;
	width+=x;
	height+=y;
    while((*p<='~')&&(*p>=' '))//判断是不是非法字符!
80000d40:	0007c783          	lbu	a5,0(a5)
C:\NucleiStudio_workspace\HBirdv2_Prj\fly_bird\Debug/../application/lcd.c:383
{         
80000d44:	84ae                	mv	s1,a1
80000d46:	842a                	mv	s0,a0
C:\NucleiStudio_workspace\HBirdv2_Prj\fly_bird\Debug/../application/lcd.c:387
    while((*p<='~')&&(*p>=' '))//判断是不是非法字符!
80000d48:	fe078593          	addi	a1,a5,-32
C:\NucleiStudio_workspace\HBirdv2_Prj\fly_bird\Debug/../application/lcd.c:385
	width+=x;
80000d4c:	962a                	add	a2,a2,a0
C:\NucleiStudio_workspace\HBirdv2_Prj\fly_bird\Debug/../application/lcd.c:387
    while((*p<='~')&&(*p>=' '))//判断是不是非法字符!
80000d4e:	0ff5f593          	zext.b	a1,a1
80000d52:	05e00513          	li	a0,94
C:\NucleiStudio_workspace\HBirdv2_Prj\fly_bird\Debug/../application/lcd.c:386
	height+=y;
80000d56:	96a6                	add	a3,a3,s1
C:\NucleiStudio_workspace\HBirdv2_Prj\fly_bird\Debug/../application/lcd.c:387
    while((*p<='~')&&(*p>=' '))//判断是不是非法字符!
80000d58:	04b56e63          	bltu	a0,a1,80000db4 <LCD_ShowString+0x8c>
80000d5c:	01061993          	slli	s3,a2,0x10
80000d60:	01069a13          	slli	s4,a3,0x10
80000d64:	8c3a                	mv	s8,a4
80000d66:	0109d993          	srli	s3,s3,0x10
80000d6a:	010a5a13          	srli	s4,s4,0x10
C:\NucleiStudio_workspace\HBirdv2_Prj\fly_bird\Debug/../application/lcd.c:392
    {       
        if(x>=width){x=x0;y+=size;}
        if(y>=height)break;//退出
        LCD_ShowChar(x,y,*p,size,0);
        x+=size/2;
80000d6e:	00175b13          	srli	s6,a4,0x1
80000d72:	0ff47b93          	zext.b	s7,s0
C:\NucleiStudio_workspace\HBirdv2_Prj\fly_bird\Debug/../application/lcd.c:387
    while((*p<='~')&&(*p>=' '))//判断是不是非法字符!
80000d76:	05e00a93          	li	s5,94
80000d7a:	a829                	j	80000d94 <LCD_ShowString+0x6c>
C:\NucleiStudio_workspace\HBirdv2_Prj\fly_bird\Debug/../application/lcd.c:391
        LCD_ShowChar(x,y,*p,size,0);
80000d7c:	31a1                	jal	800009c4 <LCD_ShowChar>
C:\NucleiStudio_workspace\HBirdv2_Prj\fly_bird\Debug/../application/lcd.c:387
    while((*p<='~')&&(*p>=' '))//判断是不是非法字符!
80000d7e:	00094783          	lbu	a5,0(s2)
C:\NucleiStudio_workspace\HBirdv2_Prj\fly_bird\Debug/../application/lcd.c:392
        x+=size/2;
80000d82:	945a                	add	s0,s0,s6
80000d84:	0442                	slli	s0,s0,0x10
C:\NucleiStudio_workspace\HBirdv2_Prj\fly_bird\Debug/../application/lcd.c:387
    while((*p<='~')&&(*p>=' '))//判断是不是非法字符!
80000d86:	fe078613          	addi	a2,a5,-32
80000d8a:	0ff67613          	zext.b	a2,a2
C:\NucleiStudio_workspace\HBirdv2_Prj\fly_bird\Debug/../application/lcd.c:392
        x+=size/2;
80000d8e:	8041                	srli	s0,s0,0x10
C:\NucleiStudio_workspace\HBirdv2_Prj\fly_bird\Debug/../application/lcd.c:387
    while((*p<='~')&&(*p>=' '))//判断是不是非法字符!
80000d90:	02cae263          	bltu	s5,a2,80000db4 <LCD_ShowString+0x8c>
C:\NucleiStudio_workspace\HBirdv2_Prj\fly_bird\Debug/../application/lcd.c:391
        LCD_ShowChar(x,y,*p,size,0);
80000d94:	863e                	mv	a2,a5
80000d96:	4701                	li	a4,0
80000d98:	86e2                	mv	a3,s8
C:\NucleiStudio_workspace\HBirdv2_Prj\fly_bird\Debug/../application/lcd.c:393
        p++;
80000d9a:	0905                	addi	s2,s2,1
C:\NucleiStudio_workspace\HBirdv2_Prj\fly_bird\Debug/../application/lcd.c:389
        if(x>=width){x=x0;y+=size;}
80000d9c:	018487b3          	add	a5,s1,s8
80000da0:	01346663          	bltu	s0,s3,80000dac <LCD_ShowString+0x84>
C:\NucleiStudio_workspace\HBirdv2_Prj\fly_bird\Debug/../application/lcd.c:389 (discriminator 1)
80000da4:	01079493          	slli	s1,a5,0x10
80000da8:	845e                	mv	s0,s7
80000daa:	80c1                	srli	s1,s1,0x10
C:\NucleiStudio_workspace\HBirdv2_Prj\fly_bird\Debug/../application/lcd.c:391
        LCD_ShowChar(x,y,*p,size,0);
80000dac:	8522                	mv	a0,s0
80000dae:	85a6                	mv	a1,s1
C:\NucleiStudio_workspace\HBirdv2_Prj\fly_bird\Debug/../application/lcd.c:390
        if(y>=height)break;//退出
80000db0:	fd44e6e3          	bltu	s1,s4,80000d7c <LCD_ShowString+0x54>
C:\NucleiStudio_workspace\HBirdv2_Prj\fly_bird\Debug/../application/lcd.c:395
    }  
}
80000db4:	50b2                	lw	ra,44(sp)
80000db6:	5422                	lw	s0,40(sp)
80000db8:	5492                	lw	s1,36(sp)
80000dba:	5902                	lw	s2,32(sp)
80000dbc:	49f2                	lw	s3,28(sp)
80000dbe:	4a62                	lw	s4,24(sp)
80000dc0:	4ad2                	lw	s5,20(sp)
80000dc2:	4b42                	lw	s6,16(sp)
80000dc4:	4bb2                	lw	s7,12(sp)
80000dc6:	4c22                	lw	s8,8(sp)
80000dc8:	6145                	addi	sp,sp,48
80000dca:	8082                	ret

80000dcc <plic_btn_handler>:
plic_btn_handler():
C:\NucleiStudio_workspace\HBirdv2_Prj\fly_bird\Debug/../application/main.c:65
    __enable_irq();												//全局中断开始

}

void plic_btn_handler(void)
{
80000dcc:	1141                	addi	sp,sp,-16
C:\NucleiStudio_workspace\HBirdv2_Prj\fly_bird\Debug/../application/main.c:67
    int mask;
    mask = gpio_clear_interrupt(GPIOA);	//清楚中断标志，并返回中断值
80000dce:	10012537          	lui	a0,0x10012
C:\NucleiStudio_workspace\HBirdv2_Prj\fly_bird\Debug/../application/main.c:65
{
80000dd2:	c606                	sw	ra,12(sp)
C:\NucleiStudio_workspace\HBirdv2_Prj\fly_bird\Debug/../application/main.c:67
    mask = gpio_clear_interrupt(GPIOA);	//清楚中断标志，并返回中断值
80000dd4:	d04ff0ef          	jal	ra,800002d8 <gpio_clear_interrupt>
C:\NucleiStudio_workspace\HBirdv2_Prj\fly_bird\Debug/../application/main.c:69

    if(mask==RCV_UP)	//红外按键:上
80000dd8:	47c1                	li	a5,16
80000dda:	04f50363          	beq	a0,a5,80000e20 <plic_btn_handler+0x54>
C:\NucleiStudio_workspace\HBirdv2_Prj\fly_bird\Debug/../application/main.c:73
    {
    	key_data=1;
    }
    else if (mask==RCV_DOWN)	//红外按键:下
80000dde:	02000793          	li	a5,32
80000de2:	02f50963          	beq	a0,a5,80000e14 <plic_btn_handler+0x48>
C:\NucleiStudio_workspace\HBirdv2_Prj\fly_bird\Debug/../application/main.c:77
    {
    	key_data=2;
    }
    else if(mask==RCV_LEFT)		//红外按键:左
80000de6:	04000793          	li	a5,64
80000dea:	04f50563          	beq	a0,a5,80000e34 <plic_btn_handler+0x68>
C:\NucleiStudio_workspace\HBirdv2_Prj\fly_bird\Debug/../application/main.c:81
    {
    	key_data=3;
    }
    else if(mask==RCV_RIGHT)	//红外按键:右
80000dee:	08000793          	li	a5,128
80000df2:	02f50d63          	beq	a0,a5,80000e2c <plic_btn_handler+0x60>
C:\NucleiStudio_workspace\HBirdv2_Prj\fly_bird\Debug/../application/main.c:85
    {
		key_data=4;
    }
	else if(mask==RCV_PLAY)			//红外按键:开始
80000df6:	4791                	li	a5,4
80000df8:	04f50463          	beq	a0,a5,80000e40 <plic_btn_handler+0x74>
C:\NucleiStudio_workspace\HBirdv2_Prj\fly_bird\Debug/../application/main.c:90
	{
		//printf("5\n");
		key_data=5;
	}
	else if(mask==RCV_BACK)			//红外按键:返回
80000dfc:	47a1                	li	a5,8
80000dfe:	04f50563          	beq	a0,a5,80000e48 <plic_btn_handler+0x7c>
C:\NucleiStudio_workspace\HBirdv2_Prj\fly_bird\Debug/../application/main.c:95
	{
		//switch_game();
		key_data=6;
	}
	else if(mask==RCV_VOlP)			//音量+
80000e02:	4705                	li	a4,1
80000e04:	04e50663          	beq	a0,a4,80000e50 <plic_btn_handler+0x84>
C:\NucleiStudio_workspace\HBirdv2_Prj\fly_bird\Debug/../application/main.c:101
	{
		//printf("7\n");
		key_data=7;

	}
	else if(mask==RCV_VOlN)			//音量-
80000e08:	4709                	li	a4,2
80000e0a:	00e51863          	bne	a0,a4,80000e1a <plic_btn_handler+0x4e>
C:\NucleiStudio_workspace\HBirdv2_Prj\fly_bird\Debug/../application/main.c:104
	{
		//printf("8\n");
		key_data=8;
80000e0e:	82f18623          	sb	a5,-2004(gp) # 9000008c <key_data>
C:\NucleiStudio_workspace\HBirdv2_Prj\fly_bird\Debug/../application/main.c:106
	}
}
80000e12:	a021                	j	80000e1a <plic_btn_handler+0x4e>
C:\NucleiStudio_workspace\HBirdv2_Prj\fly_bird\Debug/../application/main.c:75
    	key_data=2;
80000e14:	4789                	li	a5,2
80000e16:	82f18623          	sb	a5,-2004(gp) # 9000008c <key_data>
C:\NucleiStudio_workspace\HBirdv2_Prj\fly_bird\Debug/../application/main.c:106
}
80000e1a:	40b2                	lw	ra,12(sp)
80000e1c:	0141                	addi	sp,sp,16
80000e1e:	8082                	ret
80000e20:	40b2                	lw	ra,12(sp)
C:\NucleiStudio_workspace\HBirdv2_Prj\fly_bird\Debug/../application/main.c:71
    	key_data=1;
80000e22:	4785                	li	a5,1
80000e24:	82f18623          	sb	a5,-2004(gp) # 9000008c <key_data>
C:\NucleiStudio_workspace\HBirdv2_Prj\fly_bird\Debug/../application/main.c:106
}
80000e28:	0141                	addi	sp,sp,16
80000e2a:	8082                	ret
C:\NucleiStudio_workspace\HBirdv2_Prj\fly_bird\Debug/../application/main.c:83
		key_data=4;
80000e2c:	4791                	li	a5,4
80000e2e:	82f18623          	sb	a5,-2004(gp) # 9000008c <key_data>
80000e32:	b7e5                	j	80000e1a <plic_btn_handler+0x4e>
C:\NucleiStudio_workspace\HBirdv2_Prj\fly_bird\Debug/../application/main.c:106
}
80000e34:	40b2                	lw	ra,12(sp)
C:\NucleiStudio_workspace\HBirdv2_Prj\fly_bird\Debug/../application/main.c:79
    	key_data=3;
80000e36:	478d                	li	a5,3
80000e38:	82f18623          	sb	a5,-2004(gp) # 9000008c <key_data>
C:\NucleiStudio_workspace\HBirdv2_Prj\fly_bird\Debug/../application/main.c:106
}
80000e3c:	0141                	addi	sp,sp,16
80000e3e:	8082                	ret
C:\NucleiStudio_workspace\HBirdv2_Prj\fly_bird\Debug/../application/main.c:88
		key_data=5;
80000e40:	4795                	li	a5,5
80000e42:	82f18623          	sb	a5,-2004(gp) # 9000008c <key_data>
80000e46:	bfd1                	j	80000e1a <plic_btn_handler+0x4e>
C:\NucleiStudio_workspace\HBirdv2_Prj\fly_bird\Debug/../application/main.c:93
		key_data=6;
80000e48:	4799                	li	a5,6
80000e4a:	82f18623          	sb	a5,-2004(gp) # 9000008c <key_data>
80000e4e:	b7f1                	j	80000e1a <plic_btn_handler+0x4e>
C:\NucleiStudio_workspace\HBirdv2_Prj\fly_bird\Debug/../application/main.c:98
		key_data=7;
80000e50:	479d                	li	a5,7
80000e52:	82f18623          	sb	a5,-2004(gp) # 9000008c <key_data>
80000e56:	b7d1                	j	80000e1a <plic_btn_handler+0x4e>

80000e58 <plic_init>:
plic_init():
C:\NucleiStudio_workspace\HBirdv2_Prj\fly_bird\Debug/../application/main.c:55
{
80000e58:	1141                	addi	sp,sp,-16
C:\NucleiStudio_workspace\HBirdv2_Prj\fly_bird\Debug/../application/main.c:57
    gpio_enable_input(GPIOA, mask);
80000e5a:	0ff00593          	li	a1,255
80000e5e:	10012537          	lui	a0,0x10012
C:\NucleiStudio_workspace\HBirdv2_Prj\fly_bird\Debug/../application/main.c:55
{
80000e62:	c606                	sw	ra,12(sp)
C:\NucleiStudio_workspace\HBirdv2_Prj\fly_bird\Debug/../application/main.c:57
    gpio_enable_input(GPIOA, mask);
80000e64:	beeff0ef          	jal	ra,80000252 <gpio_enable_input>
C:\NucleiStudio_workspace\HBirdv2_Prj\fly_bird\Debug/../application/main.c:58
    gpio_enable_interrupt(GPIOA, mask, GPIO_INT_RISE);			//使能中断
80000e68:	4601                	li	a2,0
80000e6a:	0ff00593          	li	a1,255
80000e6e:	10012537          	lui	a0,0x10012
80000e72:	bf6ff0ef          	jal	ra,80000268 <gpio_enable_interrupt>
C:\NucleiStudio_workspace\HBirdv2_Prj\fly_bird\Debug/../application/main.c:59
    PLIC_Register_IRQ(PLIC_GPIOA_IRQn, 1, plic_btn_handler);	//注册中断发生的处理函数
80000e76:	00000617          	auipc	a2,0x0
80000e7a:	f5660613          	addi	a2,a2,-170 # 80000dcc <plic_btn_handler>
80000e7e:	4585                	li	a1,1
80000e80:	453d                	li	a0,15
80000e82:	e6aff0ef          	jal	ra,800004ec <PLIC_Register_IRQ>
__enable_irq():
C:\NucleiStudio_workspace\HBirdv2_Prj\fly_bird\hbird_sdk\NMSIS\Core\Include/core_feature_base.h:355
    __RV_CSR_SET(CSR_MSTATUS, MSTATUS_MIE);
80000e86:	30046073          	csrsi	mstatus,8
plic_init():
C:\NucleiStudio_workspace\HBirdv2_Prj\fly_bird\Debug/../application/main.c:62
}
80000e8a:	40b2                	lw	ra,12(sp)
80000e8c:	0141                	addi	sp,sp,16
80000e8e:	8082                	ret

80000e90 <bird_move>:
SysTimer_GetLoadValue():
C:\NucleiStudio_workspace\HBirdv2_Prj\fly_bird\hbird_sdk\NMSIS\Core\Include/core_feature_timer.h:106
80000e90:	0200c7b7          	lui	a5,0x200c
80000e94:	ff87ae03          	lw	t3,-8(a5) # 200bff8 <__stack_size+0x200b7f8>
80000e98:	ffc7ae83          	lw	t4,-4(a5)
bird_move():
C:\NucleiStudio_workspace\HBirdv2_Prj\fly_bird\Debug/../application/system.c:162

}

//计算鸟移动位置
static void bird_move(void)
{
80000e9c:	1101                	addi	sp,sp,-32
SysTimer_GetLoadValue():
C:\NucleiStudio_workspace\HBirdv2_Prj\fly_bird\hbird_sdk\NMSIS\Core\Include/core_feature_timer.h:106
80000e9e:	ff87a303          	lw	t1,-8(a5)
80000ea2:	ffc7a383          	lw	t2,-4(a5)
bird_move():
C:\NucleiStudio_workspace\HBirdv2_Prj\fly_bird\Debug/../application/system.c:162
80000ea6:	cc22                	sw	s0,24(sp)
C:\NucleiStudio_workspace\HBirdv2_Prj\fly_bird\Debug/../application/system.c:163
	bird.t1=SysTimer_GetLoadValue()/32-bird.t0;
80000ea8:	8f818413          	addi	s0,gp,-1800 # 90000158 <bird>
80000eac:	01be9793          	slli	a5,t4,0x1b
80000eb0:	005e5713          	srli	a4,t3,0x5
C:\NucleiStudio_workspace\HBirdv2_Prj\fly_bird\Debug/../application/system.c:162
{
80000eb4:	c64e                	sw	s3,12(sp)
C:\NucleiStudio_workspace\HBirdv2_Prj\fly_bird\Debug/../application/system.c:163
	bird.t1=SysTimer_GetLoadValue()/32-bird.t0;
80000eb6:	4808                	lw	a0,16(s0)
C:\NucleiStudio_workspace\HBirdv2_Prj\fly_bird\Debug/../application/system.c:164
	bird.t3=SysTimer_GetLoadValue()/32-bird.t2;//翅膀
80000eb8:	02042983          	lw	s3,32(s0)
80000ebc:	01b39593          	slli	a1,t2,0x1b
C:\NucleiStudio_workspace\HBirdv2_Prj\fly_bird\Debug/../application/system.c:163
	bird.t1=SysTimer_GetLoadValue()/32-bird.t0;
80000ec0:	01442803          	lw	a6,20(s0)
C:\NucleiStudio_workspace\HBirdv2_Prj\fly_bird\Debug/../application/system.c:164
	bird.t3=SysTimer_GetLoadValue()/32-bird.t2;//翅膀
80000ec4:	5050                	lw	a2,36(s0)
C:\NucleiStudio_workspace\HBirdv2_Prj\fly_bird\Debug/../application/system.c:163
	bird.t1=SysTimer_GetLoadValue()/32-bird.t0;
80000ec6:	8f5d                	or	a4,a4,a5
C:\NucleiStudio_workspace\HBirdv2_Prj\fly_bird\Debug/../application/system.c:164
	bird.t3=SysTimer_GetLoadValue()/32-bird.t2;//翅膀
80000ec8:	00535793          	srli	a5,t1,0x5
80000ecc:	8fcd                	or	a5,a5,a1
C:\NucleiStudio_workspace\HBirdv2_Prj\fly_bird\Debug/../application/system.c:163
	bird.t1=SysTimer_GetLoadValue()/32-bird.t0;
80000ece:	40a70533          	sub	a0,a4,a0
80000ed2:	005ed593          	srli	a1,t4,0x5
C:\NucleiStudio_workspace\HBirdv2_Prj\fly_bird\Debug/../application/system.c:162
{
80000ed6:	ca26                	sw	s1,20(sp)
C:\NucleiStudio_workspace\HBirdv2_Prj\fly_bird\Debug/../application/system.c:164
	bird.t3=SysTimer_GetLoadValue()/32-bird.t2;//翅膀
80000ed8:	413789b3          	sub	s3,a5,s3
80000edc:	0053d493          	srli	s1,t2,0x5
80000ee0:	0137b7b3          	sltu	a5,a5,s3
C:\NucleiStudio_workspace\HBirdv2_Prj\fly_bird\Debug/../application/system.c:163
	bird.t1=SysTimer_GetLoadValue()/32-bird.t0;
80000ee4:	00a73733          	sltu	a4,a4,a0
80000ee8:	410585b3          	sub	a1,a1,a6
C:\NucleiStudio_workspace\HBirdv2_Prj\fly_bird\Debug/../application/system.c:164
	bird.t3=SysTimer_GetLoadValue()/32-bird.t2;//翅膀
80000eec:	8c91                	sub	s1,s1,a2
C:\NucleiStudio_workspace\HBirdv2_Prj\fly_bird\Debug/../application/system.c:163
	bird.t1=SysTimer_GetLoadValue()/32-bird.t0;
80000eee:	8d99                	sub	a1,a1,a4
C:\NucleiStudio_workspace\HBirdv2_Prj\fly_bird\Debug/../application/system.c:164
	bird.t3=SysTimer_GetLoadValue()/32-bird.t2;//翅膀
80000ef0:	8c9d                	sub	s1,s1,a5
C:\NucleiStudio_workspace\HBirdv2_Prj\fly_bird\Debug/../application/system.c:162
{
80000ef2:	ce06                	sw	ra,28(sp)
C:\NucleiStudio_workspace\HBirdv2_Prj\fly_bird\Debug/../application/system.c:163
	bird.t1=SysTimer_GetLoadValue()/32-bird.t0;
80000ef4:	cc4c                	sw	a1,28(s0)
C:\NucleiStudio_workspace\HBirdv2_Prj\fly_bird\Debug/../application/system.c:162
{
80000ef6:	c84a                	sw	s2,16(sp)
80000ef8:	c452                	sw	s4,8(sp)
C:\NucleiStudio_workspace\HBirdv2_Prj\fly_bird\Debug/../application/system.c:163
	bird.t1=SysTimer_GetLoadValue()/32-bird.t0;
80000efa:	cc08                	sw	a0,24(s0)
C:\NucleiStudio_workspace\HBirdv2_Prj\fly_bird\Debug/../application/system.c:164
	bird.t3=SysTimer_GetLoadValue()/32-bird.t2;//翅膀
80000efc:	03342423          	sw	s3,40(s0)
80000f00:	d444                	sw	s1,44(s0)
C:\NucleiStudio_workspace\HBirdv2_Prj\fly_bird\Debug/../application/system.c:165
	bird.y1=(int)(bird.y0-(bird.v0*bird.t1)+(bird.a*bird.t1*bird.t1));
80000f02:	607010ef          	jal	ra,80002d08 <__floatundisf>
80000f06:	892a                	mv	s2,a0
80000f08:	4048                	lw	a0,4(s0)
80000f0a:	545010ef          	jal	ra,80002c4e <__floatsisf>
80000f0e:	584c                	lw	a1,52(s0)
80000f10:	8a2a                	mv	s4,a0
80000f12:	854a                	mv	a0,s2
80000f14:	788010ef          	jal	ra,8000269c <__mulsf3>
80000f18:	85aa                	mv	a1,a0
80000f1a:	8552                	mv	a0,s4
80000f1c:	1a1010ef          	jal	ra,800028bc <__subsf3>
80000f20:	5c0c                	lw	a1,56(s0)
80000f22:	8a2a                	mv	s4,a0
80000f24:	854a                	mv	a0,s2
80000f26:	776010ef          	jal	ra,8000269c <__mulsf3>
80000f2a:	85ca                	mv	a1,s2
80000f2c:	770010ef          	jal	ra,8000269c <__mulsf3>
80000f30:	85aa                	mv	a1,a0
80000f32:	8552                	mv	a0,s4
80000f34:	442010ef          	jal	ra,80002376 <__addsf3>
80000f38:	4b7010ef          	jal	ra,80002bee <__fixsfsi>
80000f3c:	c408                	sw	a0,8(s0)
C:\NucleiStudio_workspace\HBirdv2_Prj\fly_bird\Debug/../application/system.c:176
	}else if(bird.y1>239)
	{
		bird.y1=239;
	}
	*/
	if(bird.y1<bird_crash_y1)
80000f3e:	47f9                	li	a5,30
80000f40:	04a7c863          	blt	a5,a0,80000f90 <bird_move+0x100>
C:\NucleiStudio_workspace\HBirdv2_Prj\fly_bird\Debug/../application/system.c:178
	{
		bird.y1=bird_crash_y1;
80000f44:	47fd                	li	a5,31
80000f46:	c41c                	sw	a5,8(s0)
C:\NucleiStudio_workspace\HBirdv2_Prj\fly_bird\Debug/../application/system.c:185
	{
		bird.y1=bird_crash_y2-bird.h;
	}

	//翅膀时间
	if(bird.t3>50)
80000f48:	e489                	bnez	s1,80000f52 <bird_move+0xc2>
80000f4a:	03200793          	li	a5,50
80000f4e:	0337f963          	bgeu	a5,s3,80000f80 <bird_move+0xf0>
C:\NucleiStudio_workspace\HBirdv2_Prj\fly_bird\Debug/../application/system.c:187
	{
		if(bird.f==3)bird.f=0;
80000f52:	5818                	lw	a4,48(s0)
80000f54:	468d                	li	a3,3
80000f56:	4781                	li	a5,0
80000f58:	00d70463          	beq	a4,a3,80000f60 <bird_move+0xd0>
C:\NucleiStudio_workspace\HBirdv2_Prj\fly_bird\Debug/../application/system.c:188
		else bird.f++;
80000f5c:	00170793          	addi	a5,a4,1
SysTimer_GetLoadValue():
C:\NucleiStudio_workspace\HBirdv2_Prj\fly_bird\hbird_sdk\NMSIS\Core\Include/core_feature_timer.h:106
80000f60:	0200c737          	lui	a4,0x200c
80000f64:	ff872603          	lw	a2,-8(a4) # 200bff8 <__stack_size+0x200b7f8>
80000f68:	ffc72683          	lw	a3,-4(a4)
80000f6c:	d81c                	sw	a5,48(s0)
bird_move():
C:\NucleiStudio_workspace\HBirdv2_Prj\fly_bird\Debug/../application/system.c:189
		bird.t2=SysTimer_GetLoadValue()/32; //更新初时间
80000f6e:	00565793          	srli	a5,a2,0x5
80000f72:	01b69713          	slli	a4,a3,0x1b
80000f76:	8fd9                	or	a5,a5,a4
80000f78:	0056d713          	srli	a4,a3,0x5
80000f7c:	d01c                	sw	a5,32(s0)
80000f7e:	d058                	sw	a4,36(s0)
C:\NucleiStudio_workspace\HBirdv2_Prj\fly_bird\Debug/../application/system.c:191
	}
}
80000f80:	40f2                	lw	ra,28(sp)
80000f82:	4462                	lw	s0,24(sp)
80000f84:	44d2                	lw	s1,20(sp)
80000f86:	4942                	lw	s2,16(sp)
80000f88:	49b2                	lw	s3,12(sp)
80000f8a:	4a22                	lw	s4,8(sp)
80000f8c:	6105                	addi	sp,sp,32
80000f8e:	8082                	ret
C:\NucleiStudio_workspace\HBirdv2_Prj\fly_bird\Debug/../application/system.c:179
	}else if(bird.y1>bird_crash_y2-bird.h)
80000f90:	00c44703          	lbu	a4,12(s0)
80000f94:	1ad00793          	li	a5,429
80000f98:	8f99                	sub	a5,a5,a4
80000f9a:	faa7d7e3          	bge	a5,a0,80000f48 <bird_move+0xb8>
C:\NucleiStudio_workspace\HBirdv2_Prj\fly_bird\Debug/../application/system.c:181
		bird.y1=bird_crash_y2-bird.h;
80000f9e:	c41c                	sw	a5,8(s0)
80000fa0:	b765                	j	80000f48 <bird_move+0xb8>

80000fa2 <bird_crash>:
bird_crash():
C:\NucleiStudio_workspace\HBirdv2_Prj\fly_bird\Debug/../application/system.c:255

//判断碰撞
static void bird_crash(void)
{
	
	if((bird.y1)<=bird_crash_y1||bird.y1>=bird_crash_y2-bird.h)//鸟碰地
80000fa2:	8f818793          	addi	a5,gp,-1800 # 90000158 <bird>
80000fa6:	4788                	lw	a0,8(a5)
80000fa8:	477d                	li	a4,31
80000faa:	08a75963          	bge	a4,a0,8000103c <bird_crash+0x9a>
C:\NucleiStudio_workspace\HBirdv2_Prj\fly_bird\Debug/../application/system.c:255 (discriminator 1)
80000fae:	00c7c683          	lbu	a3,12(a5)
80000fb2:	1ad00713          	li	a4,429
80000fb6:	8f15                	sub	a4,a4,a3
80000fb8:	08e55263          	bge	a0,a4,8000103c <bird_crash+0x9a>
C:\NucleiStudio_workspace\HBirdv2_Prj\fly_bird\Debug/../application/system.c:260
	{
		_game_bird_conf.mode=3;//游戏结束
	}
	
	if((pillar1.x1-bird.x0)>=-pillar1.w+5&&(pillar1.x1-bird.x0)<=bird.w-5)//鸟碰柱1
80000fbc:	98818593          	addi	a1,gp,-1656 # 900001e8 <pillar1>
80000fc0:	4390                	lw	a2,0(a5)
80000fc2:	41d4                	lw	a3,4(a1)
80000fc4:	00a59803          	lh	a6,10(a1)
80000fc8:	4715                	li	a4,5
80000fca:	8e91                	sub	a3,a3,a2
80000fcc:	41070733          	sub	a4,a4,a6
80000fd0:	00e6c763          	blt	a3,a4,80000fde <bird_crash+0x3c>
C:\NucleiStudio_workspace\HBirdv2_Prj\fly_bird\Debug/../application/system.c:260 (discriminator 1)
80000fd4:	00d7c703          	lbu	a4,13(a5)
80000fd8:	1771                	addi	a4,a4,-4
80000fda:	08e6c463          	blt	a3,a4,80001062 <bird_crash+0xc0>
C:\NucleiStudio_workspace\HBirdv2_Prj\fly_bird\Debug/../application/system.c:273
		if((game_show_height-bird.y1-pillar1.h)<=bird.h||(game_show_height-bird.y1-pillar1.h)>=pillar1.j)
			{
				_game_bird_conf.mode=3;//游戏结束
			}
		}
	if((pillar2.x1-bird.x0)>=-pillar2.w+5&&(pillar2.x1-bird.x0)<=bird.w-5)//鸟碰柱2
80000fde:	9d818593          	addi	a1,gp,-1576 # 90000238 <pillar2>
80000fe2:	41d4                	lw	a3,4(a1)
80000fe4:	00a59803          	lh	a6,10(a1)
80000fe8:	4715                	li	a4,5
80000fea:	8e91                	sub	a3,a3,a2
80000fec:	41070733          	sub	a4,a4,a6
80000ff0:	00e6c763          	blt	a3,a4,80000ffe <bird_crash+0x5c>
C:\NucleiStudio_workspace\HBirdv2_Prj\fly_bird\Debug/../application/system.c:273 (discriminator 1)
80000ff4:	00d7c703          	lbu	a4,13(a5)
80000ff8:	1771                	addi	a4,a4,-4
80000ffa:	04e6c563          	blt	a3,a4,80001044 <bird_crash+0xa2>
C:\NucleiStudio_workspace\HBirdv2_Prj\fly_bird\Debug/../application/system.c:286
		if((game_show_height-bird.y1-pillar2.h)<=bird.h||(game_show_height-bird.y1-pillar2.h)>=pillar2.j)
		{
			_game_bird_conf.mode=3;//游戏结束
		}
	}
	if((pillar3.x1-bird.x0)>=-pillar3.w+5&&(pillar3.x1-bird.x0)<=bird.w-5)//鸟碰柱3
80000ffe:	a2818593          	addi	a1,gp,-1496 # 90000288 <pillar3>
80001002:	41d8                	lw	a4,4(a1)
80001004:	00a59803          	lh	a6,10(a1)
80001008:	4695                	li	a3,5
8000100a:	8f11                	sub	a4,a4,a2
8000100c:	410686b3          	sub	a3,a3,a6
80001010:	02d74563          	blt	a4,a3,8000103a <bird_crash+0x98>
C:\NucleiStudio_workspace\HBirdv2_Prj\fly_bird\Debug/../application/system.c:286 (discriminator 1)
80001014:	00d7c683          	lbu	a3,13(a5)
80001018:	16f1                	addi	a3,a3,-4
8000101a:	02d75063          	bge	a4,a3,8000103a <bird_crash+0x98>
C:\NucleiStudio_workspace\HBirdv2_Prj\fly_bird\Debug/../application/system.c:288
	{
		if((game_show_height-bird.y1-pillar3.h)<=bird.h||(game_show_height-bird.y1-pillar3.h)>=pillar3.j)
8000101e:	00859683          	lh	a3,8(a1)
80001022:	00c7c703          	lbu	a4,12(a5)
80001026:	1ae00793          	li	a5,430
8000102a:	40a78533          	sub	a0,a5,a0
8000102e:	8d15                	sub	a0,a0,a3
80001030:	06a74263          	blt	a4,a0,80001094 <bird_crash+0xf2>
C:\NucleiStudio_workspace\HBirdv2_Prj\fly_bird\Debug/../application/system.c:290
		{
			_game_bird_conf.mode=3;//游戏结束
80001034:	478d                	li	a5,3
80001036:	8cf18c23          	sb	a5,-1832(gp) # 90000138 <_game_bird_conf>
C:\NucleiStudio_workspace\HBirdv2_Prj\fly_bird\Debug/../application/system.c:293
		}
	}
}
8000103a:	8082                	ret
C:\NucleiStudio_workspace\HBirdv2_Prj\fly_bird\Debug/../application/system.c:257
		_game_bird_conf.mode=3;//游戏结束
8000103c:	470d                	li	a4,3
8000103e:	8ce18c23          	sb	a4,-1832(gp) # 90000138 <_game_bird_conf>
80001042:	bfad                	j	80000fbc <bird_crash+0x1a>
C:\NucleiStudio_workspace\HBirdv2_Prj\fly_bird\Debug/../application/system.c:281
		if((game_show_height-bird.y1-pillar2.h)<=bird.h||(game_show_height-bird.y1-pillar2.h)>=pillar2.j)
80001044:	00859803          	lh	a6,8(a1)
80001048:	1ae00713          	li	a4,430
8000104c:	00c7c683          	lbu	a3,12(a5)
80001050:	8f09                	sub	a4,a4,a0
80001052:	41070733          	sub	a4,a4,a6
80001056:	02e6ca63          	blt	a3,a4,8000108a <bird_crash+0xe8>
C:\NucleiStudio_workspace\HBirdv2_Prj\fly_bird\Debug/../application/system.c:283
			_game_bird_conf.mode=3;//游戏结束
8000105a:	470d                	li	a4,3
8000105c:	8ce18c23          	sb	a4,-1832(gp) # 90000138 <_game_bird_conf>
80001060:	bf79                	j	80000ffe <bird_crash+0x5c>
C:\NucleiStudio_workspace\HBirdv2_Prj\fly_bird\Debug/../application/system.c:268
		if((game_show_height-bird.y1-pillar1.h)<=bird.h||(game_show_height-bird.y1-pillar1.h)>=pillar1.j)
80001062:	00859803          	lh	a6,8(a1)
80001066:	1ae00713          	li	a4,430
8000106a:	00c7c683          	lbu	a3,12(a5)
8000106e:	8f09                	sub	a4,a4,a0
80001070:	41070733          	sub	a4,a4,a6
80001074:	00e6c663          	blt	a3,a4,80001080 <bird_crash+0xde>
C:\NucleiStudio_workspace\HBirdv2_Prj\fly_bird\Debug/../application/system.c:270
				_game_bird_conf.mode=3;//游戏结束
80001078:	470d                	li	a4,3
8000107a:	8ce18c23          	sb	a4,-1832(gp) # 90000138 <_game_bird_conf>
8000107e:	b785                	j	80000fde <bird_crash+0x3c>
C:\NucleiStudio_workspace\HBirdv2_Prj\fly_bird\Debug/../application/system.c:268 (discriminator 1)
		if((game_show_height-bird.y1-pillar1.h)<=bird.h||(game_show_height-bird.y1-pillar1.h)>=pillar1.j)
80001080:	00c59683          	lh	a3,12(a1)
80001084:	f4d74de3          	blt	a4,a3,80000fde <bird_crash+0x3c>
80001088:	bfc5                	j	80001078 <bird_crash+0xd6>
C:\NucleiStudio_workspace\HBirdv2_Prj\fly_bird\Debug/../application/system.c:281 (discriminator 1)
		if((game_show_height-bird.y1-pillar2.h)<=bird.h||(game_show_height-bird.y1-pillar2.h)>=pillar2.j)
8000108a:	00c59683          	lh	a3,12(a1)
8000108e:	f6d748e3          	blt	a4,a3,80000ffe <bird_crash+0x5c>
80001092:	b7e1                	j	8000105a <bird_crash+0xb8>
C:\NucleiStudio_workspace\HBirdv2_Prj\fly_bird\Debug/../application/system.c:288 (discriminator 1)
		if((game_show_height-bird.y1-pillar3.h)<=bird.h||(game_show_height-bird.y1-pillar3.h)>=pillar3.j)
80001094:	00c59783          	lh	a5,12(a1)
80001098:	faf541e3          	blt	a0,a5,8000103a <bird_crash+0x98>
8000109c:	bf61                	j	80001034 <bird_crash+0x92>

8000109e <draw_pillar>:
draw_pillar():
C:\NucleiStudio_workspace\HBirdv2_Prj\fly_bird\Debug/../application/system.c:418
		uint16_t pillar_ico1[18]={0X0000,0XFF91,0XFF91,0XAE91,0XAE91,0X354C,0XAE91,0X354C,0X354C,0X354C,0X354C,
															0X354C,0X354C,0X354C,0X2D22,0X354C,0X0C85,0X0000};
		uint16_t pillar_ico2[14]={0X0000,0XFF91,0XFF91,0XAE91,0XAE91,0X354C,0XAE91,0X354C,0X354C,0X354C,0X2D22,0X354C,0X0C85,0X0000};

		//LCD_Fill(pillar->x1,240-pillar->h-30,36,1,0X0000);
		LCD_Fill(pillar->x1,game_show_height-pillar->h,36,1,0X0000);
8000109e:	00855703          	lhu	a4,8(a0) # 10012008 <__stack_size+0x10011808>
800010a2:	1ae00793          	li	a5,430
C:\NucleiStudio_workspace\HBirdv2_Prj\fly_bird\Debug/../application/system.c:410
{
800010a6:	715d                	addi	sp,sp,-80
C:\NucleiStudio_workspace\HBirdv2_Prj\fly_bird\Debug/../application/system.c:418
		LCD_Fill(pillar->x1,game_show_height-pillar->h,36,1,0X0000);
800010a8:	8f99                	sub	a5,a5,a4
C:\NucleiStudio_workspace\HBirdv2_Prj\fly_bird\Debug/../application/system.c:410
{
800010aa:	c4a2                	sw	s0,72(sp)
C:\NucleiStudio_workspace\HBirdv2_Prj\fly_bird\Debug/../application/system.c:418
		LCD_Fill(pillar->x1,game_show_height-pillar->h,36,1,0X0000);
800010ac:	07c2                	slli	a5,a5,0x10
C:\NucleiStudio_workspace\HBirdv2_Prj\fly_bird\Debug/../application/system.c:410
{
800010ae:	c686                	sw	ra,76(sp)
800010b0:	c2a6                	sw	s1,68(sp)
800010b2:	c0ca                	sw	s2,64(sp)
800010b4:	de4e                	sw	s3,60(sp)
800010b6:	dc52                	sw	s4,56(sp)
800010b8:	da56                	sw	s5,52(sp)
C:\NucleiStudio_workspace\HBirdv2_Prj\fly_bird\Debug/../application/system.c:411
	if(mode==1)
800010ba:	4705                	li	a4,1
C:\NucleiStudio_workspace\HBirdv2_Prj\fly_bird\Debug/../application/system.c:410
{
800010bc:	842a                	mv	s0,a0
C:\NucleiStudio_workspace\HBirdv2_Prj\fly_bird\Debug/../application/system.c:418
		LCD_Fill(pillar->x1,game_show_height-pillar->h,36,1,0X0000);
800010be:	87c1                	srai	a5,a5,0x10
800010c0:	00451503          	lh	a0,4(a0)
C:\NucleiStudio_workspace\HBirdv2_Prj\fly_bird\Debug/../application/system.c:411
	if(mode==1)
800010c4:	08e58e63          	beq	a1,a4,80001160 <draw_pillar+0xc2>
C:\NucleiStudio_workspace\HBirdv2_Prj\fly_bird\Debug/../application/system.c:447

		
	}
	else
	{
		LCD_Fill(pillar->x1,game_show_height-pillar->h,36,10,BACK_COLOR);
800010c8:	80818493          	addi	s1,gp,-2040 # 90000068 <BACK_COLOR>
800010cc:	0004d703          	lhu	a4,0(s1)
800010d0:	85be                	mv	a1,a5
800010d2:	46a9                	li	a3,10
800010d4:	02400613          	li	a2,36
800010d8:	d78ff0ef          	jal	ra,80000650 <LCD_Fill>
C:\NucleiStudio_workspace\HBirdv2_Prj\fly_bird\Debug/../application/system.c:448
		LCD_Fill(pillar->x1+4-2,game_show_height-pillar->h+10,28+4,pillar->h-10,BACK_COLOR);
800010dc:	00845783          	lhu	a5,8(s0)
800010e0:	4048                	lw	a0,4(s0)
800010e2:	1b800593          	li	a1,440
800010e6:	0004d703          	lhu	a4,0(s1)
800010ea:	ff678693          	addi	a3,a5,-10
800010ee:	8d9d                	sub	a1,a1,a5
800010f0:	0509                	addi	a0,a0,2
800010f2:	06c2                	slli	a3,a3,0x10
800010f4:	05c2                	slli	a1,a1,0x10
800010f6:	0542                	slli	a0,a0,0x10
800010f8:	82c1                	srli	a3,a3,0x10
800010fa:	02000613          	li	a2,32
800010fe:	85c1                	srai	a1,a1,0x10
80001100:	8541                	srai	a0,a0,0x10
80001102:	d4eff0ef          	jal	ra,80000650 <LCD_Fill>
C:\NucleiStudio_workspace\HBirdv2_Prj\fly_bird\Debug/../application/system.c:451
		
		
		LCD_Fill(pillar->x1,game_show_height-pillar->h-pillar->j-10,36,10,BACK_COLOR);
80001106:	00845583          	lhu	a1,8(s0)
8000110a:	00c45783          	lhu	a5,12(s0)
8000110e:	0004d703          	lhu	a4,0(s1)
80001112:	00441503          	lh	a0,4(s0)
80001116:	97ae                	add	a5,a5,a1
80001118:	1a400593          	li	a1,420
8000111c:	8d9d                	sub	a1,a1,a5
8000111e:	05c2                	slli	a1,a1,0x10
80001120:	46a9                	li	a3,10
80001122:	02400613          	li	a2,36
80001126:	85c1                	srai	a1,a1,0x10
80001128:	d28ff0ef          	jal	ra,80000650 <LCD_Fill>
C:\NucleiStudio_workspace\HBirdv2_Prj\fly_bird\Debug/../application/system.c:452
		LCD_Fill(pillar->x1+4-2,30,28+4,290-pillar->h,BACK_COLOR);
8000112c:	00845783          	lhu	a5,8(s0)
80001130:	4048                	lw	a0,4(s0)
80001132:	12200693          	li	a3,290
C:\NucleiStudio_workspace\HBirdv2_Prj\fly_bird\Debug/../application/system.c:455
	}
	
}
80001136:	4426                	lw	s0,72(sp)
C:\NucleiStudio_workspace\HBirdv2_Prj\fly_bird\Debug/../application/system.c:452
		LCD_Fill(pillar->x1+4-2,30,28+4,290-pillar->h,BACK_COLOR);
80001138:	0004d703          	lhu	a4,0(s1)
C:\NucleiStudio_workspace\HBirdv2_Prj\fly_bird\Debug/../application/system.c:455
}
8000113c:	40b6                	lw	ra,76(sp)
8000113e:	4496                	lw	s1,68(sp)
80001140:	4906                	lw	s2,64(sp)
80001142:	59f2                	lw	s3,60(sp)
80001144:	5a62                	lw	s4,56(sp)
80001146:	5ad2                	lw	s5,52(sp)
C:\NucleiStudio_workspace\HBirdv2_Prj\fly_bird\Debug/../application/system.c:452
		LCD_Fill(pillar->x1+4-2,30,28+4,290-pillar->h,BACK_COLOR);
80001148:	8e9d                	sub	a3,a3,a5
8000114a:	0509                	addi	a0,a0,2
8000114c:	06c2                	slli	a3,a3,0x10
8000114e:	0542                	slli	a0,a0,0x10
80001150:	82c1                	srli	a3,a3,0x10
80001152:	02000613          	li	a2,32
80001156:	45f9                	li	a1,30
80001158:	8541                	srai	a0,a0,0x10
C:\NucleiStudio_workspace\HBirdv2_Prj\fly_bird\Debug/../application/system.c:455
}
8000115a:	6161                	addi	sp,sp,80
C:\NucleiStudio_workspace\HBirdv2_Prj\fly_bird\Debug/../application/system.c:452
		LCD_Fill(pillar->x1+4-2,30,28+4,290-pillar->h,BACK_COLOR);
8000115c:	cf4ff06f          	j	80000650 <LCD_Fill>
C:\NucleiStudio_workspace\HBirdv2_Prj\fly_bird\Debug/../application/system.c:413
		uint16_t pillar_ico1[18]={0X0000,0XFF91,0XFF91,0XAE91,0XAE91,0X354C,0XAE91,0X354C,0X354C,0X354C,0X354C,
80001160:	00005717          	auipc	a4,0x5
80001164:	af470713          	addi	a4,a4,-1292 # 80005c54 <asc2_2412+0xdb4>
80001168:	00072383          	lw	t2,0(a4)
8000116c:	00472283          	lw	t0,4(a4)
80001170:	00872f83          	lw	t6,8(a4)
80001174:	00c72f03          	lw	t5,12(a4)
80001178:	01072e83          	lw	t4,16(a4)
8000117c:	01472e03          	lw	t3,20(a4)
80001180:	01872303          	lw	t1,24(a4)
80001184:	01c72883          	lw	a7,28(a4)
80001188:	02072803          	lw	a6,32(a4)
C:\NucleiStudio_workspace\HBirdv2_Prj\fly_bird\Debug/../application/system.c:418
		LCD_Fill(pillar->x1,game_show_height-pillar->h,36,1,0X0000);
8000118c:	4685                	li	a3,1
8000118e:	4701                	li	a4,0
80001190:	02400613          	li	a2,36
80001194:	85be                	mv	a1,a5
80001196:	00c10913          	addi	s2,sp,12
C:\NucleiStudio_workspace\HBirdv2_Prj\fly_bird\Debug/../application/system.c:413
		uint16_t pillar_ico1[18]={0X0000,0XFF91,0XFF91,0XAE91,0XAE91,0X354C,0XAE91,0X354C,0X354C,0X354C,0X354C,
8000119a:	c61e                	sw	t2,12(sp)
8000119c:	c816                	sw	t0,16(sp)
8000119e:	ca7e                	sw	t6,20(sp)
800011a0:	cc7a                	sw	t5,24(sp)
800011a2:	ce76                	sw	t4,28(sp)
800011a4:	d072                	sw	t3,32(sp)
800011a6:	d21a                	sw	t1,36(sp)
800011a8:	d446                	sw	a7,40(sp)
800011aa:	d642                	sw	a6,44(sp)
C:\NucleiStudio_workspace\HBirdv2_Prj\fly_bird\Debug/../application/system.c:418
		LCD_Fill(pillar->x1,game_show_height-pillar->h,36,1,0X0000);
800011ac:	03010a13          	addi	s4,sp,48
800011b0:	ca0ff0ef          	jal	ra,80000650 <LCD_Fill>
800011b4:	89ca                	mv	s3,s2
800011b6:	4481                	li	s1,0
C:\NucleiStudio_workspace\HBirdv2_Prj\fly_bird\Debug/../application/system.c:422
			LCD_Fill(pillar->x1+j*2,game_show_height-pillar->h+1,2,8,pillar_ico1[j]);
800011b8:	1af00a93          	li	s5,431
C:\NucleiStudio_workspace\HBirdv2_Prj\fly_bird\Debug/../application/system.c:422 (discriminator 3)
800011bc:	00845583          	lhu	a1,8(s0)
800011c0:	4048                	lw	a0,4(s0)
800011c2:	0009d703          	lhu	a4,0(s3)
800011c6:	40ba85b3          	sub	a1,s5,a1
800011ca:	9526                	add	a0,a0,s1
800011cc:	05c2                	slli	a1,a1,0x10
800011ce:	0542                	slli	a0,a0,0x10
C:\NucleiStudio_workspace\HBirdv2_Prj\fly_bird\Debug/../application/system.c:419 (discriminator 3)
		for(char j=0;j<18;j++)
800011d0:	0489                	addi	s1,s1,2
C:\NucleiStudio_workspace\HBirdv2_Prj\fly_bird\Debug/../application/system.c:422 (discriminator 3)
			LCD_Fill(pillar->x1+j*2,game_show_height-pillar->h+1,2,8,pillar_ico1[j]);
800011d2:	46a1                	li	a3,8
800011d4:	4609                	li	a2,2
800011d6:	85c1                	srai	a1,a1,0x10
800011d8:	8541                	srai	a0,a0,0x10
C:\NucleiStudio_workspace\HBirdv2_Prj\fly_bird\Debug/../application/system.c:419 (discriminator 3)
		for(char j=0;j<18;j++)
800011da:	04c2                	slli	s1,s1,0x10
800011dc:	0989                	addi	s3,s3,2
C:\NucleiStudio_workspace\HBirdv2_Prj\fly_bird\Debug/../application/system.c:422 (discriminator 3)
			LCD_Fill(pillar->x1+j*2,game_show_height-pillar->h+1,2,8,pillar_ico1[j]);
800011de:	c72ff0ef          	jal	ra,80000650 <LCD_Fill>
C:\NucleiStudio_workspace\HBirdv2_Prj\fly_bird\Debug/../application/system.c:419 (discriminator 3)
		for(char j=0;j<18;j++)
800011e2:	80c1                	srli	s1,s1,0x10
800011e4:	fd3a1ce3          	bne	s4,s3,800011bc <draw_pillar+0x11e>
C:\NucleiStudio_workspace\HBirdv2_Prj\fly_bird\Debug/../application/system.c:425
		LCD_Fill(pillar->x1,game_show_height-pillar->h+9,36,1,0X0000);
800011e8:	00845783          	lhu	a5,8(s0)
800011ec:	1b700593          	li	a1,439
800011f0:	00441503          	lh	a0,4(s0)
800011f4:	8d9d                	sub	a1,a1,a5
800011f6:	05c2                	slli	a1,a1,0x10
800011f8:	4701                	li	a4,0
800011fa:	4685                	li	a3,1
800011fc:	02400613          	li	a2,36
80001200:	85c1                	srai	a1,a1,0x10
80001202:	c4eff0ef          	jal	ra,80000650 <LCD_Fill>
C:\NucleiStudio_workspace\HBirdv2_Prj\fly_bird\Debug/../application/system.c:426
		LCD_Fill(pillar->x1+5,game_show_height-pillar->h+11,26,pillar->h-12,0x8dc3);
80001206:	00845783          	lhu	a5,8(s0)
8000120a:	4048                	lw	a0,4(s0)
8000120c:	1b900593          	li	a1,441
80001210:	ff478693          	addi	a3,a5,-12
80001214:	8d9d                	sub	a1,a1,a5
80001216:	0515                	addi	a0,a0,5
80001218:	6725                	lui	a4,0x9
8000121a:	06c2                	slli	a3,a3,0x10
8000121c:	05c2                	slli	a1,a1,0x10
8000121e:	0542                	slli	a0,a0,0x10
80001220:	dc370713          	addi	a4,a4,-573 # 8dc3 <__stack_size+0x85c3>
80001224:	82c1                	srli	a3,a3,0x10
80001226:	4669                	li	a2,26
80001228:	85c1                	srai	a1,a1,0x10
8000122a:	8541                	srai	a0,a0,0x10
8000122c:	c24ff0ef          	jal	ra,80000650 <LCD_Fill>
C:\NucleiStudio_workspace\HBirdv2_Prj\fly_bird\Debug/../application/system.c:427
		LCD_DrawRectangle(pillar->x1+4,game_show_height-pillar->h+10,28,pillar->h-10,0x0000);
80001230:	00845783          	lhu	a5,8(s0)
80001234:	4048                	lw	a0,4(s0)
80001236:	1b800593          	li	a1,440
8000123a:	ff678693          	addi	a3,a5,-10
8000123e:	8d9d                	sub	a1,a1,a5
80001240:	0511                	addi	a0,a0,4
80001242:	06c2                	slli	a3,a3,0x10
80001244:	05c2                	slli	a1,a1,0x10
80001246:	0542                	slli	a0,a0,0x10
80001248:	4701                	li	a4,0
8000124a:	82c1                	srli	a3,a3,0x10
8000124c:	4671                	li	a2,28
8000124e:	85c1                	srai	a1,a1,0x10
80001250:	8541                	srai	a0,a0,0x10
80001252:	d54ff0ef          	jal	ra,800007a6 <LCD_DrawRectangle>
C:\NucleiStudio_workspace\HBirdv2_Prj\fly_bird\Debug/../application/system.c:431
		LCD_Fill(pillar->x1,game_show_height-pillar->h-pillar->j-1,36,1,0X0000);
80001256:	00845583          	lhu	a1,8(s0)
8000125a:	00c45783          	lhu	a5,12(s0)
8000125e:	00441503          	lh	a0,4(s0)
80001262:	4701                	li	a4,0
80001264:	97ae                	add	a5,a5,a1
80001266:	1ad00593          	li	a1,429
8000126a:	8d9d                	sub	a1,a1,a5
8000126c:	05c2                	slli	a1,a1,0x10
8000126e:	4685                	li	a3,1
80001270:	02400613          	li	a2,36
80001274:	85c1                	srai	a1,a1,0x10
80001276:	bdaff0ef          	jal	ra,80000650 <LCD_Fill>
8000127a:	4481                	li	s1,0
C:\NucleiStudio_workspace\HBirdv2_Prj\fly_bird\Debug/../application/system.c:435
			LCD_Fill(pillar->x1+j*2,game_show_height-pillar->h-pillar->j-9,2,8,pillar_ico1[j]);
8000127c:	1a500993          	li	s3,421
C:\NucleiStudio_workspace\HBirdv2_Prj\fly_bird\Debug/../application/system.c:435 (discriminator 3)
80001280:	00845583          	lhu	a1,8(s0)
80001284:	00c45783          	lhu	a5,12(s0)
80001288:	4048                	lw	a0,4(s0)
8000128a:	00095703          	lhu	a4,0(s2)
8000128e:	95be                	add	a1,a1,a5
80001290:	9526                	add	a0,a0,s1
80001292:	40b985b3          	sub	a1,s3,a1
80001296:	05c2                	slli	a1,a1,0x10
80001298:	0542                	slli	a0,a0,0x10
C:\NucleiStudio_workspace\HBirdv2_Prj\fly_bird\Debug/../application/system.c:432 (discriminator 3)
		for(char j=0;j<18;j++)
8000129a:	0489                	addi	s1,s1,2
C:\NucleiStudio_workspace\HBirdv2_Prj\fly_bird\Debug/../application/system.c:435 (discriminator 3)
			LCD_Fill(pillar->x1+j*2,game_show_height-pillar->h-pillar->j-9,2,8,pillar_ico1[j]);
8000129c:	46a1                	li	a3,8
8000129e:	4609                	li	a2,2
800012a0:	85c1                	srai	a1,a1,0x10
800012a2:	8541                	srai	a0,a0,0x10
C:\NucleiStudio_workspace\HBirdv2_Prj\fly_bird\Debug/../application/system.c:432 (discriminator 3)
		for(char j=0;j<18;j++)
800012a4:	04c2                	slli	s1,s1,0x10
800012a6:	0909                	addi	s2,s2,2
C:\NucleiStudio_workspace\HBirdv2_Prj\fly_bird\Debug/../application/system.c:435 (discriminator 3)
			LCD_Fill(pillar->x1+j*2,game_show_height-pillar->h-pillar->j-9,2,8,pillar_ico1[j]);
800012a8:	ba8ff0ef          	jal	ra,80000650 <LCD_Fill>
C:\NucleiStudio_workspace\HBirdv2_Prj\fly_bird\Debug/../application/system.c:432 (discriminator 3)
		for(char j=0;j<18;j++)
800012ac:	80c1                	srli	s1,s1,0x10
800012ae:	fd2a19e3          	bne	s4,s2,80001280 <draw_pillar+0x1e2>
C:\NucleiStudio_workspace\HBirdv2_Prj\fly_bird\Debug/../application/system.c:439
		LCD_Fill(pillar->x1,game_show_height-pillar->h-pillar->j-10,36,1,0X0000);
800012b2:	00845583          	lhu	a1,8(s0)
800012b6:	00c45783          	lhu	a5,12(s0)
800012ba:	00441503          	lh	a0,4(s0)
800012be:	4701                	li	a4,0
800012c0:	97ae                	add	a5,a5,a1
800012c2:	1a400593          	li	a1,420
800012c6:	8d9d                	sub	a1,a1,a5
800012c8:	05c2                	slli	a1,a1,0x10
800012ca:	4685                	li	a3,1
800012cc:	02400613          	li	a2,36
800012d0:	85c1                	srai	a1,a1,0x10
800012d2:	b7eff0ef          	jal	ra,80000650 <LCD_Fill>
C:\NucleiStudio_workspace\HBirdv2_Prj\fly_bird\Debug/../application/system.c:440
		LCD_Fill(pillar->x1+5,31,26,288-pillar->h,0x8dc3);
800012d6:	00845783          	lhu	a5,8(s0)
800012da:	4048                	lw	a0,4(s0)
800012dc:	12000693          	li	a3,288
800012e0:	8e9d                	sub	a3,a3,a5
800012e2:	0515                	addi	a0,a0,5
800012e4:	6725                	lui	a4,0x9
800012e6:	06c2                	slli	a3,a3,0x10
800012e8:	0542                	slli	a0,a0,0x10
800012ea:	dc370713          	addi	a4,a4,-573 # 8dc3 <__stack_size+0x85c3>
800012ee:	82c1                	srli	a3,a3,0x10
800012f0:	4669                	li	a2,26
800012f2:	45fd                	li	a1,31
800012f4:	8541                	srai	a0,a0,0x10
800012f6:	b5aff0ef          	jal	ra,80000650 <LCD_Fill>
C:\NucleiStudio_workspace\HBirdv2_Prj\fly_bird\Debug/../application/system.c:441
		LCD_DrawRectangle(pillar->x1+4,30,28,290-pillar->h,0x0000);
800012fa:	00845783          	lhu	a5,8(s0)
800012fe:	4048                	lw	a0,4(s0)
80001300:	12200693          	li	a3,290
C:\NucleiStudio_workspace\HBirdv2_Prj\fly_bird\Debug/../application/system.c:455
}
80001304:	4426                	lw	s0,72(sp)
80001306:	40b6                	lw	ra,76(sp)
80001308:	4496                	lw	s1,68(sp)
8000130a:	4906                	lw	s2,64(sp)
8000130c:	59f2                	lw	s3,60(sp)
8000130e:	5a62                	lw	s4,56(sp)
80001310:	5ad2                	lw	s5,52(sp)
C:\NucleiStudio_workspace\HBirdv2_Prj\fly_bird\Debug/../application/system.c:441
		LCD_DrawRectangle(pillar->x1+4,30,28,290-pillar->h,0x0000);
80001312:	8e9d                	sub	a3,a3,a5
80001314:	0511                	addi	a0,a0,4
80001316:	06c2                	slli	a3,a3,0x10
80001318:	0542                	slli	a0,a0,0x10
8000131a:	4701                	li	a4,0
8000131c:	82c1                	srli	a3,a3,0x10
8000131e:	4671                	li	a2,28
80001320:	45f9                	li	a1,30
80001322:	8541                	srai	a0,a0,0x10
C:\NucleiStudio_workspace\HBirdv2_Prj\fly_bird\Debug/../application/system.c:455
}
80001324:	6161                	addi	sp,sp,80
C:\NucleiStudio_workspace\HBirdv2_Prj\fly_bird\Debug/../application/system.c:441
		LCD_DrawRectangle(pillar->x1+4,30,28,290-pillar->h,0x0000);
80001326:	c80ff06f          	j	800007a6 <LCD_DrawRectangle>

8000132a <pillar_move>:
pillar_move():
C:\NucleiStudio_workspace\HBirdv2_Prj\fly_bird\Debug/../application/system.c:194
{
8000132a:	1101                	addi	sp,sp,-32
8000132c:	c64e                	sw	s3,12(sp)
SysTimer_GetLoadValue():
C:\NucleiStudio_workspace\HBirdv2_Prj\fly_bird\hbird_sdk\NMSIS\Core\Include/core_feature_timer.h:106
8000132e:	0200c9b7          	lui	s3,0x200c
80001332:	ff89a603          	lw	a2,-8(s3) # 200bff8 <__stack_size+0x200b7f8>
80001336:	ffc9a683          	lw	a3,-4(s3)
pillar_move():
C:\NucleiStudio_workspace\HBirdv2_Prj\fly_bird\Debug/../application/system.c:194
8000133a:	ca26                	sw	s1,20(sp)
C:\NucleiStudio_workspace\HBirdv2_Prj\fly_bird\Debug/../application/system.c:195
	pillar1.t1=SysTimer_GetLoadValue()/32-pillar1.t0;
8000133c:	98818493          	addi	s1,gp,-1656 # 900001e8 <pillar1>
C:\NucleiStudio_workspace\HBirdv2_Prj\fly_bird\Debug/../application/system.c:194
{
80001340:	c84a                	sw	s2,16(sp)
C:\NucleiStudio_workspace\HBirdv2_Prj\fly_bird\Debug/../application/system.c:195
	pillar1.t1=SysTimer_GetLoadValue()/32-pillar1.t0;
80001342:	0104a903          	lw	s2,16(s1)
80001346:	01b69713          	slli	a4,a3,0x1b
8000134a:	00565793          	srli	a5,a2,0x5
8000134e:	48cc                	lw	a1,20(s1)
80001350:	8fd9                	or	a5,a5,a4
80001352:	41278933          	sub	s2,a5,s2
C:\NucleiStudio_workspace\HBirdv2_Prj\fly_bird\Debug/../application/system.c:194
{
80001356:	cc22                	sw	s0,24(sp)
C:\NucleiStudio_workspace\HBirdv2_Prj\fly_bird\Debug/../application/system.c:196
	pillar1.x1=(int)(pillar1.x0-(pillar1.v0*pillar1.t1));
80001358:	4088                	lw	a0,0(s1)
C:\NucleiStudio_workspace\HBirdv2_Prj\fly_bird\Debug/../application/system.c:195
	pillar1.t1=SysTimer_GetLoadValue()/32-pillar1.t0;
8000135a:	0056d413          	srli	s0,a3,0x5
8000135e:	0127b7b3          	sltu	a5,a5,s2
80001362:	8c0d                	sub	s0,s0,a1
80001364:	8c1d                	sub	s0,s0,a5
C:\NucleiStudio_workspace\HBirdv2_Prj\fly_bird\Debug/../application/system.c:194
{
80001366:	ce06                	sw	ra,28(sp)
C:\NucleiStudio_workspace\HBirdv2_Prj\fly_bird\Debug/../application/system.c:195
	pillar1.t1=SysTimer_GetLoadValue()/32-pillar1.t0;
80001368:	ccc0                	sw	s0,28(s1)
C:\NucleiStudio_workspace\HBirdv2_Prj\fly_bird\Debug/../application/system.c:194
{
8000136a:	c452                	sw	s4,8(sp)
8000136c:	c256                	sw	s5,4(sp)
C:\NucleiStudio_workspace\HBirdv2_Prj\fly_bird\Debug/../application/system.c:195
	pillar1.t1=SysTimer_GetLoadValue()/32-pillar1.t0;
8000136e:	0124ac23          	sw	s2,24(s1)
C:\NucleiStudio_workspace\HBirdv2_Prj\fly_bird\Debug/../application/system.c:196
	pillar1.x1=(int)(pillar1.x0-(pillar1.v0*pillar1.t1));
80001372:	0dd010ef          	jal	ra,80002c4e <__floatsisf>
80001376:	87aa                	mv	a5,a0
80001378:	85a2                	mv	a1,s0
8000137a:	854a                	mv	a0,s2
8000137c:	843e                	mv	s0,a5
8000137e:	18b010ef          	jal	ra,80002d08 <__floatundisf>
80001382:	508c                	lw	a1,32(s1)
80001384:	318010ef          	jal	ra,8000269c <__mulsf3>
80001388:	85aa                	mv	a1,a0
8000138a:	8522                	mv	a0,s0
8000138c:	530010ef          	jal	ra,800028bc <__subsf3>
80001390:	05f010ef          	jal	ra,80002bee <__fixsfsi>
C:\NucleiStudio_workspace\HBirdv2_Prj\fly_bird\Debug/../application/system.c:197
	if(pillar1.x1<=-pillar1.w)
80001394:	00a49783          	lh	a5,10(s1)
C:\NucleiStudio_workspace\HBirdv2_Prj\fly_bird\Debug/../application/system.c:196
	pillar1.x1=(int)(pillar1.x0-(pillar1.v0*pillar1.t1));
80001398:	c0c8                	sw	a0,4(s1)
C:\NucleiStudio_workspace\HBirdv2_Prj\fly_bird\Debug/../application/system.c:197
	if(pillar1.x1<=-pillar1.w)
8000139a:	40f007b3          	neg	a5,a5
8000139e:	1ca7de63          	bge	a5,a0,8000157a <pillar_move+0x250>
SysTimer_GetLoadValue():
C:\NucleiStudio_workspace\HBirdv2_Prj\fly_bird\hbird_sdk\NMSIS\Core\Include/core_feature_timer.h:106
800013a2:	0200ca37          	lui	s4,0x200c
800013a6:	ff8a2603          	lw	a2,-8(s4) # 200bff8 <__stack_size+0x200b7f8>
800013aa:	ffca2683          	lw	a3,-4(s4)
pillar_move():
C:\NucleiStudio_workspace\HBirdv2_Prj\fly_bird\Debug/../application/system.c:208
	pillar2.t1=SysTimer_GetLoadValue()/32-pillar2.t0;
800013ae:	9d818413          	addi	s0,gp,-1576 # 90000238 <pillar2>
800013b2:	01042983          	lw	s3,16(s0)
800013b6:	01b69713          	slli	a4,a3,0x1b
800013ba:	00565793          	srli	a5,a2,0x5
800013be:	484c                	lw	a1,20(s0)
800013c0:	8fd9                	or	a5,a5,a4
800013c2:	0056d913          	srli	s2,a3,0x5
800013c6:	413789b3          	sub	s3,a5,s3
800013ca:	0137b7b3          	sltu	a5,a5,s3
800013ce:	40b90933          	sub	s2,s2,a1
C:\NucleiStudio_workspace\HBirdv2_Prj\fly_bird\Debug/../application/system.c:209
	pillar2.x1=(int)(pillar2.x0-(pillar2.v0*pillar2.t1));
800013d2:	4008                	lw	a0,0(s0)
C:\NucleiStudio_workspace\HBirdv2_Prj\fly_bird\Debug/../application/system.c:208
	pillar2.t1=SysTimer_GetLoadValue()/32-pillar2.t0;
800013d4:	40f90933          	sub	s2,s2,a5
800013d8:	01242e23          	sw	s2,28(s0)
800013dc:	01342c23          	sw	s3,24(s0)
C:\NucleiStudio_workspace\HBirdv2_Prj\fly_bird\Debug/../application/system.c:209
	pillar2.x1=(int)(pillar2.x0-(pillar2.v0*pillar2.t1));
800013e0:	06f010ef          	jal	ra,80002c4e <__floatsisf>
800013e4:	87aa                	mv	a5,a0
800013e6:	85ca                	mv	a1,s2
800013e8:	854e                	mv	a0,s3
800013ea:	893e                	mv	s2,a5
800013ec:	11d010ef          	jal	ra,80002d08 <__floatundisf>
800013f0:	500c                	lw	a1,32(s0)
800013f2:	2aa010ef          	jal	ra,8000269c <__mulsf3>
800013f6:	85aa                	mv	a1,a0
800013f8:	854a                	mv	a0,s2
800013fa:	4c2010ef          	jal	ra,800028bc <__subsf3>
800013fe:	7f0010ef          	jal	ra,80002bee <__fixsfsi>
C:\NucleiStudio_workspace\HBirdv2_Prj\fly_bird\Debug/../application/system.c:210
	if(pillar2.x1<=-pillar2.w)
80001402:	00a41783          	lh	a5,10(s0)
C:\NucleiStudio_workspace\HBirdv2_Prj\fly_bird\Debug/../application/system.c:209
	pillar2.x1=(int)(pillar2.x0-(pillar2.v0*pillar2.t1));
80001406:	c048                	sw	a0,4(s0)
C:\NucleiStudio_workspace\HBirdv2_Prj\fly_bird\Debug/../application/system.c:210
	if(pillar2.x1<=-pillar2.w)
80001408:	40f007b3          	neg	a5,a5
8000140c:	12a7da63          	bge	a5,a0,80001540 <pillar_move+0x216>
SysTimer_GetLoadValue():
C:\NucleiStudio_workspace\HBirdv2_Prj\fly_bird\hbird_sdk\NMSIS\Core\Include/core_feature_timer.h:106
80001410:	0200cab7          	lui	s5,0x200c
80001414:	ff8aa603          	lw	a2,-8(s5) # 200bff8 <__stack_size+0x200b7f8>
80001418:	ffcaa683          	lw	a3,-4(s5)
pillar_move():
C:\NucleiStudio_workspace\HBirdv2_Prj\fly_bird\Debug/../application/system.c:221
	pillar3.t1=SysTimer_GetLoadValue()/32-pillar3.t0;
8000141c:	a2818913          	addi	s2,gp,-1496 # 90000288 <pillar3>
80001420:	01092a03          	lw	s4,16(s2)
80001424:	01b69713          	slli	a4,a3,0x1b
80001428:	00565793          	srli	a5,a2,0x5
8000142c:	01492583          	lw	a1,20(s2)
80001430:	8fd9                	or	a5,a5,a4
80001432:	0056d993          	srli	s3,a3,0x5
80001436:	41478a33          	sub	s4,a5,s4
8000143a:	0147b7b3          	sltu	a5,a5,s4
8000143e:	40b989b3          	sub	s3,s3,a1
C:\NucleiStudio_workspace\HBirdv2_Prj\fly_bird\Debug/../application/system.c:222
	pillar3.x1=(int)(pillar3.x0-(pillar3.v0*pillar3.t1));
80001442:	00092503          	lw	a0,0(s2)
C:\NucleiStudio_workspace\HBirdv2_Prj\fly_bird\Debug/../application/system.c:221
	pillar3.t1=SysTimer_GetLoadValue()/32-pillar3.t0;
80001446:	40f989b3          	sub	s3,s3,a5
8000144a:	01392e23          	sw	s3,28(s2)
8000144e:	01492c23          	sw	s4,24(s2)
C:\NucleiStudio_workspace\HBirdv2_Prj\fly_bird\Debug/../application/system.c:222
	pillar3.x1=(int)(pillar3.x0-(pillar3.v0*pillar3.t1));
80001452:	7fc010ef          	jal	ra,80002c4e <__floatsisf>
80001456:	87aa                	mv	a5,a0
80001458:	85ce                	mv	a1,s3
8000145a:	8552                	mv	a0,s4
8000145c:	89be                	mv	s3,a5
8000145e:	0ab010ef          	jal	ra,80002d08 <__floatundisf>
80001462:	02092583          	lw	a1,32(s2)
80001466:	236010ef          	jal	ra,8000269c <__mulsf3>
8000146a:	85aa                	mv	a1,a0
8000146c:	854e                	mv	a0,s3
8000146e:	44e010ef          	jal	ra,800028bc <__subsf3>
80001472:	77c010ef          	jal	ra,80002bee <__fixsfsi>
C:\NucleiStudio_workspace\HBirdv2_Prj\fly_bird\Debug/../application/system.c:223
	if(pillar3.x1<=-pillar3.w)
80001476:	00a91583          	lh	a1,10(s2)
C:\NucleiStudio_workspace\HBirdv2_Prj\fly_bird\Debug/../application/system.c:222
	pillar3.x1=(int)(pillar3.x0-(pillar3.v0*pillar3.t1));
8000147a:	00a92223          	sw	a0,4(s2)
C:\NucleiStudio_workspace\HBirdv2_Prj\fly_bird\Debug/../application/system.c:223
	if(pillar3.x1<=-pillar3.w)
8000147e:	40b007b3          	neg	a5,a1
80001482:	06a7da63          	bge	a5,a0,800014f6 <pillar_move+0x1cc>
C:\NucleiStudio_workspace\HBirdv2_Prj\fly_bird\Debug/../application/system.c:234
	if(pillar1.x1+pillar1.w<bird.x0&&bird.num_lock1==0)
80001486:	00a49683          	lh	a3,10(s1)
8000148a:	40d0                	lw	a2,4(s1)
8000148c:	8f818793          	addi	a5,gp,-1800 # 90000158 <bird>
80001490:	4398                	lw	a4,0(a5)
80001492:	96b2                	add	a3,a3,a2
80001494:	00e6d563          	bge	a3,a4,8000149e <pillar_move+0x174>
C:\NucleiStudio_workspace\HBirdv2_Prj\fly_bird\Debug/../application/system.c:234 (discriminator 1)
80001498:	0407c683          	lbu	a3,64(a5)
8000149c:	c6b1                	beqz	a3,800014e8 <pillar_move+0x1be>
C:\NucleiStudio_workspace\HBirdv2_Prj\fly_bird\Debug/../application/system.c:239
	if(pillar2.x1+pillar2.w<bird.x0&&bird.num_lock2==0)
8000149e:	00a41683          	lh	a3,10(s0)
800014a2:	4050                	lw	a2,4(s0)
800014a4:	96b2                	add	a3,a3,a2
800014a6:	00e6d563          	bge	a3,a4,800014b0 <pillar_move+0x186>
C:\NucleiStudio_workspace\HBirdv2_Prj\fly_bird\Debug/../application/system.c:239 (discriminator 1)
800014aa:	0417c683          	lbu	a3,65(a5)
800014ae:	c695                	beqz	a3,800014da <pillar_move+0x1b0>
C:\NucleiStudio_workspace\HBirdv2_Prj\fly_bird\Debug/../application/system.c:244
	if(pillar3.x1+pillar3.w<bird.x0&&bird.num_lock3==0)
800014b0:	952e                	add	a0,a0,a1
800014b2:	00e55b63          	bge	a0,a4,800014c8 <pillar_move+0x19e>
C:\NucleiStudio_workspace\HBirdv2_Prj\fly_bird\Debug/../application/system.c:244 (discriminator 1)
800014b6:	0427c703          	lbu	a4,66(a5)
800014ba:	e719                	bnez	a4,800014c8 <pillar_move+0x19e>
C:\NucleiStudio_workspace\HBirdv2_Prj\fly_bird\Debug/../application/system.c:246
		bird.num++;
800014bc:	5fd8                	lw	a4,60(a5)
C:\NucleiStudio_workspace\HBirdv2_Prj\fly_bird\Debug/../application/system.c:247
		bird.num_lock3=1; //上锁
800014be:	4685                	li	a3,1
800014c0:	04d78123          	sb	a3,66(a5)
C:\NucleiStudio_workspace\HBirdv2_Prj\fly_bird\Debug/../application/system.c:246
		bird.num++;
800014c4:	0705                	addi	a4,a4,1
800014c6:	dfd8                	sw	a4,60(a5)
C:\NucleiStudio_workspace\HBirdv2_Prj\fly_bird\Debug/../application/system.c:249
}
800014c8:	40f2                	lw	ra,28(sp)
800014ca:	4462                	lw	s0,24(sp)
800014cc:	44d2                	lw	s1,20(sp)
800014ce:	4942                	lw	s2,16(sp)
800014d0:	49b2                	lw	s3,12(sp)
800014d2:	4a22                	lw	s4,8(sp)
800014d4:	4a92                	lw	s5,4(sp)
800014d6:	6105                	addi	sp,sp,32
800014d8:	8082                	ret
C:\NucleiStudio_workspace\HBirdv2_Prj\fly_bird\Debug/../application/system.c:241
		bird.num++;
800014da:	5fd4                	lw	a3,60(a5)
C:\NucleiStudio_workspace\HBirdv2_Prj\fly_bird\Debug/../application/system.c:242
		bird.num_lock2=1; //上锁
800014dc:	4605                	li	a2,1
800014de:	04c780a3          	sb	a2,65(a5)
C:\NucleiStudio_workspace\HBirdv2_Prj\fly_bird\Debug/../application/system.c:241
		bird.num++;
800014e2:	0685                	addi	a3,a3,1
800014e4:	dfd4                	sw	a3,60(a5)
C:\NucleiStudio_workspace\HBirdv2_Prj\fly_bird\Debug/../application/system.c:242
		bird.num_lock2=1; //上锁
800014e6:	b7e9                	j	800014b0 <pillar_move+0x186>
C:\NucleiStudio_workspace\HBirdv2_Prj\fly_bird\Debug/../application/system.c:236
		bird.num++;
800014e8:	5fd4                	lw	a3,60(a5)
C:\NucleiStudio_workspace\HBirdv2_Prj\fly_bird\Debug/../application/system.c:237
		bird.num_lock1=1; //上锁
800014ea:	4605                	li	a2,1
800014ec:	04c78023          	sb	a2,64(a5)
C:\NucleiStudio_workspace\HBirdv2_Prj\fly_bird\Debug/../application/system.c:236
		bird.num++;
800014f0:	0685                	addi	a3,a3,1
800014f2:	dfd4                	sw	a3,60(a5)
C:\NucleiStudio_workspace\HBirdv2_Prj\fly_bird\Debug/../application/system.c:237
		bird.num_lock1=1; //上锁
800014f4:	b76d                	j	8000149e <pillar_move+0x174>
C:\NucleiStudio_workspace\HBirdv2_Prj\fly_bird\Debug/../application/system.c:227
		pillar3.x0=game_show_width;
800014f6:	28000793          	li	a5,640
800014fa:	00f92023          	sw	a5,0(s2)
C:\NucleiStudio_workspace\HBirdv2_Prj\fly_bird\Debug/../application/system.c:228
		pillar3.x1=game_show_width;
800014fe:	00f92223          	sw	a5,4(s2)
C:\NucleiStudio_workspace\HBirdv2_Prj\fly_bird\Debug/../application/system.c:229
		pillar3.h=rand()%290+30;
80001502:	3cf010ef          	jal	ra,800030d0 <rand>
80001506:	12200793          	li	a5,290
8000150a:	02f567b3          	rem	a5,a0,a5
SysTimer_GetLoadValue():
C:\NucleiStudio_workspace\HBirdv2_Prj\fly_bird\hbird_sdk\NMSIS\Core\Include/core_feature_timer.h:106
8000150e:	ff8aa603          	lw	a2,-8(s5)
80001512:	ffcaa683          	lw	a3,-4(s5)
pillar_move():
C:\NucleiStudio_workspace\HBirdv2_Prj\fly_bird\Debug/../application/system.c:244
	if(pillar3.x1+pillar3.w<bird.x0&&bird.num_lock3==0)
80001516:	00492503          	lw	a0,4(s2)
C:\NucleiStudio_workspace\HBirdv2_Prj\fly_bird\Debug/../application/system.c:230
		pillar3.t0=SysTimer_GetLoadValue()/32;
8000151a:	00565713          	srli	a4,a2,0x5
8000151e:	01b69813          	slli	a6,a3,0x1b
80001522:	01076733          	or	a4,a4,a6
80001526:	8295                	srli	a3,a3,0x5
80001528:	00e92823          	sw	a4,16(s2)
C:\NucleiStudio_workspace\HBirdv2_Prj\fly_bird\Debug/../application/system.c:244
	if(pillar3.x1+pillar3.w<bird.x0&&bird.num_lock3==0)
8000152c:	00a91583          	lh	a1,10(s2)
C:\NucleiStudio_workspace\HBirdv2_Prj\fly_bird\Debug/../application/system.c:230
		pillar3.t0=SysTimer_GetLoadValue()/32;
80001530:	00d92a23          	sw	a3,20(s2)
C:\NucleiStudio_workspace\HBirdv2_Prj\fly_bird\Debug/../application/system.c:231
		bird.num_lock3=0; //解锁
80001534:	92018d23          	sb	zero,-1734(gp) # 9000019a <bird+0x42>
C:\NucleiStudio_workspace\HBirdv2_Prj\fly_bird\Debug/../application/system.c:229
		pillar3.h=rand()%290+30;
80001538:	07f9                	addi	a5,a5,30
8000153a:	00f91423          	sh	a5,8(s2)
C:\NucleiStudio_workspace\HBirdv2_Prj\fly_bird\Debug/../application/system.c:231
		bird.num_lock3=0; //解锁
8000153e:	b7a1                	j	80001486 <pillar_move+0x15c>
C:\NucleiStudio_workspace\HBirdv2_Prj\fly_bird\Debug/../application/system.c:214
		pillar2.x0=game_show_width;
80001540:	28000793          	li	a5,640
80001544:	c01c                	sw	a5,0(s0)
C:\NucleiStudio_workspace\HBirdv2_Prj\fly_bird\Debug/../application/system.c:215
		pillar2.x1=game_show_width;
80001546:	c05c                	sw	a5,4(s0)
C:\NucleiStudio_workspace\HBirdv2_Prj\fly_bird\Debug/../application/system.c:216
		pillar2.h=rand()%290+30;
80001548:	389010ef          	jal	ra,800030d0 <rand>
8000154c:	12200793          	li	a5,290
80001550:	02f56533          	rem	a0,a0,a5
SysTimer_GetLoadValue():
C:\NucleiStudio_workspace\HBirdv2_Prj\fly_bird\hbird_sdk\NMSIS\Core\Include/core_feature_timer.h:106
80001554:	ff8a2603          	lw	a2,-8(s4)
80001558:	ffca2683          	lw	a3,-4(s4)
pillar_move():
C:\NucleiStudio_workspace\HBirdv2_Prj\fly_bird\Debug/../application/system.c:218
		bird.num_lock2=0; //解锁
8000155c:	92018ca3          	sb	zero,-1735(gp) # 90000199 <bird+0x41>
C:\NucleiStudio_workspace\HBirdv2_Prj\fly_bird\Debug/../application/system.c:217
		pillar2.t0=SysTimer_GetLoadValue()/32;
80001560:	00565793          	srli	a5,a2,0x5
80001564:	01b69713          	slli	a4,a3,0x1b
80001568:	8fd9                	or	a5,a5,a4
8000156a:	0056d713          	srli	a4,a3,0x5
8000156e:	c81c                	sw	a5,16(s0)
80001570:	c858                	sw	a4,20(s0)
C:\NucleiStudio_workspace\HBirdv2_Prj\fly_bird\Debug/../application/system.c:216
		pillar2.h=rand()%290+30;
80001572:	0579                	addi	a0,a0,30
80001574:	00a41423          	sh	a0,8(s0)
C:\NucleiStudio_workspace\HBirdv2_Prj\fly_bird\Debug/../application/system.c:218
		bird.num_lock2=0; //解锁
80001578:	bd61                	j	80001410 <pillar_move+0xe6>
C:\NucleiStudio_workspace\HBirdv2_Prj\fly_bird\Debug/../application/system.c:201
		pillar1.x0=game_show_width;
8000157a:	28000793          	li	a5,640
8000157e:	c09c                	sw	a5,0(s1)
C:\NucleiStudio_workspace\HBirdv2_Prj\fly_bird\Debug/../application/system.c:202
		pillar1.x1=game_show_width;
80001580:	c0dc                	sw	a5,4(s1)
C:\NucleiStudio_workspace\HBirdv2_Prj\fly_bird\Debug/../application/system.c:203
		pillar1.h=rand()%290+30;
80001582:	34f010ef          	jal	ra,800030d0 <rand>
80001586:	12200793          	li	a5,290
8000158a:	02f56533          	rem	a0,a0,a5
SysTimer_GetLoadValue():
C:\NucleiStudio_workspace\HBirdv2_Prj\fly_bird\hbird_sdk\NMSIS\Core\Include/core_feature_timer.h:106
8000158e:	ff89a603          	lw	a2,-8(s3)
80001592:	ffc9a683          	lw	a3,-4(s3)
pillar_move():
C:\NucleiStudio_workspace\HBirdv2_Prj\fly_bird\Debug/../application/system.c:205
		bird.num_lock1=0; //解锁
80001596:	92018c23          	sb	zero,-1736(gp) # 90000198 <bird+0x40>
C:\NucleiStudio_workspace\HBirdv2_Prj\fly_bird\Debug/../application/system.c:204
		pillar1.t0=SysTimer_GetLoadValue()/32;
8000159a:	00565793          	srli	a5,a2,0x5
8000159e:	01b69713          	slli	a4,a3,0x1b
800015a2:	8fd9                	or	a5,a5,a4
800015a4:	0056d713          	srli	a4,a3,0x5
800015a8:	c89c                	sw	a5,16(s1)
800015aa:	c8d8                	sw	a4,20(s1)
C:\NucleiStudio_workspace\HBirdv2_Prj\fly_bird\Debug/../application/system.c:203
		pillar1.h=rand()%290+30;
800015ac:	0579                	addi	a0,a0,30
800015ae:	00a49423          	sh	a0,8(s1)
C:\NucleiStudio_workspace\HBirdv2_Prj\fly_bird\Debug/../application/system.c:205
		bird.num_lock1=0; //解锁
800015b2:	bbc5                	j	800013a2 <pillar_move+0x78>

800015b4 <bird_init>:
bird_init():
C:\NucleiStudio_workspace\HBirdv2_Prj\fly_bird\Debug/../application/system.c:110
	bird.x0=30;    
800015b4:	8f818793          	addi	a5,gp,-1800 # 90000158 <bird>
800015b8:	4779                	li	a4,30
800015ba:	c398                	sw	a4,0(a5)
SysTimer_GetLoadValue():
C:\NucleiStudio_workspace\HBirdv2_Prj\fly_bird\hbird_sdk\NMSIS\Core\Include/core_feature_timer.h:106
800015bc:	0200c737          	lui	a4,0x200c
800015c0:	ff872503          	lw	a0,-8(a4) # 200bff8 <__stack_size+0x200b7f8>
800015c4:	ffc72583          	lw	a1,-4(a4)
800015c8:	ff872e03          	lw	t3,-8(a4)
800015cc:	ffc72e83          	lw	t4,-4(a4)
bird_init():
C:\NucleiStudio_workspace\HBirdv2_Prj\fly_bird\Debug/../application/system.c:108
	bird.y0=200;  //初始位置
800015d0:	0c800613          	li	a2,200
C:\NucleiStudio_workspace\HBirdv2_Prj\fly_bird\Debug/../application/system.c:114
	bird.t2=SysTimer_GetLoadValue()/32; //初始时间
800015d4:	005e5713          	srli	a4,t3,0x5
800015d8:	01be9813          	slli	a6,t4,0x1b
800015dc:	01076733          	or	a4,a4,a6
C:\NucleiStudio_workspace\HBirdv2_Prj\fly_bird\Debug/../application/system.c:113
	bird.t0=SysTimer_GetLoadValue()/32; //初始时间
800015e0:	01b59313          	slli	t1,a1,0x1b
800015e4:	00555693          	srli	a3,a0,0x5
C:\NucleiStudio_workspace\HBirdv2_Prj\fly_bird\Debug/../application/system.c:108
	bird.y0=200;  //初始位置
800015e8:	c3d0                	sw	a2,4(a5)
C:\NucleiStudio_workspace\HBirdv2_Prj\fly_bird\Debug/../application/system.c:109
	bird.y1=200;  //初始位置
800015ea:	c790                	sw	a2,8(a5)
C:\NucleiStudio_workspace\HBirdv2_Prj\fly_bird\Debug/../application/system.c:114
	bird.t2=SysTimer_GetLoadValue()/32; //初始时间
800015ec:	d398                	sw	a4,32(a5)
C:\NucleiStudio_workspace\HBirdv2_Prj\fly_bird\Debug/../application/system.c:112
	bird.h=24;		//高
800015ee:	6609                	lui	a2,0x2
C:\NucleiStudio_workspace\HBirdv2_Prj\fly_bird\Debug/../application/system.c:116
	bird.v0=0;		//初始速度
800015f0:	00000713          	li	a4,0
C:\NucleiStudio_workspace\HBirdv2_Prj\fly_bird\Debug/../application/system.c:113
	bird.t0=SysTimer_GetLoadValue()/32; //初始时间
800015f4:	0055d513          	srli	a0,a1,0x5
800015f8:	0066e6b3          	or	a3,a3,t1
C:\NucleiStudio_workspace\HBirdv2_Prj\fly_bird\Debug/../application/system.c:114
	bird.t2=SysTimer_GetLoadValue()/32; //初始时间
800015fc:	005ed593          	srli	a1,t4,0x5
C:\NucleiStudio_workspace\HBirdv2_Prj\fly_bird\Debug/../application/system.c:112
	bird.h=24;		//高
80001600:	21860613          	addi	a2,a2,536 # 2218 <__stack_size+0x1a18>
C:\NucleiStudio_workspace\HBirdv2_Prj\fly_bird\Debug/../application/system.c:116
	bird.v0=0;		//初始速度
80001604:	dbd8                	sw	a4,52(a5)
C:\NucleiStudio_workspace\HBirdv2_Prj\fly_bird\Debug/../application/system.c:117
	bird.a=0.0005;//初始加速度
80001606:	0ffff717          	auipc	a4,0xffff
8000160a:	a7272703          	lw	a4,-1422(a4) # 90000078 <_impure_ptr+0x8>
C:\NucleiStudio_workspace\HBirdv2_Prj\fly_bird\Debug/../application/system.c:112
	bird.h=24;		//高
8000160e:	00c79623          	sh	a2,12(a5)
C:\NucleiStudio_workspace\HBirdv2_Prj\fly_bird\Debug/../application/system.c:113
	bird.t0=SysTimer_GetLoadValue()/32; //初始时间
80001612:	cb94                	sw	a3,16(a5)
80001614:	cbc8                	sw	a0,20(a5)
C:\NucleiStudio_workspace\HBirdv2_Prj\fly_bird\Debug/../application/system.c:114
	bird.t2=SysTimer_GetLoadValue()/32; //初始时间
80001616:	d3cc                	sw	a1,36(a5)
C:\NucleiStudio_workspace\HBirdv2_Prj\fly_bird\Debug/../application/system.c:115
	bird.f=0; 		//初始翅膀状态
80001618:	0207a823          	sw	zero,48(a5)
C:\NucleiStudio_workspace\HBirdv2_Prj\fly_bird\Debug/../application/system.c:117
	bird.a=0.0005;//初始加速度
8000161c:	df98                	sw	a4,56(a5)
C:\NucleiStudio_workspace\HBirdv2_Prj\fly_bird\Debug/../application/system.c:118
	bird.num=0;
8000161e:	0207ae23          	sw	zero,60(a5)
C:\NucleiStudio_workspace\HBirdv2_Prj\fly_bird\Debug/../application/system.c:119
	bird.num_lock1=0;
80001622:	04079023          	sh	zero,64(a5)
C:\NucleiStudio_workspace\HBirdv2_Prj\fly_bird\Debug/../application/system.c:121
	bird.num_lock3=0;
80001626:	04078123          	sb	zero,66(a5)
C:\NucleiStudio_workspace\HBirdv2_Prj\fly_bird\Debug/../application/system.c:122
}
8000162a:	8082                	ret

8000162c <pillar_init>:
pillar_init():
C:\NucleiStudio_workspace\HBirdv2_Prj\fly_bird\Debug/../application/system.c:128
{
8000162c:	1101                	addi	sp,sp,-32
SysTimer_GetLoadValue():
C:\NucleiStudio_workspace\HBirdv2_Prj\fly_bird\hbird_sdk\NMSIS\Core\Include/core_feature_timer.h:106
8000162e:	0200c637          	lui	a2,0x200c
pillar_init():
C:\NucleiStudio_workspace\HBirdv2_Prj\fly_bird\Debug/../application/system.c:128
80001632:	c652                	sw	s4,12(sp)
80001634:	c456                	sw	s5,8(sp)
SysTimer_GetLoadValue():
C:\NucleiStudio_workspace\HBirdv2_Prj\fly_bird\hbird_sdk\NMSIS\Core\Include/core_feature_timer.h:106
80001636:	ff862a03          	lw	s4,-8(a2) # 200bff8 <__stack_size+0x200b7f8>
8000163a:	ffc62a83          	lw	s5,-4(a2)
8000163e:	ff862f03          	lw	t5,-8(a2)
80001642:	ffc62f83          	lw	t6,-4(a2)
80001646:	ff862e03          	lw	t3,-8(a2)
8000164a:	ffc62e83          	lw	t4,-4(a2)
pillar_init():
C:\NucleiStudio_workspace\HBirdv2_Prj\fly_bird\Debug/../application/system.c:128
8000164e:	ce22                	sw	s0,28(sp)
80001650:	ca4a                	sw	s2,20(sp)
80001652:	c84e                	sw	s3,16(sp)
80001654:	cc26                	sw	s1,24(sp)
C:\NucleiStudio_workspace\HBirdv2_Prj\fly_bird\Debug/../application/system.c:130
	pillar1.x0=game_show_width-380;  //初始位置
80001656:	98818693          	addi	a3,gp,-1656 # 900001e8 <pillar1>
C:\NucleiStudio_workspace\HBirdv2_Prj\fly_bird\Debug/../application/system.c:138
	pillar2.x0=game_show_width-170;  //初始位置
8000165a:	9d818713          	addi	a4,gp,-1576 # 90000238 <pillar2>
C:\NucleiStudio_workspace\HBirdv2_Prj\fly_bird\Debug/../application/system.c:130
	pillar1.x0=game_show_width-380;  //初始位置
8000165e:	10400793          	li	a5,260
C:\NucleiStudio_workspace\HBirdv2_Prj\fly_bird\Debug/../application/system.c:138
	pillar2.x0=game_show_width-170;  //初始位置
80001662:	1d600593          	li	a1,470
C:\NucleiStudio_workspace\HBirdv2_Prj\fly_bird\Debug/../application/system.c:132
	pillar1.h=40;//相对地高
80001666:	00280637          	lui	a2,0x280
C:\NucleiStudio_workspace\HBirdv2_Prj\fly_bird\Debug/../application/system.c:135
	pillar1.t0=SysTimer_GetLoadValue()/32; //初始时间
8000166a:	01ba9293          	slli	t0,s5,0x1b
C:\NucleiStudio_workspace\HBirdv2_Prj\fly_bird\Debug/../application/system.c:130
	pillar1.x0=game_show_width-380;  //初始位置
8000166e:	c29c                	sw	a5,0(a3)
C:\NucleiStudio_workspace\HBirdv2_Prj\fly_bird\Debug/../application/system.c:131
	pillar1.x1=game_show_width-380;  //初始位置
80001670:	c2dc                	sw	a5,4(a3)
C:\NucleiStudio_workspace\HBirdv2_Prj\fly_bird\Debug/../application/system.c:138
	pillar2.x0=game_show_width-170;  //初始位置
80001672:	c30c                	sw	a1,0(a4)
C:\NucleiStudio_workspace\HBirdv2_Prj\fly_bird\Debug/../application/system.c:147
	pillar3.x0=game_show_width+40;  //初始位置
80001674:	a2818793          	addi	a5,gp,-1496 # 90000288 <pillar3>
C:\NucleiStudio_workspace\HBirdv2_Prj\fly_bird\Debug/../application/system.c:139
	pillar2.x1=game_show_width-170;  //初始位置
80001678:	c34c                	sw	a1,4(a4)
C:\NucleiStudio_workspace\HBirdv2_Prj\fly_bird\Debug/../application/system.c:135
	pillar1.t0=SysTimer_GetLoadValue()/32; //初始时间
8000167a:	005a5313          	srli	t1,s4,0x5
C:\NucleiStudio_workspace\HBirdv2_Prj\fly_bird\Debug/../application/system.c:147
	pillar3.x0=game_show_width+40;  //初始位置
8000167e:	2a800593          	li	a1,680
C:\NucleiStudio_workspace\HBirdv2_Prj\fly_bird\Debug/../application/system.c:143
	pillar2.t0=SysTimer_GetLoadValue()/32; //初始时间
80001682:	01bf9993          	slli	s3,t6,0x1b
80001686:	005f5893          	srli	a7,t5,0x5
C:\NucleiStudio_workspace\HBirdv2_Prj\fly_bird\Debug/../application/system.c:152
	pillar3.t0=SysTimer_GetLoadValue()/32; //初始时间
8000168a:	01be9913          	slli	s2,t4,0x1b
8000168e:	005e5513          	srli	a0,t3,0x5
C:\NucleiStudio_workspace\HBirdv2_Prj\fly_bird\Debug/../application/system.c:134
	pillar1.j=100;   //间隙
80001692:	06400813          	li	a6,100
C:\NucleiStudio_workspace\HBirdv2_Prj\fly_bird\Debug/../application/system.c:132
	pillar1.h=40;//相对地高
80001696:	02860413          	addi	s0,a2,40 # 280028 <__stack_size+0x27f828>
C:\NucleiStudio_workspace\HBirdv2_Prj\fly_bird\Debug/../application/system.c:147
	pillar3.x0=game_show_width+40;  //初始位置
8000169a:	c38c                	sw	a1,0(a5)
C:\NucleiStudio_workspace\HBirdv2_Prj\fly_bird\Debug/../application/system.c:148
	pillar3.x1=game_show_width+40;  //初始位置
8000169c:	c3cc                	sw	a1,4(a5)
C:\NucleiStudio_workspace\HBirdv2_Prj\fly_bird\Debug/../application/system.c:135
	pillar1.t0=SysTimer_GetLoadValue()/32; //初始时间
8000169e:	00536333          	or	t1,t1,t0
C:\NucleiStudio_workspace\HBirdv2_Prj\fly_bird\Debug/../application/system.c:136
	pillar1.v0=0.1;		//初始速度
800016a2:	0ffff597          	auipc	a1,0xffff
800016a6:	9da5a583          	lw	a1,-1574(a1) # 9000007c <_impure_ptr+0xc>
C:\NucleiStudio_workspace\HBirdv2_Prj\fly_bird\Debug/../application/system.c:135
	pillar1.t0=SysTimer_GetLoadValue()/32; //初始时间
800016aa:	005ad393          	srli	t2,s5,0x5
C:\NucleiStudio_workspace\HBirdv2_Prj\fly_bird\Debug/../application/system.c:140
	pillar2.h=70;
800016ae:	04660293          	addi	t0,a2,70
C:\NucleiStudio_workspace\HBirdv2_Prj\fly_bird\Debug/../application/system.c:143
	pillar2.t0=SysTimer_GetLoadValue()/32; //初始时间
800016b2:	0138e8b3          	or	a7,a7,s3
C:\NucleiStudio_workspace\HBirdv2_Prj\fly_bird\Debug/../application/system.c:152
	pillar3.t0=SysTimer_GetLoadValue()/32; //初始时间
800016b6:	01256533          	or	a0,a0,s2
C:\NucleiStudio_workspace\HBirdv2_Prj\fly_bird\Debug/../application/system.c:143
	pillar2.t0=SysTimer_GetLoadValue()/32; //初始时间
800016ba:	005fdf13          	srli	t5,t6,0x5
C:\NucleiStudio_workspace\HBirdv2_Prj\fly_bird\Debug/../application/system.c:149
	pillar3.h=180;
800016be:	0b460613          	addi	a2,a2,180
C:\NucleiStudio_workspace\HBirdv2_Prj\fly_bird\Debug/../application/system.c:132
	pillar1.h=40;//相对地高
800016c2:	c680                	sw	s0,8(a3)
C:\NucleiStudio_workspace\HBirdv2_Prj\fly_bird\Debug/../application/system.c:152
	pillar3.t0=SysTimer_GetLoadValue()/32; //初始时间
800016c4:	005ede13          	srli	t3,t4,0x5
C:\NucleiStudio_workspace\HBirdv2_Prj\fly_bird\Debug/../application/system.c:134
	pillar1.j=100;   //间隙
800016c8:	01069623          	sh	a6,12(a3)
C:\NucleiStudio_workspace\HBirdv2_Prj\fly_bird\Debug/../application/system.c:135
	pillar1.t0=SysTimer_GetLoadValue()/32; //初始时间
800016cc:	0066a823          	sw	t1,16(a3)
800016d0:	0076aa23          	sw	t2,20(a3)
C:\NucleiStudio_workspace\HBirdv2_Prj\fly_bird\Debug/../application/system.c:136
	pillar1.v0=0.1;		//初始速度
800016d4:	d28c                	sw	a1,32(a3)
C:\NucleiStudio_workspace\HBirdv2_Prj\fly_bird\Debug/../application/system.c:140
	pillar2.h=70;
800016d6:	00572423          	sw	t0,8(a4)
C:\NucleiStudio_workspace\HBirdv2_Prj\fly_bird\Debug/../application/system.c:142
	pillar2.j=100;
800016da:	01071623          	sh	a6,12(a4)
C:\NucleiStudio_workspace\HBirdv2_Prj\fly_bird\Debug/../application/system.c:143
	pillar2.t0=SysTimer_GetLoadValue()/32; //初始时间
800016de:	01172823          	sw	a7,16(a4)
800016e2:	01e72a23          	sw	t5,20(a4)
C:\NucleiStudio_workspace\HBirdv2_Prj\fly_bird\Debug/../application/system.c:144
	pillar2.v0=0.1;		//初始速度
800016e6:	d30c                	sw	a1,32(a4)
C:\NucleiStudio_workspace\HBirdv2_Prj\fly_bird\Debug/../application/system.c:149
	pillar3.h=180;
800016e8:	c790                	sw	a2,8(a5)
C:\NucleiStudio_workspace\HBirdv2_Prj\fly_bird\Debug/../application/system.c:151
	pillar3.j=100;
800016ea:	01079623          	sh	a6,12(a5)
C:\NucleiStudio_workspace\HBirdv2_Prj\fly_bird\Debug/../application/system.c:152
	pillar3.t0=SysTimer_GetLoadValue()/32; //初始时间
800016ee:	cb88                	sw	a0,16(a5)
800016f0:	01c7aa23          	sw	t3,20(a5)
C:\NucleiStudio_workspace\HBirdv2_Prj\fly_bird\Debug/../application/system.c:158
}
800016f4:	4472                	lw	s0,28(sp)
C:\NucleiStudio_workspace\HBirdv2_Prj\fly_bird\Debug/../application/system.c:153
	pillar3.v0=0.1;		//初始速度
800016f6:	d38c                	sw	a1,32(a5)
C:\NucleiStudio_workspace\HBirdv2_Prj\fly_bird\Debug/../application/system.c:158
}
800016f8:	44e2                	lw	s1,24(sp)
800016fa:	4952                	lw	s2,20(sp)
800016fc:	49c2                	lw	s3,16(sp)
800016fe:	4a32                	lw	s4,12(sp)
80001700:	4aa2                	lw	s5,8(sp)
80001702:	6105                	addi	sp,sp,32
80001704:	8082                	ret

80001706 <draw_bird>:
draw_bird():
C:\NucleiStudio_workspace\HBirdv2_Prj\fly_bird\Debug/../application/system.c:300
{
80001706:	715d                	addi	sp,sp,-80
80001708:	c2a6                	sw	s1,68(sp)
8000170a:	c686                	sw	ra,76(sp)
8000170c:	c4a2                	sw	s0,72(sp)
8000170e:	c0ca                	sw	s2,64(sp)
80001710:	de4e                	sw	s3,60(sp)
80001712:	dc52                	sw	s4,56(sp)
80001714:	da56                	sw	s5,52(sp)
80001716:	d85a                	sw	s6,48(sp)
80001718:	d65e                	sw	s7,44(sp)
8000171a:	d462                	sw	s8,40(sp)
8000171c:	d266                	sw	s9,36(sp)
8000171e:	d06a                	sw	s10,32(sp)
80001720:	ce6e                	sw	s11,28(sp)
C:\NucleiStudio_workspace\HBirdv2_Prj\fly_bird\Debug/../application/system.c:301
	if(mode==1)
80001722:	4785                	li	a5,1
C:\NucleiStudio_workspace\HBirdv2_Prj\fly_bird\Debug/../application/system.c:300
{
80001724:	84aa                	mv	s1,a0
C:\NucleiStudio_workspace\HBirdv2_Prj\fly_bird\Debug/../application/system.c:301
	if(mode==1)
80001726:	0ef58363          	beq	a1,a5,8000180c <draw_bird+0x106>
8000172a:	00004797          	auipc	a5,0x4
8000172e:	54e78793          	addi	a5,a5,1358 # 80005c78 <bird_ico1>
C:\NucleiStudio_workspace\HBirdv2_Prj\fly_bird\Debug/../application/system.c:387
							case 3: LCD_DrawRectangle(bird->x0+j*2,(bird->y1)+i*2,2,2,0x8638);break;
80001732:	6da1                	lui	s11,0x8
80001734:	00004c17          	auipc	s8,0x4
80001738:	7a8c0c13          	addi	s8,s8,1960 # 80005edc <bird_ico3>
8000173c:	c43e                	sw	a5,8(sp)
8000173e:	00004b97          	auipc	s7,0x4
80001742:	606b8b93          	addi	s7,s7,1542 # 80005d44 <bird_ico2>
C:\NucleiStudio_workspace\HBirdv2_Prj\fly_bird\Debug/../application/system.c:301
	if(mode==1)
80001746:	c602                	sw	zero,12(sp)
80001748:	4a01                	li	s4,0
8000174a:	4c8d                	li	s9,3
C:\NucleiStudio_workspace\HBirdv2_Prj\fly_bird\Debug/../application/system.c:387
							case 3: LCD_DrawRectangle(bird->x0+j*2,(bird->y1)+i*2,2,2,0x8638);break;
8000174c:	638d8d93          	addi	s11,s11,1592 # 8638 <__stack_size+0x7e38>
80001750:	4b11                	li	s6,4
80001752:	4a85                	li	s5,1
C:\NucleiStudio_workspace\HBirdv2_Prj\fly_bird\Debug/../application/system.c:301
	if(mode==1)
80001754:	4d22                	lw	s10,8(sp)
80001756:	4401                	li	s0,0
C:\NucleiStudio_workspace\HBirdv2_Prj\fly_bird\Debug/../application/system.c:359
				switch(bird->f)
80001758:	4909                	li	s2,2
C:\NucleiStudio_workspace\HBirdv2_Prj\fly_bird\Debug/../application/system.c:357
		for(char j=0;j<17;j++)
8000175a:	02200993          	li	s3,34
C:\NucleiStudio_workspace\HBirdv2_Prj\fly_bird\Debug/../application/system.c:359
				switch(bird->f)
8000175e:	589c                	lw	a5,48(s1)
80001760:	0b278163          	beq	a5,s2,80001802 <draw_bird+0xfc>
80001764:	08f96263          	bltu	s2,a5,800017e8 <draw_bird+0xe2>
80001768:	cfc9                	beqz	a5,80001802 <draw_bird+0xfc>
C:\NucleiStudio_workspace\HBirdv2_Prj\fly_bird\Debug/../application/system.c:372
						switch(bird_ico2[i*17+j])
8000176a:	008b87b3          	add	a5,s7,s0
8000176e:	0007d783          	lhu	a5,0(a5)
80001772:	01978863          	beq	a5,s9,80001782 <draw_bird+0x7c>
80001776:	08fce363          	bltu	s9,a5,800017fc <draw_bird+0xf6>
8000177a:	01578463          	beq	a5,s5,80001782 <draw_bird+0x7c>
8000177e:	01279f63          	bne	a5,s2,8000179c <draw_bird+0x96>
C:\NucleiStudio_workspace\HBirdv2_Prj\fly_bird\Debug/../application/system.c:398
							case 4: LCD_DrawRectangle(bird->x0+j*2,(bird->y1)+i*2,2,2,0x8638);break;
80001782:	448c                	lw	a1,8(s1)
80001784:	4088                	lw	a0,0(s1)
80001786:	876e                	mv	a4,s11
80001788:	95d2                	add	a1,a1,s4
8000178a:	9522                	add	a0,a0,s0
8000178c:	05c2                	slli	a1,a1,0x10
8000178e:	0542                	slli	a0,a0,0x10
80001790:	4689                	li	a3,2
80001792:	4609                	li	a2,2
80001794:	85c1                	srai	a1,a1,0x10
80001796:	8541                	srai	a0,a0,0x10
80001798:	80eff0ef          	jal	ra,800007a6 <LCD_DrawRectangle>
C:\NucleiStudio_workspace\HBirdv2_Prj\fly_bird\Debug/../application/system.c:357 (discriminator 2)
		for(char j=0;j<17;j++)
8000179c:	0409                	addi	s0,s0,2
8000179e:	0d05                	addi	s10,s10,1
800017a0:	fb341fe3          	bne	s0,s3,8000175e <draw_bird+0x58>
C:\NucleiStudio_workspace\HBirdv2_Prj\fly_bird\Debug/../application/system.c:355 (discriminator 2)
		for(char i=0;i<12;i++)
800017a4:	47b2                	lw	a5,12(sp)
800017a6:	46a2                	lw	a3,8(sp)
800017a8:	0a09                	addi	s4,s4,2
800017aa:	01178713          	addi	a4,a5,17
800017ae:	06c5                	addi	a3,a3,17
800017b0:	0a42                	slli	s4,s4,0x10
800017b2:	c63a                	sw	a4,12(sp)
800017b4:	0cc00793          	li	a5,204
800017b8:	c436                	sw	a3,8(sp)
800017ba:	010a5a13          	srli	s4,s4,0x10
800017be:	022c0c13          	addi	s8,s8,34
800017c2:	022b8b93          	addi	s7,s7,34
800017c6:	f8f717e3          	bne	a4,a5,80001754 <draw_bird+0x4e>
C:\NucleiStudio_workspace\HBirdv2_Prj\fly_bird\Debug/../application/system.c:407
}
800017ca:	40b6                	lw	ra,76(sp)
800017cc:	4426                	lw	s0,72(sp)
800017ce:	4496                	lw	s1,68(sp)
800017d0:	4906                	lw	s2,64(sp)
800017d2:	59f2                	lw	s3,60(sp)
800017d4:	5a62                	lw	s4,56(sp)
800017d6:	5ad2                	lw	s5,52(sp)
800017d8:	5b42                	lw	s6,48(sp)
800017da:	5bb2                	lw	s7,44(sp)
800017dc:	5c22                	lw	s8,40(sp)
800017de:	5c92                	lw	s9,36(sp)
800017e0:	5d02                	lw	s10,32(sp)
800017e2:	4df2                	lw	s11,28(sp)
800017e4:	6161                	addi	sp,sp,80
800017e6:	8082                	ret
C:\NucleiStudio_workspace\HBirdv2_Prj\fly_bird\Debug/../application/system.c:359
				switch(bird->f)
800017e8:	fb979ae3          	bne	a5,s9,8000179c <draw_bird+0x96>
C:\NucleiStudio_workspace\HBirdv2_Prj\fly_bird\Debug/../application/system.c:392
						switch(bird_ico3[i*17+j])
800017ec:	008c07b3          	add	a5,s8,s0
800017f0:	0007d783          	lhu	a5,0(a5)
800017f4:	f99787e3          	beq	a5,s9,80001782 <draw_bird+0x7c>
800017f8:	f8fcf1e3          	bgeu	s9,a5,8000177a <draw_bird+0x74>
800017fc:	f96783e3          	beq	a5,s6,80001782 <draw_bird+0x7c>
80001800:	bf71                	j	8000179c <draw_bird+0x96>
C:\NucleiStudio_workspace\HBirdv2_Prj\fly_bird\Debug/../application/system.c:382
						switch(bird_ico1[i*17+j])
80001802:	000d4783          	lbu	a5,0(s10)
80001806:	f79798e3          	bne	a5,s9,80001776 <draw_bird+0x70>
8000180a:	bfa5                	j	80001782 <draw_bird+0x7c>
C:\NucleiStudio_workspace\HBirdv2_Prj\fly_bird\Debug/../application/system.c:335
							case 3: LCD_DrawRectangle(bird->x0+j*2,(bird->y1)+i*2,2,2,0XFE00);break;
8000180c:	6b41                	lui	s6,0x10
8000180e:	00004797          	auipc	a5,0x4
80001812:	46a78793          	addi	a5,a5,1130 # 80005c78 <bird_ico1>
80001816:	e00b0d13          	addi	s10,s6,-512 # fe00 <__stack_size+0xf600>
8000181a:	00004a97          	auipc	s5,0x4
8000181e:	6c2a8a93          	addi	s5,s5,1730 # 80005edc <bird_ico3>
80001822:	c43e                	sw	a5,8(sp)
80001824:	00004a17          	auipc	s4,0x4
80001828:	520a0a13          	addi	s4,s4,1312 # 80005d44 <bird_ico2>
C:\NucleiStudio_workspace\HBirdv2_Prj\fly_bird\Debug/../application/system.c:301
	if(mode==1)
8000182c:	c602                	sw	zero,12(sp)
8000182e:	4401                	li	s0,0
80001830:	4b8d                	li	s7,3
80001832:	4991                	li	s3,4
C:\NucleiStudio_workspace\HBirdv2_Prj\fly_bird\Debug/../application/system.c:334
							case 2: LCD_DrawRectangle(bird->x0+j*2,(bird->y1)+i*2,2,2,0XFFFF);break;
80001834:	1b7d                	addi	s6,s6,-1
C:\NucleiStudio_workspace\HBirdv2_Prj\fly_bird\Debug/../application/system.c:300
{
80001836:	4ca2                	lw	s9,8(sp)
80001838:	4d81                	li	s11,0
C:\NucleiStudio_workspace\HBirdv2_Prj\fly_bird\Debug/../application/system.c:307
				switch(bird->f)
8000183a:	4c09                	li	s8,2
8000183c:	4905                	li	s2,1
8000183e:	589c                	lw	a5,48(s1)
80001840:	07878763          	beq	a5,s8,800018ae <draw_bird+0x1a8>
80001844:	06fc6d63          	bltu	s8,a5,800018be <draw_bird+0x1b8>
80001848:	c3bd                	beqz	a5,800018ae <draw_bird+0x1a8>
C:\NucleiStudio_workspace\HBirdv2_Prj\fly_bird\Debug/../application/system.c:320
						switch(bird_ico2[i*17+j])
8000184a:	01ba07b3          	add	a5,s4,s11
8000184e:	0007d783          	lhu	a5,0(a5)
80001852:	07778263          	beq	a5,s7,800018b6 <draw_bird+0x1b0>
80001856:	06fbee63          	bltu	s7,a5,800018d2 <draw_bird+0x1cc>
8000185a:	09278463          	beq	a5,s2,800018e2 <draw_bird+0x1dc>
8000185e:	01879f63          	bne	a5,s8,8000187c <draw_bird+0x176>
C:\NucleiStudio_workspace\HBirdv2_Prj\fly_bird\Debug/../application/system.c:344
							case 2: LCD_DrawRectangle(bird->x0+j*2,(bird->y1)+i*2,2,2,0XFFFF);break;
80001862:	448c                	lw	a1,8(s1)
80001864:	4088                	lw	a0,0(s1)
80001866:	875a                	mv	a4,s6
C:\NucleiStudio_workspace\HBirdv2_Prj\fly_bird\Debug/../application/system.c:346
							case 4: LCD_DrawRectangle(bird->x0+j*2,(bird->y1)+i*2,2,2,0XF800);break;
80001868:	95a2                	add	a1,a1,s0
8000186a:	956e                	add	a0,a0,s11
8000186c:	05c2                	slli	a1,a1,0x10
8000186e:	0542                	slli	a0,a0,0x10
80001870:	4689                	li	a3,2
80001872:	4609                	li	a2,2
80001874:	85c1                	srai	a1,a1,0x10
80001876:	8541                	srai	a0,a0,0x10
80001878:	f2ffe0ef          	jal	ra,800007a6 <LCD_DrawRectangle>
C:\NucleiStudio_workspace\HBirdv2_Prj\fly_bird\Debug/../application/system.c:305 (discriminator 2)
		for(char j=0;j<17;j++)
8000187c:	0d89                	addi	s11,s11,2
8000187e:	02200793          	li	a5,34
80001882:	0c85                	addi	s9,s9,1
80001884:	fafd9de3          	bne	s11,a5,8000183e <draw_bird+0x138>
C:\NucleiStudio_workspace\HBirdv2_Prj\fly_bird\Debug/../application/system.c:303 (discriminator 2)
		for(char i=0;i<12;i++)
80001888:	47b2                	lw	a5,12(sp)
8000188a:	46a2                	lw	a3,8(sp)
8000188c:	0409                	addi	s0,s0,2
8000188e:	01178713          	addi	a4,a5,17
80001892:	06c5                	addi	a3,a3,17
80001894:	0442                	slli	s0,s0,0x10
80001896:	c63a                	sw	a4,12(sp)
80001898:	0cc00793          	li	a5,204
8000189c:	c436                	sw	a3,8(sp)
8000189e:	8041                	srli	s0,s0,0x10
800018a0:	022a8a93          	addi	s5,s5,34
800018a4:	022a0a13          	addi	s4,s4,34
800018a8:	f8f717e3          	bne	a4,a5,80001836 <draw_bird+0x130>
800018ac:	bf39                	j	800017ca <draw_bird+0xc4>
C:\NucleiStudio_workspace\HBirdv2_Prj\fly_bird\Debug/../application/system.c:330
						switch(bird_ico1[i*17+j])
800018ae:	000cc783          	lbu	a5,0(s9)
800018b2:	fb7792e3          	bne	a5,s7,80001856 <draw_bird+0x150>
C:\NucleiStudio_workspace\HBirdv2_Prj\fly_bird\Debug/../application/system.c:345
							case 3: LCD_DrawRectangle(bird->x0+j*2,(bird->y1)+i*2,2,2,0XFE00);break;
800018b6:	448c                	lw	a1,8(s1)
800018b8:	4088                	lw	a0,0(s1)
800018ba:	876a                	mv	a4,s10
800018bc:	b775                	j	80001868 <draw_bird+0x162>
C:\NucleiStudio_workspace\HBirdv2_Prj\fly_bird\Debug/../application/system.c:307
				switch(bird->f)
800018be:	fb779fe3          	bne	a5,s7,8000187c <draw_bird+0x176>
C:\NucleiStudio_workspace\HBirdv2_Prj\fly_bird\Debug/../application/system.c:340
						switch(bird_ico3[i*17+j])
800018c2:	01ba87b3          	add	a5,s5,s11
800018c6:	0007d783          	lhu	a5,0(a5)
800018ca:	ff7786e3          	beq	a5,s7,800018b6 <draw_bird+0x1b0>
800018ce:	f8fbf6e3          	bgeu	s7,a5,8000185a <draw_bird+0x154>
800018d2:	fb3795e3          	bne	a5,s3,8000187c <draw_bird+0x176>
C:\NucleiStudio_workspace\HBirdv2_Prj\fly_bird\Debug/../application/system.c:346
							case 4: LCD_DrawRectangle(bird->x0+j*2,(bird->y1)+i*2,2,2,0XF800);break;
800018d6:	67c1                	lui	a5,0x10
800018d8:	448c                	lw	a1,8(s1)
800018da:	4088                	lw	a0,0(s1)
800018dc:	80078713          	addi	a4,a5,-2048 # f800 <__stack_size+0xf000>
800018e0:	b761                	j	80001868 <draw_bird+0x162>
C:\NucleiStudio_workspace\HBirdv2_Prj\fly_bird\Debug/../application/system.c:343
							case 1: LCD_DrawRectangle(bird->x0+j*2,(bird->y1)+i*2,2,2,0X0000);break;
800018e2:	448c                	lw	a1,8(s1)
800018e4:	4088                	lw	a0,0(s1)
800018e6:	4701                	li	a4,0
800018e8:	b741                	j	80001868 <draw_bird+0x162>

800018ea <draw_brick>:
draw_brick():
C:\NucleiStudio_workspace\HBirdv2_Prj\fly_bird\Debug/../application/system.c:458
//画地面
void draw_brick(void)
{
800018ea:	1141                	addi	sp,sp,-16
C:\NucleiStudio_workspace\HBirdv2_Prj\fly_bird\Debug/../application/system.c:459
	LCD_DrawRectangle(0,game_show_height,game_show_width,1,0X0000);
800018ec:	4701                	li	a4,0
800018ee:	4685                	li	a3,1
800018f0:	28000613          	li	a2,640
800018f4:	1ae00593          	li	a1,430
800018f8:	4501                	li	a0,0
C:\NucleiStudio_workspace\HBirdv2_Prj\fly_bird\Debug/../application/system.c:458
{
800018fa:	c606                	sw	ra,12(sp)
C:\NucleiStudio_workspace\HBirdv2_Prj\fly_bird\Debug/../application/system.c:459
	LCD_DrawRectangle(0,game_show_height,game_show_width,1,0X0000);
800018fc:	eabfe0ef          	jal	ra,800007a6 <LCD_DrawRectangle>
C:\NucleiStudio_workspace\HBirdv2_Prj\fly_bird\Debug/../application/system.c:460
	LCD_Fill(0,game_show_height+1,game_show_width,7,0x8dc3);
80001900:	6725                	lui	a4,0x9
80001902:	dc370713          	addi	a4,a4,-573 # 8dc3 <__stack_size+0x85c3>
80001906:	469d                	li	a3,7
80001908:	28000613          	li	a2,640
8000190c:	1af00593          	li	a1,431
80001910:	4501                	li	a0,0
80001912:	d3ffe0ef          	jal	ra,80000650 <LCD_Fill>
C:\NucleiStudio_workspace\HBirdv2_Prj\fly_bird\Debug/../application/system.c:461
	LCD_DrawRectangle(0,game_show_height+9,game_show_width,1,0X0000);
80001916:	4701                	li	a4,0
80001918:	4685                	li	a3,1
8000191a:	28000613          	li	a2,640
8000191e:	1b700593          	li	a1,439
80001922:	4501                	li	a0,0
80001924:	e83fe0ef          	jal	ra,800007a6 <LCD_DrawRectangle>
C:\NucleiStudio_workspace\HBirdv2_Prj\fly_bird\Debug/../application/system.c:464

	
	LCD_ShowNum(92,game_show_height+14,bird.num,3,24);
80001928:	4761                	li	a4,24
8000192a:	468d                	li	a3,3
8000192c:	9341a603          	lw	a2,-1740(gp) # 90000194 <bird+0x3c>
80001930:	1bc00593          	li	a1,444
80001934:	05c00513          	li	a0,92
80001938:	b30ff0ef          	jal	ra,80000c68 <LCD_ShowNum>
C:\NucleiStudio_workspace\HBirdv2_Prj\fly_bird\Debug/../application/system.c:467
	LCD_ShowNum(288,game_show_height+14,_game_bird_conf.fps_num,3,24);
	
}
8000193c:	40b2                	lw	ra,12(sp)
C:\NucleiStudio_workspace\HBirdv2_Prj\fly_bird\Debug/../application/system.c:465
	LCD_ShowNum(288,game_show_height+14,_game_bird_conf.fps_num,3,24);
8000193e:	8f01d603          	lhu	a2,-1808(gp) # 90000150 <_game_bird_conf+0x18>
80001942:	4761                	li	a4,24
80001944:	468d                	li	a3,3
80001946:	1bc00593          	li	a1,444
8000194a:	12000513          	li	a0,288
C:\NucleiStudio_workspace\HBirdv2_Prj\fly_bird\Debug/../application/system.c:467
}
8000194e:	0141                	addi	sp,sp,16
C:\NucleiStudio_workspace\HBirdv2_Prj\fly_bird\Debug/../application/system.c:465
	LCD_ShowNum(288,game_show_height+14,_game_bird_conf.fps_num,3,24);
80001950:	b18ff06f          	j	80000c68 <LCD_ShowNum>

80001954 <game_flappy_bird_init>:
game_flappy_bird_init():
C:\NucleiStudio_workspace\HBirdv2_Prj\fly_bird\Debug/../application/system.c:517


//flappy bird初始化
void game_flappy_bird_init(void)
{
	POINT_COLOR= RED;
80001954:	80000793          	li	a5,-2048
80001958:	82f19523          	sh	a5,-2006(gp) # 9000008a <POINT_COLOR>
C:\NucleiStudio_workspace\HBirdv2_Prj\fly_bird\Debug/../application/system.c:519
	BACK_COLOR = 0x8638;
	LCD_Fill(0,0,game_show_width,game_show_height,BACK_COLOR);
8000195c:	6721                	lui	a4,0x8
C:\NucleiStudio_workspace\HBirdv2_Prj\fly_bird\Debug/../application/system.c:518
	BACK_COLOR = 0x8638;
8000195e:	77e1                	lui	a5,0xffff8
C:\NucleiStudio_workspace\HBirdv2_Prj\fly_bird\Debug/../application/system.c:516
{
80001960:	1141                	addi	sp,sp,-16
C:\NucleiStudio_workspace\HBirdv2_Prj\fly_bird\Debug/../application/system.c:518
	BACK_COLOR = 0x8638;
80001962:	63878793          	addi	a5,a5,1592 # ffff8638 <_sp+0x6fff0638>
C:\NucleiStudio_workspace\HBirdv2_Prj\fly_bird\Debug/../application/system.c:519
	LCD_Fill(0,0,game_show_width,game_show_height,BACK_COLOR);
80001966:	63870713          	addi	a4,a4,1592 # 8638 <__stack_size+0x7e38>
8000196a:	1ae00693          	li	a3,430
8000196e:	28000613          	li	a2,640
80001972:	4581                	li	a1,0
80001974:	4501                	li	a0,0
C:\NucleiStudio_workspace\HBirdv2_Prj\fly_bird\Debug/../application/system.c:516
{
80001976:	c606                	sw	ra,12(sp)
C:\NucleiStudio_workspace\HBirdv2_Prj\fly_bird\Debug/../application/system.c:518
	BACK_COLOR = 0x8638;
80001978:	80f19423          	sh	a5,-2040(gp) # 90000068 <BACK_COLOR>
C:\NucleiStudio_workspace\HBirdv2_Prj\fly_bird\Debug/../application/system.c:519
	LCD_Fill(0,0,game_show_width,game_show_height,BACK_COLOR);
8000197c:	cd5fe0ef          	jal	ra,80000650 <LCD_Fill>
C:\NucleiStudio_workspace\HBirdv2_Prj\fly_bird\Debug/../application/system.c:520
	LCD_ShowString(20,game_show_height+14,144,24,24,"Score:");
80001980:	00004797          	auipc	a5,0x4
80001984:	27c78793          	addi	a5,a5,636 # 80005bfc <asc2_2412+0xd5c>
80001988:	4761                	li	a4,24
8000198a:	46e1                	li	a3,24
8000198c:	09000613          	li	a2,144
80001990:	1bc00593          	li	a1,444
80001994:	4551                	li	a0,20
80001996:	b92ff0ef          	jal	ra,80000d28 <LCD_ShowString>
C:\NucleiStudio_workspace\HBirdv2_Prj\fly_bird\Debug/../application/system.c:521
	LCD_ShowString(240,game_show_height+14,96,24,24,"FPS:");
8000199a:	00004797          	auipc	a5,0x4
8000199e:	26a78793          	addi	a5,a5,618 # 80005c04 <asc2_2412+0xd64>
800019a2:	4761                	li	a4,24
800019a4:	46e1                	li	a3,24
800019a6:	06000613          	li	a2,96
800019aa:	1bc00593          	li	a1,444
800019ae:	0f000513          	li	a0,240
800019b2:	b76ff0ef          	jal	ra,80000d28 <LCD_ShowString>
C:\NucleiStudio_workspace\HBirdv2_Prj\fly_bird\Debug/../application/system.c:522
	bird_init(); 
800019b6:	3efd                	jal	800015b4 <bird_init>
C:\NucleiStudio_workspace\HBirdv2_Prj\fly_bird\Debug/../application/system.c:523
	pillar_init();
800019b8:	3995                	jal	8000162c <pillar_init>
C:\NucleiStudio_workspace\HBirdv2_Prj\fly_bird\Debug/../application/system.c:524
	draw_brick();      				//画地面
800019ba:	3f05                	jal	800018ea <draw_brick>
C:\NucleiStudio_workspace\HBirdv2_Prj\fly_bird\Debug/../application/system.c:525
	draw_pillar(&pillar1,1);    //画柱1
800019bc:	4585                	li	a1,1
800019be:	98818513          	addi	a0,gp,-1656 # 900001e8 <pillar1>
800019c2:	edcff0ef          	jal	ra,8000109e <draw_pillar>
C:\NucleiStudio_workspace\HBirdv2_Prj\fly_bird\Debug/../application/system.c:526
	draw_pillar(&pillar2,1);    //画柱2
800019c6:	4585                	li	a1,1
800019c8:	9d818513          	addi	a0,gp,-1576 # 90000238 <pillar2>
800019cc:	ed2ff0ef          	jal	ra,8000109e <draw_pillar>
C:\NucleiStudio_workspace\HBirdv2_Prj\fly_bird\Debug/../application/system.c:527
	draw_pillar(&pillar3,1);    //画柱2
800019d0:	4585                	li	a1,1
800019d2:	a2818513          	addi	a0,gp,-1496 # 90000288 <pillar3>
800019d6:	ec8ff0ef          	jal	ra,8000109e <draw_pillar>
C:\NucleiStudio_workspace\HBirdv2_Prj\fly_bird\Debug/../application/system.c:532
	draw_bird(&bird,1);


	
}
800019da:	40b2                	lw	ra,12(sp)
C:\NucleiStudio_workspace\HBirdv2_Prj\fly_bird\Debug/../application/system.c:528
	draw_bird(&bird,1);
800019dc:	4585                	li	a1,1
800019de:	8f818513          	addi	a0,gp,-1800 # 90000158 <bird>
C:\NucleiStudio_workspace\HBirdv2_Prj\fly_bird\Debug/../application/system.c:532
}
800019e2:	0141                	addi	sp,sp,16
C:\NucleiStudio_workspace\HBirdv2_Prj\fly_bird\Debug/../application/system.c:528
	draw_bird(&bird,1);
800019e4:	b30d                	j	80001706 <draw_bird>

800019e6 <game_flappy_bird_run_key>:
game_flappy_bird_run_key():
C:\NucleiStudio_workspace\HBirdv2_Prj\fly_bird\Debug/../application/system.c:536
//flappy bird游戏运行时按键处理
void game_flappy_bird_run_key(void)
{
	if(key_data==1 | PS2_Y_In)//按下只执行一次
800019e6:	10012737          	lui	a4,0x10012
800019ea:	82c1c783          	lbu	a5,-2004(gp) # 9000008c <key_data>
800019ee:	4358                	lw	a4,4(a4)
800019f0:	17fd                	addi	a5,a5,-1
800019f2:	100006b7          	lui	a3,0x10000
800019f6:	0017b793          	seqz	a5,a5
800019fa:	8f75                	and	a4,a4,a3
800019fc:	8fd9                	or	a5,a5,a4
800019fe:	cb95                	beqz	a5,80001a32 <game_flappy_bird_run_key+0x4c>
C:\NucleiStudio_workspace\HBirdv2_Prj\fly_bird\Debug/../application/system.c:538
	{
		bird.y0=bird.y1; //更新位置
80001a00:	8f818793          	addi	a5,gp,-1800 # 90000158 <bird>
80001a04:	4798                	lw	a4,8(a5)
80001a06:	c3d8                	sw	a4,4(a5)
SysTimer_GetLoadValue():
C:\NucleiStudio_workspace\HBirdv2_Prj\fly_bird\hbird_sdk\NMSIS\Core\Include/core_feature_timer.h:106
80001a08:	0200c737          	lui	a4,0x200c
80001a0c:	ff872603          	lw	a2,-8(a4) # 200bff8 <__stack_size+0x200b7f8>
80001a10:	ffc72683          	lw	a3,-4(a4)
game_flappy_bird_run_key():
C:\NucleiStudio_workspace\HBirdv2_Prj\fly_bird\Debug/../application/system.c:540
		bird.t0=SysTimer_GetLoadValue()/32; //更新初时间
		bird.v0=0.3; //速度
80001a14:	0fffe717          	auipc	a4,0xfffe
80001a18:	66c72703          	lw	a4,1644(a4) # 90000080 <_impure_ptr+0x10>
80001a1c:	dbd8                	sw	a4,52(a5)
C:\NucleiStudio_workspace\HBirdv2_Prj\fly_bird\Debug/../application/system.c:542
		
		key_data=0; //表示按下
80001a1e:	82018623          	sb	zero,-2004(gp) # 9000008c <key_data>
C:\NucleiStudio_workspace\HBirdv2_Prj\fly_bird\Debug/../application/system.c:539
		bird.t0=SysTimer_GetLoadValue()/32; //更新初时间
80001a22:	01b69593          	slli	a1,a3,0x1b
80001a26:	00565713          	srli	a4,a2,0x5
80001a2a:	8f4d                	or	a4,a4,a1
80001a2c:	8295                	srli	a3,a3,0x5
80001a2e:	cb98                	sw	a4,16(a5)
80001a30:	cbd4                	sw	a3,20(a5)
C:\NucleiStudio_workspace\HBirdv2_Prj\fly_bird\Debug/../application/system.c:544
	}
}
80001a32:	8082                	ret

80001a34 <game_flappy_bird_start_key>:
game_flappy_bird_start_key():
C:\NucleiStudio_workspace\HBirdv2_Prj\fly_bird\Debug/../application/system.c:548

//flappy bird游戏开始时按键处理
void game_flappy_bird_start_key(void)
{
80001a34:	1101                	addi	sp,sp,-32
80001a36:	ce06                	sw	ra,28(sp)
80001a38:	cc22                	sw	s0,24(sp)
80001a3a:	ca26                	sw	s1,20(sp)
80001a3c:	c84a                	sw	s2,16(sp)
80001a3e:	c64e                	sw	s3,12(sp)
80001a40:	c452                	sw	s4,8(sp)
80001a42:	c256                	sw	s5,4(sp)
C:\NucleiStudio_workspace\HBirdv2_Prj\fly_bird\Debug/../application/system.c:549
	bird_last=bird;
80001a44:	8f818793          	addi	a5,gp,-1800 # 90000158 <bird>
80001a48:	94018713          	addi	a4,gp,-1728 # 900001a0 <bird_last>
80001a4c:	94018693          	addi	a3,gp,-1728 # 900001a0 <bird_last>
80001a50:	0007a303          	lw	t1,0(a5)
80001a54:	0047a883          	lw	a7,4(a5)
80001a58:	0087a803          	lw	a6,8(a5)
80001a5c:	47c8                	lw	a0,12(a5)
80001a5e:	4b8c                	lw	a1,16(a5)
80001a60:	4bd0                	lw	a2,20(a5)
80001a62:	00672023          	sw	t1,0(a4)
80001a66:	01172223          	sw	a7,4(a4)
80001a6a:	01072423          	sw	a6,8(a4)
80001a6e:	c748                	sw	a0,12(a4)
80001a70:	cb0c                	sw	a1,16(a4)
80001a72:	cb50                	sw	a2,20(a4)
80001a74:	07e1                	addi	a5,a5,24
80001a76:	0761                	addi	a4,a4,24
80001a78:	fcd79ce3          	bne	a5,a3,80001a50 <game_flappy_bird_start_key+0x1c>
C:\NucleiStudio_workspace\HBirdv2_Prj\fly_bird\Debug/../application/system.c:550
	pillar1_last=pillar1;
80001a7c:	98818713          	addi	a4,gp,-1656 # 900001e8 <pillar1>
C:\NucleiStudio_workspace\HBirdv2_Prj\fly_bird\Debug/../application/system.c:551
	pillar2_last=pillar2;
80001a80:	9d818793          	addi	a5,gp,-1576 # 90000238 <pillar2>
C:\NucleiStudio_workspace\HBirdv2_Prj\fly_bird\Debug/../application/system.c:550
	pillar1_last=pillar1;
80001a84:	4304                	lw	s1,0(a4)
80001a86:	4340                	lw	s0,4(a4)
80001a88:	00872383          	lw	t2,8(a4)
80001a8c:	00c72283          	lw	t0,12(a4)
80001a90:	01072f83          	lw	t6,16(a4)
80001a94:	01472f03          	lw	t5,20(a4)
80001a98:	01872e83          	lw	t4,24(a4)
80001a9c:	01c72e03          	lw	t3,28(a4)
80001aa0:	02072303          	lw	t1,32(a4)
80001aa4:	02472883          	lw	a7,36(a4)
C:\NucleiStudio_workspace\HBirdv2_Prj\fly_bird\Debug/../application/system.c:551
	pillar2_last=pillar2;
80001aa8:	0007a803          	lw	a6,0(a5)
80001aac:	43c8                	lw	a0,4(a5)
80001aae:	478c                	lw	a1,8(a5)
C:\NucleiStudio_workspace\HBirdv2_Prj\fly_bird\Debug/../application/system.c:550
	pillar1_last=pillar1;
80001ab0:	9b018613          	addi	a2,gp,-1616 # 90000210 <pillar1_last>
C:\NucleiStudio_workspace\HBirdv2_Prj\fly_bird\Debug/../application/system.c:551
	pillar2_last=pillar2;
80001ab4:	a0018713          	addi	a4,gp,-1536 # 90000260 <pillar2_last>
C:\NucleiStudio_workspace\HBirdv2_Prj\fly_bird\Debug/../application/system.c:552
	pillar3_last=pillar3;
80001ab8:	a2818693          	addi	a3,gp,-1496 # 90000288 <pillar3>
C:\NucleiStudio_workspace\HBirdv2_Prj\fly_bird\Debug/../application/system.c:550
	pillar1_last=pillar1;
80001abc:	c204                	sw	s1,0(a2)
80001abe:	c240                	sw	s0,4(a2)
80001ac0:	00762423          	sw	t2,8(a2)
80001ac4:	00562623          	sw	t0,12(a2)
80001ac8:	01f62823          	sw	t6,16(a2)
80001acc:	01e62a23          	sw	t5,20(a2)
80001ad0:	01d62c23          	sw	t4,24(a2)
80001ad4:	01c62e23          	sw	t3,28(a2)
80001ad8:	02662023          	sw	t1,32(a2)
80001adc:	03162223          	sw	a7,36(a2)
C:\NucleiStudio_workspace\HBirdv2_Prj\fly_bird\Debug/../application/system.c:551
	pillar2_last=pillar2;
80001ae0:	01072023          	sw	a6,0(a4)
80001ae4:	c348                	sw	a0,4(a4)
80001ae6:	00c7aa83          	lw	s5,12(a5)
80001aea:	0107aa03          	lw	s4,16(a5)
80001aee:	0147a983          	lw	s3,20(a5)
80001af2:	0187a903          	lw	s2,24(a5)
80001af6:	4fc4                	lw	s1,28(a5)
80001af8:	5380                	lw	s0,32(a5)
80001afa:	0247a383          	lw	t2,36(a5)
80001afe:	c70c                	sw	a1,8(a4)
C:\NucleiStudio_workspace\HBirdv2_Prj\fly_bird\Debug/../application/system.c:552
	pillar3_last=pillar3;
80001b00:	4290                	lw	a2,0(a3)
80001b02:	a5018793          	addi	a5,gp,-1456 # 900002b0 <pillar3_last>
C:\NucleiStudio_workspace\HBirdv2_Prj\fly_bird\Debug/../application/system.c:554

	if(key_data==pad_run | PS2_A_In)//按下只执行一次
80001b06:	100125b7          	lui	a1,0x10012
C:\NucleiStudio_workspace\HBirdv2_Prj\fly_bird\Debug/../application/system.c:552
	pillar3_last=pillar3;
80001b0a:	c390                	sw	a2,0(a5)
C:\NucleiStudio_workspace\HBirdv2_Prj\fly_bird\Debug/../application/system.c:554
	if(key_data==pad_run | PS2_A_In)//按下只执行一次
80001b0c:	82c1c603          	lbu	a2,-2004(gp) # 9000008c <key_data>
80001b10:	41cc                	lw	a1,4(a1)
C:\NucleiStudio_workspace\HBirdv2_Prj\fly_bird\Debug/../application/system.c:552
	pillar3_last=pillar3;
80001b12:	0046a283          	lw	t0,4(a3) # 10000004 <__stack_size+0xffff804>
80001b16:	0086af83          	lw	t6,8(a3)
80001b1a:	00c6af03          	lw	t5,12(a3)
80001b1e:	0106ae83          	lw	t4,16(a3)
80001b22:	0146ae03          	lw	t3,20(a3)
80001b26:	0186a303          	lw	t1,24(a3)
80001b2a:	01c6a883          	lw	a7,28(a3)
80001b2e:	0206a803          	lw	a6,32(a3)
80001b32:	52c8                	lw	a0,36(a3)
C:\NucleiStudio_workspace\HBirdv2_Prj\fly_bird\Debug/../application/system.c:554
	if(key_data==pad_run | PS2_A_In)//按下只执行一次
80001b34:	ffb60693          	addi	a3,a2,-5
80001b38:	40000637          	lui	a2,0x40000
80001b3c:	0016b693          	seqz	a3,a3
80001b40:	8e6d                	and	a2,a2,a1
C:\NucleiStudio_workspace\HBirdv2_Prj\fly_bird\Debug/../application/system.c:552
	pillar3_last=pillar3;
80001b42:	0057a223          	sw	t0,4(a5)
80001b46:	01f7a423          	sw	t6,8(a5)
80001b4a:	01e7a623          	sw	t5,12(a5)
80001b4e:	01d7a823          	sw	t4,16(a5)
80001b52:	01c7aa23          	sw	t3,20(a5)
80001b56:	0067ac23          	sw	t1,24(a5)
80001b5a:	0117ae23          	sw	a7,28(a5)
80001b5e:	0307a023          	sw	a6,32(a5)
80001b62:	d3c8                	sw	a0,36(a5)
C:\NucleiStudio_workspace\HBirdv2_Prj\fly_bird\Debug/../application/system.c:551
	pillar2_last=pillar2;
80001b64:	01572623          	sw	s5,12(a4)
80001b68:	01472823          	sw	s4,16(a4)
80001b6c:	01372a23          	sw	s3,20(a4)
80001b70:	01272c23          	sw	s2,24(a4)
80001b74:	cf44                	sw	s1,28(a4)
80001b76:	d300                	sw	s0,32(a4)
80001b78:	02772223          	sw	t2,36(a4)
C:\NucleiStudio_workspace\HBirdv2_Prj\fly_bird\Debug/../application/system.c:554
	if(key_data==pad_run | PS2_A_In)//按下只执行一次
80001b7c:	00c6e7b3          	or	a5,a3,a2
80001b80:	eb91                	bnez	a5,80001b94 <game_flappy_bird_start_key+0x160>
C:\NucleiStudio_workspace\HBirdv2_Prj\fly_bird\Debug/../application/system.c:560
	{
		_game_bird_conf.mode=2;//运行游戏
		game_flappy_bird_init();   //初始化
		key_data=0; //表示按下
	}
}
80001b82:	40f2                	lw	ra,28(sp)
80001b84:	4462                	lw	s0,24(sp)
80001b86:	44d2                	lw	s1,20(sp)
80001b88:	4942                	lw	s2,16(sp)
80001b8a:	49b2                	lw	s3,12(sp)
80001b8c:	4a22                	lw	s4,8(sp)
80001b8e:	4a92                	lw	s5,4(sp)
80001b90:	6105                	addi	sp,sp,32
80001b92:	8082                	ret
C:\NucleiStudio_workspace\HBirdv2_Prj\fly_bird\Debug/../application/system.c:556
		_game_bird_conf.mode=2;//运行游戏
80001b94:	4789                	li	a5,2
80001b96:	8cf18c23          	sb	a5,-1832(gp) # 90000138 <_game_bird_conf>
C:\NucleiStudio_workspace\HBirdv2_Prj\fly_bird\Debug/../application/system.c:557
		game_flappy_bird_init();   //初始化
80001b9a:	3b6d                	jal	80001954 <game_flappy_bird_init>
C:\NucleiStudio_workspace\HBirdv2_Prj\fly_bird\Debug/../application/system.c:558
		key_data=0; //表示按下
80001b9c:	82018623          	sb	zero,-2004(gp) # 9000008c <key_data>
C:\NucleiStudio_workspace\HBirdv2_Prj\fly_bird\Debug/../application/system.c:560
}
80001ba0:	b7cd                	j	80001b82 <game_flappy_bird_start_key+0x14e>

80001ba2 <game_flappy_bird_break_key>:
game_flappy_bird_break_key():
C:\NucleiStudio_workspace\HBirdv2_Prj\fly_bird\Debug/../application/system.c:574
		key_data=0; //表示按下
	}
}
void game_flappy_bird_break_key(void)
{
	if(key_data==pad_back | PS2_B_In)//按下只执行一次
80001ba2:	100126b7          	lui	a3,0x10012
80001ba6:	82c1c783          	lbu	a5,-2004(gp) # 9000008c <key_data>
80001baa:	42d8                	lw	a4,4(a3)
80001bac:	17e9                	addi	a5,a5,-6
80001bae:	20000637          	lui	a2,0x20000
C:\NucleiStudio_workspace\HBirdv2_Prj\fly_bird\Debug/../application/system.c:573
{
80001bb2:	1141                	addi	sp,sp,-16
C:\NucleiStudio_workspace\HBirdv2_Prj\fly_bird\Debug/../application/system.c:574
	if(key_data==pad_back | PS2_B_In)//按下只执行一次
80001bb4:	0017b793          	seqz	a5,a5
80001bb8:	8f71                	and	a4,a4,a2
C:\NucleiStudio_workspace\HBirdv2_Prj\fly_bird\Debug/../application/system.c:573
{
80001bba:	c606                	sw	ra,12(sp)
80001bbc:	c422                	sw	s0,8(sp)
C:\NucleiStudio_workspace\HBirdv2_Prj\fly_bird\Debug/../application/system.c:574
	if(key_data==pad_back | PS2_B_In)//按下只执行一次
80001bbe:	8fd9                	or	a5,a5,a4
80001bc0:	e3b9                	bnez	a5,80001c06 <game_flappy_bird_break_key+0x64>
C:\NucleiStudio_workspace\HBirdv2_Prj\fly_bird\Debug/../application/system.c:587
		__asm__ __volatile__(
			"lui	ra,0x20400\n"
			"ret	\n"
		);
	}
	else if(key_data==pad_right || PS2_X_In)
80001bc2:	82c1c783          	lbu	a5,-2004(gp) # 9000008c <key_data>
80001bc6:	4711                	li	a4,4
80001bc8:	00e78963          	beq	a5,a4,80001bda <game_flappy_bird_break_key+0x38>
C:\NucleiStudio_workspace\HBirdv2_Prj\fly_bird\Debug/../application/system.c:587 (discriminator 1)
80001bcc:	42dc                	lw	a5,4(a3)
80001bce:	0007c663          	bltz	a5,80001bda <game_flappy_bird_break_key+0x38>
C:\NucleiStudio_workspace\HBirdv2_Prj\fly_bird\Debug/../application/system.c:604
		{
			_game_bird_conf.mode=1;
		}
		key_data=0;
	}
}
80001bd2:	40b2                	lw	ra,12(sp)
80001bd4:	4422                	lw	s0,8(sp)
80001bd6:	0141                	addi	sp,sp,16
80001bd8:	8082                	ret
C:\NucleiStudio_workspace\HBirdv2_Prj\fly_bird\Debug/../application/system.c:589
		if(LCDinverse)
80001bda:	8281c783          	lbu	a5,-2008(gp) # 90000088 <LCDinverse>
80001bde:	c7cd                	beqz	a5,80001c88 <game_flappy_bird_break_key+0xe6>
C:\NucleiStudio_workspace\HBirdv2_Prj\fly_bird\Debug/../application/system.c:591
			LCDinverse=0;
80001be0:	82018423          	sb	zero,-2008(gp) # 90000088 <LCDinverse>
C:\NucleiStudio_workspace\HBirdv2_Prj\fly_bird\Debug/../application/system.c:597
		game_flappy_bird_init();   //初始化
80001be4:	3b85                	jal	80001954 <game_flappy_bird_init>
C:\NucleiStudio_workspace\HBirdv2_Prj\fly_bird\Debug/../application/system.c:598
		if(_game_bird_conf.mode==2)
80001be6:	8d818793          	addi	a5,gp,-1832 # 90000138 <_game_bird_conf>
80001bea:	0007c683          	lbu	a3,0(a5)
80001bee:	4709                	li	a4,2
80001bf0:	00e69563          	bne	a3,a4,80001bfa <game_flappy_bird_break_key+0x58>
C:\NucleiStudio_workspace\HBirdv2_Prj\fly_bird\Debug/../application/system.c:600
			_game_bird_conf.mode=1;
80001bf4:	4705                	li	a4,1
80001bf6:	00e78023          	sb	a4,0(a5)
C:\NucleiStudio_workspace\HBirdv2_Prj\fly_bird\Debug/../application/system.c:604
}
80001bfa:	40b2                	lw	ra,12(sp)
80001bfc:	4422                	lw	s0,8(sp)
C:\NucleiStudio_workspace\HBirdv2_Prj\fly_bird\Debug/../application/system.c:602
		key_data=0;
80001bfe:	82018623          	sb	zero,-2004(gp) # 9000008c <key_data>
C:\NucleiStudio_workspace\HBirdv2_Prj\fly_bird\Debug/../application/system.c:604
}
80001c02:	0141                	addi	sp,sp,16
80001c04:	8082                	ret
C:\NucleiStudio_workspace\HBirdv2_Prj\fly_bird\Debug/../application/system.c:576
		LCD_Fill(120,140,400,200,YELLOW);
80001c06:	6441                	lui	s0,0x10
80001c08:	fe040713          	addi	a4,s0,-32 # ffe0 <__stack_size+0xf7e0>
80001c0c:	0c800693          	li	a3,200
80001c10:	19000613          	li	a2,400
80001c14:	08c00593          	li	a1,140
80001c18:	07800513          	li	a0,120
80001c1c:	a35fe0ef          	jal	ra,80000650 <LCD_Fill>
C:\NucleiStudio_workspace\HBirdv2_Prj\fly_bird\Debug/../application/system.c:577
		LCD_Fill(124,144,392,192,WHITE);
80001c20:	fff40713          	addi	a4,s0,-1
80001c24:	0c000693          	li	a3,192
80001c28:	18800613          	li	a2,392
80001c2c:	09000593          	li	a1,144
80001c30:	07c00513          	li	a0,124
80001c34:	a1dfe0ef          	jal	ra,80000650 <LCD_Fill>
C:\NucleiStudio_workspace\HBirdv2_Prj\fly_bird\Debug/../application/system.c:579
		BACK_COLOR=WHITE;
80001c38:	587d                	li	a6,-1
C:\NucleiStudio_workspace\HBirdv2_Prj\fly_bird\Debug/../application/system.c:580
		LCD_ShowString(236,200,312,24,24,"Return to game menu!");
80001c3a:	00004797          	auipc	a5,0x4
80001c3e:	fd278793          	addi	a5,a5,-46 # 80005c0c <asc2_2412+0xd6c>
80001c42:	4761                	li	a4,24
80001c44:	46e1                	li	a3,24
80001c46:	13800613          	li	a2,312
80001c4a:	0c800593          	li	a1,200
80001c4e:	0ec00513          	li	a0,236
C:\NucleiStudio_workspace\HBirdv2_Prj\fly_bird\Debug/../application/system.c:579
		BACK_COLOR=WHITE;
80001c52:	81019423          	sh	a6,-2040(gp) # 90000068 <BACK_COLOR>
C:\NucleiStudio_workspace\HBirdv2_Prj\fly_bird\Debug/../application/system.c:578
		POINT_COLOR=BLACK;
80001c56:	82019523          	sh	zero,-2006(gp) # 9000008a <POINT_COLOR>
C:\NucleiStudio_workspace\HBirdv2_Prj\fly_bird\Debug/../application/system.c:580
		LCD_ShowString(236,200,312,24,24,"Return to game menu!");
80001c5a:	8ceff0ef          	jal	ra,80000d28 <LCD_ShowString>
C:\NucleiStudio_workspace\HBirdv2_Prj\fly_bird\Debug/../application/system.c:581
		LCD_ShowString(248,265,324,24,24,"Please wait!");
80001c5e:	00004797          	auipc	a5,0x4
80001c62:	fc678793          	addi	a5,a5,-58 # 80005c24 <asc2_2412+0xd84>
80001c66:	4761                	li	a4,24
80001c68:	46e1                	li	a3,24
80001c6a:	14400613          	li	a2,324
80001c6e:	10900593          	li	a1,265
80001c72:	0f800513          	li	a0,248
80001c76:	8b2ff0ef          	jal	ra,80000d28 <LCD_ShowString>
C:\NucleiStudio_workspace\HBirdv2_Prj\fly_bird\Debug/../application/system.c:582
		__asm__ __volatile__(
80001c7a:	204000b7          	lui	ra,0x20400
80001c7e:	8082                	ret
C:\NucleiStudio_workspace\HBirdv2_Prj\fly_bird\Debug/../application/system.c:604
}
80001c80:	40b2                	lw	ra,12(sp)
80001c82:	4422                	lw	s0,8(sp)
80001c84:	0141                	addi	sp,sp,16
80001c86:	8082                	ret
C:\NucleiStudio_workspace\HBirdv2_Prj\fly_bird\Debug/../application/system.c:595
			LCDinverse=1;
80001c88:	4785                	li	a5,1
80001c8a:	82f18423          	sb	a5,-2008(gp) # 90000088 <LCDinverse>
80001c8e:	bf99                	j	80001be4 <game_flappy_bird_break_key+0x42>

80001c90 <game_flappy_bird_draw>:
game_flappy_bird_draw():
C:\NucleiStudio_workspace\HBirdv2_Prj\fly_bird\Debug/../application/system.c:615
	bird_crash();  //判断碰撞
}

//flappy bird画图
void game_flappy_bird_draw(void)
{
80001c90:	1141                	addi	sp,sp,-16
80001c92:	c606                	sw	ra,12(sp)
C:\NucleiStudio_workspace\HBirdv2_Prj\fly_bird\Debug/../application/system.c:616
	if(_game_bird_conf.mode==2)
80001c94:	8d81c783          	lbu	a5,-1832(gp) # 90000138 <_game_bird_conf>
80001c98:	4709                	li	a4,2
80001c9a:	0ce78963          	beq	a5,a4,80001d6c <game_flappy_bird_draw+0xdc>
C:\NucleiStudio_workspace\HBirdv2_Prj\fly_bird\Debug/../application/system.c:642
		draw_bird(&bird,1);			 				//画鸟
	}
	*/
	else
	{
		switch(_game_bird_conf.mode)
80001c9e:	4705                	li	a4,1
80001ca0:	06e78e63          	beq	a5,a4,80001d1c <game_flappy_bird_draw+0x8c>
80001ca4:	470d                	li	a4,3
80001ca6:	00e78563          	beq	a5,a4,80001cb0 <game_flappy_bird_draw+0x20>
C:\NucleiStudio_workspace\HBirdv2_Prj\fly_bird\Debug/../application/system.c:654
				break;
		}
	}
	
	
}
80001caa:	40b2                	lw	ra,12(sp)
80001cac:	0141                	addi	sp,sp,16
80001cae:	8082                	ret
draw_game_over():
C:\NucleiStudio_workspace\HBirdv2_Prj\fly_bird\Debug/../application/system.c:498
	LCD_DrawRectangle(220,165,200,150,0x0000);
80001cb0:	4701                	li	a4,0
80001cb2:	09600693          	li	a3,150
80001cb6:	0c800613          	li	a2,200
80001cba:	0a500593          	li	a1,165
80001cbe:	0dc00513          	li	a0,220
80001cc2:	ae5fe0ef          	jal	ra,800007a6 <LCD_DrawRectangle>
C:\NucleiStudio_workspace\HBirdv2_Prj\fly_bird\Debug/../application/system.c:499
	LCD_DrawRectangle(221,166,198,148,0xf64f);
80001cc6:	673d                	lui	a4,0xf
80001cc8:	64f70713          	addi	a4,a4,1615 # f64f <__stack_size+0xee4f>
80001ccc:	09400693          	li	a3,148
80001cd0:	0c600613          	li	a2,198
80001cd4:	0a600593          	li	a1,166
80001cd8:	0dd00513          	li	a0,221
80001cdc:	acbfe0ef          	jal	ra,800007a6 <LCD_DrawRectangle>
C:\NucleiStudio_workspace\HBirdv2_Prj\fly_bird\Debug/../application/system.c:501
	LCD_ShowString(272,190,96,24,24,"GameOver");
80001ce0:	00004797          	auipc	a5,0x4
80001ce4:	f5c78793          	addi	a5,a5,-164 # 80005c3c <asc2_2412+0xd9c>
80001ce8:	4761                	li	a4,24
80001cea:	46e1                	li	a3,24
80001cec:	06000613          	li	a2,96
80001cf0:	0be00593          	li	a1,190
80001cf4:	11000513          	li	a0,272
80001cf8:	830ff0ef          	jal	ra,80000d28 <LCD_ShowString>
game_flappy_bird_draw():
C:\NucleiStudio_workspace\HBirdv2_Prj\fly_bird\Debug/../application/system.c:654
}
80001cfc:	40b2                	lw	ra,12(sp)
draw_game_over():
C:\NucleiStudio_workspace\HBirdv2_Prj\fly_bird\Debug/../application/system.c:502
	LCD_ShowString(260,265,120,24,24,"A:Gontinue");
80001cfe:	00004797          	auipc	a5,0x4
80001d02:	f4a78793          	addi	a5,a5,-182 # 80005c48 <asc2_2412+0xda8>
80001d06:	4761                	li	a4,24
80001d08:	46e1                	li	a3,24
80001d0a:	07800613          	li	a2,120
80001d0e:	10900593          	li	a1,265
80001d12:	10400513          	li	a0,260
game_flappy_bird_draw():
C:\NucleiStudio_workspace\HBirdv2_Prj\fly_bird\Debug/../application/system.c:654
}
80001d16:	0141                	addi	sp,sp,16
draw_game_over():
C:\NucleiStudio_workspace\HBirdv2_Prj\fly_bird\Debug/../application/system.c:502
	LCD_ShowString(260,265,120,24,24,"A:Gontinue");
80001d18:	810ff06f          	j	80000d28 <LCD_ShowString>
draw_game_start():
C:\NucleiStudio_workspace\HBirdv2_Prj\fly_bird\Debug/../application/system.c:507
	LCD_DrawRectangle(220,165,200,150,0x0000);
80001d1c:	4701                	li	a4,0
80001d1e:	09600693          	li	a3,150
80001d22:	0c800613          	li	a2,200
80001d26:	0a500593          	li	a1,165
80001d2a:	0dc00513          	li	a0,220
80001d2e:	a79fe0ef          	jal	ra,800007a6 <LCD_DrawRectangle>
C:\NucleiStudio_workspace\HBirdv2_Prj\fly_bird\Debug/../application/system.c:508
	LCD_DrawRectangle(221,166,198,148,0xf64f);
80001d32:	673d                	lui	a4,0xf
80001d34:	64f70713          	addi	a4,a4,1615 # f64f <__stack_size+0xee4f>
80001d38:	09400693          	li	a3,148
80001d3c:	0c600613          	li	a2,198
80001d40:	0a600593          	li	a1,166
80001d44:	0dd00513          	li	a0,221
80001d48:	a5ffe0ef          	jal	ra,800007a6 <LCD_DrawRectangle>
game_flappy_bird_draw():
C:\NucleiStudio_workspace\HBirdv2_Prj\fly_bird\Debug/../application/system.c:654
}
80001d4c:	40b2                	lw	ra,12(sp)
draw_game_start():
C:\NucleiStudio_workspace\HBirdv2_Prj\fly_bird\Debug/../application/system.c:509
	LCD_ShowString(278,228,84,24,24,"A:Start");
80001d4e:	00004797          	auipc	a5,0x4
80001d52:	ee678793          	addi	a5,a5,-282 # 80005c34 <asc2_2412+0xd94>
80001d56:	4761                	li	a4,24
80001d58:	46e1                	li	a3,24
80001d5a:	05400613          	li	a2,84
80001d5e:	0e400593          	li	a1,228
80001d62:	11600513          	li	a0,278
game_flappy_bird_draw():
C:\NucleiStudio_workspace\HBirdv2_Prj\fly_bird\Debug/../application/system.c:654
}
80001d66:	0141                	addi	sp,sp,16
draw_game_start():
C:\NucleiStudio_workspace\HBirdv2_Prj\fly_bird\Debug/../application/system.c:509
	LCD_ShowString(278,228,84,24,24,"A:Start");
80001d68:	fc1fe06f          	j	80000d28 <LCD_ShowString>
game_flappy_bird_draw():
C:\NucleiStudio_workspace\HBirdv2_Prj\fly_bird\Debug/../application/system.c:619
		draw_brick();      				//画地面
80001d6c:	3ebd                	jal	800018ea <draw_brick>
C:\NucleiStudio_workspace\HBirdv2_Prj\fly_bird\Debug/../application/system.c:620
		draw_pillar(&pillar1_last,0);    //画柱1
80001d6e:	4581                	li	a1,0
80001d70:	9b018513          	addi	a0,gp,-1616 # 90000210 <pillar1_last>
80001d74:	b2aff0ef          	jal	ra,8000109e <draw_pillar>
C:\NucleiStudio_workspace\HBirdv2_Prj\fly_bird\Debug/../application/system.c:621
		draw_pillar(&pillar1,1);    //画柱1
80001d78:	4585                	li	a1,1
80001d7a:	98818513          	addi	a0,gp,-1656 # 900001e8 <pillar1>
80001d7e:	b20ff0ef          	jal	ra,8000109e <draw_pillar>
C:\NucleiStudio_workspace\HBirdv2_Prj\fly_bird\Debug/../application/system.c:622
		draw_pillar(&pillar2_last,0);    //画柱2
80001d82:	4581                	li	a1,0
80001d84:	a0018513          	addi	a0,gp,-1536 # 90000260 <pillar2_last>
80001d88:	b16ff0ef          	jal	ra,8000109e <draw_pillar>
C:\NucleiStudio_workspace\HBirdv2_Prj\fly_bird\Debug/../application/system.c:623
		draw_pillar(&pillar2,1);    //画柱2
80001d8c:	4585                	li	a1,1
80001d8e:	9d818513          	addi	a0,gp,-1576 # 90000238 <pillar2>
80001d92:	b0cff0ef          	jal	ra,8000109e <draw_pillar>
C:\NucleiStudio_workspace\HBirdv2_Prj\fly_bird\Debug/../application/system.c:624
		draw_pillar(&pillar3_last,0);    //画柱3
80001d96:	4581                	li	a1,0
80001d98:	a5018513          	addi	a0,gp,-1456 # 900002b0 <pillar3_last>
80001d9c:	b02ff0ef          	jal	ra,8000109e <draw_pillar>
C:\NucleiStudio_workspace\HBirdv2_Prj\fly_bird\Debug/../application/system.c:625
		draw_pillar(&pillar3,1);    //画柱3
80001da0:	4585                	li	a1,1
80001da2:	a2818513          	addi	a0,gp,-1496 # 90000288 <pillar3>
80001da6:	af8ff0ef          	jal	ra,8000109e <draw_pillar>
C:\NucleiStudio_workspace\HBirdv2_Prj\fly_bird\Debug/../application/system.c:626
		draw_bird(&bird_last,0);			 		//画鸟
80001daa:	4581                	li	a1,0
80001dac:	94018513          	addi	a0,gp,-1728 # 900001a0 <bird_last>
80001db0:	957ff0ef          	jal	ra,80001706 <draw_bird>
C:\NucleiStudio_workspace\HBirdv2_Prj\fly_bird\Debug/../application/system.c:654
}
80001db4:	40b2                	lw	ra,12(sp)
C:\NucleiStudio_workspace\HBirdv2_Prj\fly_bird\Debug/../application/system.c:627
		draw_bird(&bird,1);			 				//画鸟
80001db6:	4585                	li	a1,1
80001db8:	8f818513          	addi	a0,gp,-1800 # 90000158 <bird>
C:\NucleiStudio_workspace\HBirdv2_Prj\fly_bird\Debug/../application/system.c:654
}
80001dbc:	0141                	addi	sp,sp,16
C:\NucleiStudio_workspace\HBirdv2_Prj\fly_bird\Debug/../application/system.c:627
		draw_bird(&bird,1);			 				//画鸟
80001dbe:	949ff06f          	j	80001706 <draw_bird>

80001dc2 <game_flappy_bird_main>:
SysTimer_GetLoadValue():
C:\NucleiStudio_workspace\HBirdv2_Prj\fly_bird\hbird_sdk\NMSIS\Core\Include/core_feature_timer.h:106
80001dc2:	0200c7b7          	lui	a5,0x200c
80001dc6:	ff87a703          	lw	a4,-8(a5) # 200bff8 <__stack_size+0x200b7f8>
80001dca:	ffc7a783          	lw	a5,-4(a5)
game_flappy_bird_main():
C:\NucleiStudio_workspace\HBirdv2_Prj\fly_bird\Debug/../application/system.c:658

//flappy bird主循环
void game_flappy_bird_main(void)
{
80001dce:	7179                	addi	sp,sp,-48
80001dd0:	d422                	sw	s0,40(sp)
C:\NucleiStudio_workspace\HBirdv2_Prj\fly_bird\Debug/../application/system.c:660
	uint32_t _fps_num=0;
	_game_bird_conf.fps_t0=SysTimer_GetLoadValue();
80001dd2:	8d818413          	addi	s0,gp,-1832 # 90000138 <_game_bird_conf>
C:\NucleiStudio_workspace\HBirdv2_Prj\fly_bird\Debug/../application/system.c:658
{
80001dd6:	d226                	sw	s1,36(sp)
80001dd8:	d04a                	sw	s2,32(sp)
80001dda:	ce4e                	sw	s3,28(sp)
80001ddc:	cc52                	sw	s4,24(sp)
80001dde:	ca56                	sw	s5,20(sp)
80001de0:	c85a                	sw	s6,16(sp)
80001de2:	c65e                	sw	s7,12(sp)
80001de4:	c462                	sw	s8,8(sp)
80001de6:	c266                	sw	s9,4(sp)
80001de8:	c06a                	sw	s10,0(sp)
C:\NucleiStudio_workspace\HBirdv2_Prj\fly_bird\Debug/../application/system.c:661
	_game_bird_conf.fps_num=0;
80001dea:	8e019823          	sh	zero,-1808(gp) # 90000150 <_game_bird_conf+0x18>
C:\NucleiStudio_workspace\HBirdv2_Prj\fly_bird\Debug/../application/system.c:660
	_game_bird_conf.fps_t0=SysTimer_GetLoadValue();
80001dee:	c45c                	sw	a5,12(s0)
C:\NucleiStudio_workspace\HBirdv2_Prj\fly_bird\Debug/../application/system.c:658
{
80001df0:	d606                	sw	ra,44(sp)
C:\NucleiStudio_workspace\HBirdv2_Prj\fly_bird\Debug/../application/system.c:660
	_game_bird_conf.fps_t0=SysTimer_GetLoadValue();
80001df2:	c418                	sw	a4,8(s0)
C:\NucleiStudio_workspace\HBirdv2_Prj\fly_bird\Debug/../application/system.c:662
	game_flappy_bird_init();   //初始化
80001df4:	3685                	jal	80001954 <game_flappy_bird_init>
C:\NucleiStudio_workspace\HBirdv2_Prj\fly_bird\Debug/../application/system.c:663
	_game_bird_conf.mode=1;//开始态
80001df6:	4785                	li	a5,1
80001df8:	00f40023          	sb	a5,0(s0)
C:\NucleiStudio_workspace\HBirdv2_Prj\fly_bird\Debug/../application/system.c:659
	uint32_t _fps_num=0;
80001dfc:	4481                	li	s1,0
C:\NucleiStudio_workspace\HBirdv2_Prj\fly_bird\Debug/../application/system.c:666
	//uint32_t ii=0;
	
	while(_game_bird_conf.mode && switchGameChart==0)
80001dfe:	4685                	li	a3,1
80001e00:	82d18a93          	addi	s5,gp,-2003 # 9000008d <switchGameChart>
C:\NucleiStudio_workspace\HBirdv2_Prj\fly_bird\Debug/../application/system.c:686
			case 1:
				game_flappy_bird_start_key();	//	检查
				
				break;
			case 2:
				bird_last=bird;
80001e04:	94018b13          	addi	s6,gp,-1728 # 900001a0 <bird_last>
C:\NucleiStudio_workspace\HBirdv2_Prj\fly_bird\Debug/../application/system.c:687
				pillar1_last=pillar1;
80001e08:	9b018a13          	addi	s4,gp,-1616 # 90000210 <pillar1_last>
80001e0c:	98818d13          	addi	s10,gp,-1656 # 900001e8 <pillar1>
C:\NucleiStudio_workspace\HBirdv2_Prj\fly_bird\Debug/../application/system.c:688
				pillar2_last=pillar2;
80001e10:	a0018993          	addi	s3,gp,-1536 # 90000260 <pillar2_last>
80001e14:	9d818c93          	addi	s9,gp,-1576 # 90000238 <pillar2>
C:\NucleiStudio_workspace\HBirdv2_Prj\fly_bird\Debug/../application/system.c:689
				pillar3_last=pillar3;
80001e18:	a5018913          	addi	s2,gp,-1456 # 900002b0 <pillar3_last>
80001e1c:	a2818c13          	addi	s8,gp,-1496 # 90000288 <pillar3>
game_flappy_bird_over_key():
C:\NucleiStudio_workspace\HBirdv2_Prj\fly_bird\Debug/../application/system.c:564
	if(key_data==pad_run | PS2_A_In)//按下只执行一次
80001e20:	82c18b93          	addi	s7,gp,-2004 # 9000008c <key_data>
80001e24:	a809                	j	80001e36 <game_flappy_bird_main+0x74>
game_flappy_bird_main():
C:\NucleiStudio_workspace\HBirdv2_Prj\fly_bird\Debug/../application/system.c:679
		switch(_game_bird_conf.mode)
80001e26:	4785                	li	a5,1
80001e28:	1ef68463          	beq	a3,a5,80002010 <game_flappy_bird_main+0x24e>
C:\NucleiStudio_workspace\HBirdv2_Prj\fly_bird\Debug/../application/system.c:700
			case 3:
				game_flappy_bird_over_key();
				break;
				
		}
		game_flappy_bird_break_key();
80001e2c:	3b9d                	jal	80001ba2 <game_flappy_bird_break_key>
C:\NucleiStudio_workspace\HBirdv2_Prj\fly_bird\Debug/../application/system.c:702
		
		game_flappy_bird_draw(); //往缓冲区画图
80001e2e:	358d                	jal	80001c90 <game_flappy_bird_draw>
C:\NucleiStudio_workspace\HBirdv2_Prj\fly_bird\Debug/../application/system.c:666
	while(_game_bird_conf.mode && switchGameChart==0)
80001e30:	00044683          	lbu	a3,0(s0)
80001e34:	c6d9                	beqz	a3,80001ec2 <game_flappy_bird_main+0x100>
C:\NucleiStudio_workspace\HBirdv2_Prj\fly_bird\Debug/../application/system.c:666 (discriminator 1)
80001e36:	000ac783          	lbu	a5,0(s5)
80001e3a:	0ff7f793          	zext.b	a5,a5
80001e3e:	e3d1                	bnez	a5,80001ec2 <game_flappy_bird_main+0x100>
SysTimer_GetLoadValue():
C:\NucleiStudio_workspace\HBirdv2_Prj\fly_bird\hbird_sdk\NMSIS\Core\Include/core_feature_timer.h:106
80001e40:	0200c7b7          	lui	a5,0x200c
80001e44:	ff87a503          	lw	a0,-8(a5) # 200bff8 <__stack_size+0x200b7f8>
game_flappy_bird_main():
C:\NucleiStudio_workspace\HBirdv2_Prj\fly_bird\Debug/../application/system.c:670
		_game_bird_conf.fps_t1=SysTimer_GetLoadValue()-_game_bird_conf.fps_t0;
80001e48:	4418                	lw	a4,8(s0)
SysTimer_GetLoadValue():
C:\NucleiStudio_workspace\HBirdv2_Prj\fly_bird\hbird_sdk\NMSIS\Core\Include/core_feature_timer.h:106
80001e4a:	ffc7a583          	lw	a1,-4(a5)
game_flappy_bird_main():
C:\NucleiStudio_workspace\HBirdv2_Prj\fly_bird\Debug/../application/system.c:670
80001e4e:	445c                	lw	a5,12(s0)
80001e50:	40e50733          	sub	a4,a0,a4
80001e54:	00e53633          	sltu	a2,a0,a4
80001e58:	40f587b3          	sub	a5,a1,a5
80001e5c:	8f91                	sub	a5,a5,a2
80001e5e:	c818                	sw	a4,16(s0)
80001e60:	c85c                	sw	a5,20(s0)
C:\NucleiStudio_workspace\HBirdv2_Prj\fly_bird\Debug/../application/system.c:669
		_fps_num++;
80001e62:	0485                	addi	s1,s1,1
C:\NucleiStudio_workspace\HBirdv2_Prj\fly_bird\Debug/../application/system.c:671
		if(_game_bird_conf.fps_t1>=SOC_TIMER_FREQ)
80001e64:	e781                	bnez	a5,80001e6c <game_flappy_bird_main+0xaa>
80001e66:	67a1                	lui	a5,0x8
80001e68:	00f76d63          	bltu	a4,a5,80001e82 <game_flappy_bird_main+0xc0>
SysTimer_GetLoadValue():
C:\NucleiStudio_workspace\HBirdv2_Prj\fly_bird\hbird_sdk\NMSIS\Core\Include/core_feature_timer.h:106
80001e6c:	0200c7b7          	lui	a5,0x200c
80001e70:	ff87a703          	lw	a4,-8(a5) # 200bff8 <__stack_size+0x200b7f8>
80001e74:	ffc7a783          	lw	a5,-4(a5)
game_flappy_bird_main():
C:\NucleiStudio_workspace\HBirdv2_Prj\fly_bird\Debug/../application/system.c:674
			_game_bird_conf.fps_num=_fps_num;
80001e78:	00941c23          	sh	s1,24(s0)
C:\NucleiStudio_workspace\HBirdv2_Prj\fly_bird\Debug/../application/system.c:673
			_game_bird_conf.fps_t0=SysTimer_GetLoadValue();
80001e7c:	c418                	sw	a4,8(s0)
C:\NucleiStudio_workspace\HBirdv2_Prj\fly_bird\Debug/../application/system.c:675
			_fps_num=0;
80001e7e:	4481                	li	s1,0
C:\NucleiStudio_workspace\HBirdv2_Prj\fly_bird\Debug/../application/system.c:673
			_game_bird_conf.fps_t0=SysTimer_GetLoadValue();
80001e80:	c45c                	sw	a5,12(s0)
C:\NucleiStudio_workspace\HBirdv2_Prj\fly_bird\Debug/../application/system.c:679
		switch(_game_bird_conf.mode)
80001e82:	4709                	li	a4,2
80001e84:	04e68d63          	beq	a3,a4,80001ede <game_flappy_bird_main+0x11c>
80001e88:	478d                	li	a5,3
80001e8a:	f8f69ee3          	bne	a3,a5,80001e26 <game_flappy_bird_main+0x64>
game_flappy_bird_over_key():
C:\NucleiStudio_workspace\HBirdv2_Prj\fly_bird\Debug/../application/system.c:564
	if(key_data==pad_run | PS2_A_In)//按下只执行一次
80001e8e:	000bc783          	lbu	a5,0(s7)
80001e92:	100126b7          	lui	a3,0x10012
80001e96:	42d4                	lw	a3,4(a3)
80001e98:	0ff7f793          	zext.b	a5,a5
80001e9c:	17ed                	addi	a5,a5,-5
80001e9e:	40000637          	lui	a2,0x40000
80001ea2:	0017b793          	seqz	a5,a5
80001ea6:	8ef1                	and	a3,a3,a2
80001ea8:	8fd5                	or	a5,a5,a3
80001eaa:	d3c9                	beqz	a5,80001e2c <game_flappy_bird_main+0x6a>
C:\NucleiStudio_workspace\HBirdv2_Prj\fly_bird\Debug/../application/system.c:566
		_game_bird_conf.mode=2;//运行游戏
80001eac:	00e40023          	sb	a4,0(s0)
C:\NucleiStudio_workspace\HBirdv2_Prj\fly_bird\Debug/../application/system.c:567
		game_flappy_bird_init();   //初始化
80001eb0:	aa5ff0ef          	jal	ra,80001954 <game_flappy_bird_init>
C:\NucleiStudio_workspace\HBirdv2_Prj\fly_bird\Debug/../application/system.c:569
		key_data=0; //表示按下
80001eb4:	82018623          	sb	zero,-2004(gp) # 9000008c <key_data>
game_flappy_bird_main():
C:\NucleiStudio_workspace\HBirdv2_Prj\fly_bird\Debug/../application/system.c:700
		game_flappy_bird_break_key();
80001eb8:	31ed                	jal	80001ba2 <game_flappy_bird_break_key>
C:\NucleiStudio_workspace\HBirdv2_Prj\fly_bird\Debug/../application/system.c:702
		game_flappy_bird_draw(); //往缓冲区画图
80001eba:	3bd9                	jal	80001c90 <game_flappy_bird_draw>
C:\NucleiStudio_workspace\HBirdv2_Prj\fly_bird\Debug/../application/system.c:666
	while(_game_bird_conf.mode && switchGameChart==0)
80001ebc:	00044683          	lbu	a3,0(s0)
80001ec0:	fabd                	bnez	a3,80001e36 <game_flappy_bird_main+0x74>
C:\NucleiStudio_workspace\HBirdv2_Prj\fly_bird\Debug/../application/system.c:705
	}
	
}
80001ec2:	50b2                	lw	ra,44(sp)
80001ec4:	5422                	lw	s0,40(sp)
80001ec6:	5492                	lw	s1,36(sp)
80001ec8:	5902                	lw	s2,32(sp)
80001eca:	49f2                	lw	s3,28(sp)
80001ecc:	4a62                	lw	s4,24(sp)
80001ece:	4ad2                	lw	s5,20(sp)
80001ed0:	4b42                	lw	s6,16(sp)
80001ed2:	4bb2                	lw	s7,12(sp)
80001ed4:	4c22                	lw	s8,8(sp)
80001ed6:	4c92                	lw	s9,4(sp)
80001ed8:	4d02                	lw	s10,0(sp)
80001eda:	6145                	addi	sp,sp,48
80001edc:	8082                	ret
C:\NucleiStudio_workspace\HBirdv2_Prj\fly_bird\Debug/../application/system.c:686
				bird_last=bird;
80001ede:	8f818793          	addi	a5,gp,-1800 # 90000158 <bird>
80001ee2:	94018713          	addi	a4,gp,-1728 # 900001a0 <bird_last>
80001ee6:	0007a883          	lw	a7,0(a5)
80001eea:	0047a803          	lw	a6,4(a5)
80001eee:	4788                	lw	a0,8(a5)
80001ef0:	47cc                	lw	a1,12(a5)
80001ef2:	4b90                	lw	a2,16(a5)
80001ef4:	4bd4                	lw	a3,20(a5)
80001ef6:	01172023          	sw	a7,0(a4)
80001efa:	01072223          	sw	a6,4(a4)
80001efe:	c708                	sw	a0,8(a4)
80001f00:	c74c                	sw	a1,12(a4)
80001f02:	cb10                	sw	a2,16(a4)
80001f04:	cb54                	sw	a3,20(a4)
80001f06:	07e1                	addi	a5,a5,24
80001f08:	0761                	addi	a4,a4,24
80001f0a:	fd679ee3          	bne	a5,s6,80001ee6 <game_flappy_bird_main+0x124>
C:\NucleiStudio_workspace\HBirdv2_Prj\fly_bird\Debug/../application/system.c:687
				pillar1_last=pillar1;
80001f0e:	000d2f83          	lw	t6,0(s10)
80001f12:	004d2f03          	lw	t5,4(s10)
80001f16:	008d2e83          	lw	t4,8(s10)
80001f1a:	00cd2e03          	lw	t3,12(s10)
80001f1e:	014d2883          	lw	a7,20(s10)
80001f22:	018d2803          	lw	a6,24(s10)
80001f26:	01cd2503          	lw	a0,28(s10)
80001f2a:	020d2583          	lw	a1,32(s10)
80001f2e:	024d2603          	lw	a2,36(s10)
C:\NucleiStudio_workspace\HBirdv2_Prj\fly_bird\Debug/../application/system.c:688
				pillar2_last=pillar2;
80001f32:	000ca683          	lw	a3,0(s9)
80001f36:	004ca703          	lw	a4,4(s9)
80001f3a:	008ca783          	lw	a5,8(s9)
C:\NucleiStudio_workspace\HBirdv2_Prj\fly_bird\Debug/../application/system.c:687
				pillar1_last=pillar1;
80001f3e:	010d2303          	lw	t1,16(s10)
C:\NucleiStudio_workspace\HBirdv2_Prj\fly_bird\Debug/../application/system.c:688
				pillar2_last=pillar2;
80001f42:	014ca383          	lw	t2,20(s9)
80001f46:	018ca283          	lw	t0,24(s9)
C:\NucleiStudio_workspace\HBirdv2_Prj\fly_bird\Debug/../application/system.c:687
				pillar1_last=pillar1;
80001f4a:	01fa2023          	sw	t6,0(s4)
80001f4e:	01ea2223          	sw	t5,4(s4)
C:\NucleiStudio_workspace\HBirdv2_Prj\fly_bird\Debug/../application/system.c:688
				pillar2_last=pillar2;
80001f52:	01ccaf83          	lw	t6,28(s9)
80001f56:	020caf03          	lw	t5,32(s9)
C:\NucleiStudio_workspace\HBirdv2_Prj\fly_bird\Debug/../application/system.c:687
				pillar1_last=pillar1;
80001f5a:	01da2423          	sw	t4,8(s4)
80001f5e:	01ca2623          	sw	t3,12(s4)
C:\NucleiStudio_workspace\HBirdv2_Prj\fly_bird\Debug/../application/system.c:688
				pillar2_last=pillar2;
80001f62:	024cae83          	lw	t4,36(s9)
C:\NucleiStudio_workspace\HBirdv2_Prj\fly_bird\Debug/../application/system.c:689
				pillar3_last=pillar3;
80001f66:	000c2e03          	lw	t3,0(s8)
C:\NucleiStudio_workspace\HBirdv2_Prj\fly_bird\Debug/../application/system.c:687
				pillar1_last=pillar1;
80001f6a:	011a2a23          	sw	a7,20(s4)
80001f6e:	010a2c23          	sw	a6,24(s4)
80001f72:	00aa2e23          	sw	a0,28(s4)
80001f76:	02ba2023          	sw	a1,32(s4)
80001f7a:	02ca2223          	sw	a2,36(s4)
C:\NucleiStudio_workspace\HBirdv2_Prj\fly_bird\Debug/../application/system.c:688
				pillar2_last=pillar2;
80001f7e:	00d9a023          	sw	a3,0(s3)
80001f82:	00e9a223          	sw	a4,4(s3)
80001f86:	00f9a423          	sw	a5,8(s3)
C:\NucleiStudio_workspace\HBirdv2_Prj\fly_bird\Debug/../application/system.c:687
				pillar1_last=pillar1;
80001f8a:	006a2823          	sw	t1,16(s4)
C:\NucleiStudio_workspace\HBirdv2_Prj\fly_bird\Debug/../application/system.c:689
				pillar3_last=pillar3;
80001f8e:	004c2303          	lw	t1,4(s8)
C:\NucleiStudio_workspace\HBirdv2_Prj\fly_bird\Debug/../application/system.c:688
				pillar2_last=pillar2;
80001f92:	00cca083          	lw	ra,12(s9)
C:\NucleiStudio_workspace\HBirdv2_Prj\fly_bird\Debug/../application/system.c:689
				pillar3_last=pillar3;
80001f96:	008c2883          	lw	a7,8(s8)
80001f9a:	00cc2803          	lw	a6,12(s8)
80001f9e:	010c2503          	lw	a0,16(s8)
80001fa2:	014c2583          	lw	a1,20(s8)
80001fa6:	018c2603          	lw	a2,24(s8)
80001faa:	01cc2683          	lw	a3,28(s8)
80001fae:	020c2703          	lw	a4,32(s8)
80001fb2:	024c2783          	lw	a5,36(s8)
C:\NucleiStudio_workspace\HBirdv2_Prj\fly_bird\Debug/../application/system.c:688
				pillar2_last=pillar2;
80001fb6:	0019a623          	sw	ra,12(s3)
80001fba:	010ca083          	lw	ra,16(s9)
80001fbe:	0079aa23          	sw	t2,20(s3)
80001fc2:	0059ac23          	sw	t0,24(s3)
80001fc6:	0019a823          	sw	ra,16(s3)
80001fca:	01f9ae23          	sw	t6,28(s3)
80001fce:	03e9a023          	sw	t5,32(s3)
80001fd2:	03d9a223          	sw	t4,36(s3)
C:\NucleiStudio_workspace\HBirdv2_Prj\fly_bird\Debug/../application/system.c:689
				pillar3_last=pillar3;
80001fd6:	01c92023          	sw	t3,0(s2)
80001fda:	00692223          	sw	t1,4(s2)
80001fde:	01192423          	sw	a7,8(s2)
80001fe2:	01092623          	sw	a6,12(s2)
80001fe6:	00a92823          	sw	a0,16(s2)
80001fea:	00b92a23          	sw	a1,20(s2)
80001fee:	00c92c23          	sw	a2,24(s2)
80001ff2:	00d92e23          	sw	a3,28(s2)
80001ff6:	02e92023          	sw	a4,32(s2)
80001ffa:	02f92223          	sw	a5,36(s2)
C:\NucleiStudio_workspace\HBirdv2_Prj\fly_bird\Debug/../application/system.c:691
				game_flappy_bird_run_key();  //按键处理
80001ffe:	9e9ff0ef          	jal	ra,800019e6 <game_flappy_bird_run_key>
game_flappy_bird_logic():
C:\NucleiStudio_workspace\HBirdv2_Prj\fly_bird\Debug/../application/system.c:608
	bird_move(); //移动计算
80002002:	e8ffe0ef          	jal	ra,80000e90 <bird_move>
C:\NucleiStudio_workspace\HBirdv2_Prj\fly_bird\Debug/../application/system.c:609
	pillar_move(); //移动计算
80002006:	b24ff0ef          	jal	ra,8000132a <pillar_move>
C:\NucleiStudio_workspace\HBirdv2_Prj\fly_bird\Debug/../application/system.c:610
	bird_crash();  //判断碰撞
8000200a:	f99fe0ef          	jal	ra,80000fa2 <bird_crash>
C:\NucleiStudio_workspace\HBirdv2_Prj\fly_bird\Debug/../application/system.c:611
}
8000200e:	bd39                	j	80001e2c <game_flappy_bird_main+0x6a>
game_flappy_bird_main():
C:\NucleiStudio_workspace\HBirdv2_Prj\fly_bird\Debug/../application/system.c:682
				game_flappy_bird_start_key();	//	检查
80002010:	a25ff0ef          	jal	ra,80001a34 <game_flappy_bird_start_key>
C:\NucleiStudio_workspace\HBirdv2_Prj\fly_bird\Debug/../application/system.c:684
				break;
80002014:	bd21                	j	80001e2c <game_flappy_bird_main+0x6a>

80002016 <__udivdi3>:
__udivdi3():
/Local/xl_ci/toolchain/riscv-gnu-toolchain/riscv-gcc/libgcc/libgcc2.c:1319
80002016:	88aa                	mv	a7,a0
80002018:	87ae                	mv	a5,a1
__udivmoddi4():
/Local/xl_ci/toolchain/riscv-gnu-toolchain/riscv-gcc/libgcc/libgcc2.c:1024
8000201a:	8832                	mv	a6,a2
/Local/xl_ci/toolchain/riscv-gnu-toolchain/riscv-gcc/libgcc/libgcc2.c:1025
8000201c:	8536                	mv	a0,a3
/Local/xl_ci/toolchain/riscv-gnu-toolchain/riscv-gcc/libgcc/libgcc2.c:1026
8000201e:	8346                	mv	t1,a7
/Local/xl_ci/toolchain/riscv-gnu-toolchain/riscv-gcc/libgcc/libgcc2.c:1064
80002020:	20069663          	bnez	a3,8000222c <__udivdi3+0x216>
/Local/xl_ci/toolchain/riscv-gnu-toolchain/riscv-gcc/libgcc/libgcc2.c:1066
80002024:	00004697          	auipc	a3,0x4
80002028:	08c68693          	addi	a3,a3,140 # 800060b0 <__clz_tab>
8000202c:	0ac5ff63          	bgeu	a1,a2,800020ea <__udivdi3+0xd4>
/Local/xl_ci/toolchain/riscv-gnu-toolchain/riscv-gcc/libgcc/libgcc2.c:1070
80002030:	6741                	lui	a4,0x10
80002032:	0ae67563          	bgeu	a2,a4,800020dc <__udivdi3+0xc6>
80002036:	0ff00713          	li	a4,255
8000203a:	00c73733          	sltu	a4,a4,a2
8000203e:	070e                	slli	a4,a4,0x3
80002040:	00e65533          	srl	a0,a2,a4
80002044:	96aa                	add	a3,a3,a0
80002046:	0006c683          	lbu	a3,0(a3)
8000204a:	02000513          	li	a0,32
8000204e:	9736                	add	a4,a4,a3
80002050:	40e506b3          	sub	a3,a0,a4
/Local/xl_ci/toolchain/riscv-gnu-toolchain/riscv-gcc/libgcc/libgcc2.c:1072
80002054:	00e50b63          	beq	a0,a4,8000206a <__udivdi3+0x54>
/Local/xl_ci/toolchain/riscv-gnu-toolchain/riscv-gcc/libgcc/libgcc2.c:1078
80002058:	00d795b3          	sll	a1,a5,a3
8000205c:	00e8d733          	srl	a4,a7,a4
/Local/xl_ci/toolchain/riscv-gnu-toolchain/riscv-gcc/libgcc/libgcc2.c:1077
80002060:	00d61833          	sll	a6,a2,a3
/Local/xl_ci/toolchain/riscv-gnu-toolchain/riscv-gcc/libgcc/libgcc2.c:1078
80002064:	8dd9                	or	a1,a1,a4
/Local/xl_ci/toolchain/riscv-gnu-toolchain/riscv-gcc/libgcc/libgcc2.c:1079
80002066:	00d89333          	sll	t1,a7,a3
/Local/xl_ci/toolchain/riscv-gnu-toolchain/riscv-gcc/libgcc/libgcc2.c:1082
8000206a:	01085893          	srli	a7,a6,0x10
8000206e:	0315d6b3          	divu	a3,a1,a7
80002072:	01081613          	slli	a2,a6,0x10
80002076:	8241                	srli	a2,a2,0x10
80002078:	01035793          	srli	a5,t1,0x10
8000207c:	0315f733          	remu	a4,a1,a7
80002080:	8536                	mv	a0,a3
80002082:	02d605b3          	mul	a1,a2,a3
80002086:	0742                	slli	a4,a4,0x10
80002088:	8fd9                	or	a5,a5,a4
8000208a:	00b7fc63          	bgeu	a5,a1,800020a2 <__udivdi3+0x8c>
8000208e:	97c2                	add	a5,a5,a6
80002090:	fff68513          	addi	a0,a3,-1
80002094:	0107e763          	bltu	a5,a6,800020a2 <__udivdi3+0x8c>
80002098:	00b7f563          	bgeu	a5,a1,800020a2 <__udivdi3+0x8c>
8000209c:	ffe68513          	addi	a0,a3,-2
800020a0:	97c2                	add	a5,a5,a6
800020a2:	8f8d                	sub	a5,a5,a1
800020a4:	0317f733          	remu	a4,a5,a7
800020a8:	0342                	slli	t1,t1,0x10
800020aa:	01035313          	srli	t1,t1,0x10
800020ae:	0317d7b3          	divu	a5,a5,a7
800020b2:	0742                	slli	a4,a4,0x10
800020b4:	00676333          	or	t1,a4,t1
800020b8:	02f606b3          	mul	a3,a2,a5
800020bc:	863e                	mv	a2,a5
800020be:	00d37b63          	bgeu	t1,a3,800020d4 <__udivdi3+0xbe>
800020c2:	9342                	add	t1,t1,a6
800020c4:	fff78613          	addi	a2,a5,-1
800020c8:	01036663          	bltu	t1,a6,800020d4 <__udivdi3+0xbe>
800020cc:	00d37463          	bgeu	t1,a3,800020d4 <__udivdi3+0xbe>
800020d0:	ffe78613          	addi	a2,a5,-2
800020d4:	0542                	slli	a0,a0,0x10
800020d6:	8d51                	or	a0,a0,a2
/Local/xl_ci/toolchain/riscv-gnu-toolchain/riscv-gcc/libgcc/libgcc2.c:1209
800020d8:	4581                	li	a1,0
800020da:	a85d                	j	80002190 <__udivdi3+0x17a>
/Local/xl_ci/toolchain/riscv-gnu-toolchain/riscv-gcc/libgcc/libgcc2.c:1070
800020dc:	01000537          	lui	a0,0x1000
800020e0:	4741                	li	a4,16
800020e2:	f4a66fe3          	bltu	a2,a0,80002040 <__udivdi3+0x2a>
800020e6:	4761                	li	a4,24
800020e8:	bfa1                	j	80002040 <__udivdi3+0x2a>
/Local/xl_ci/toolchain/riscv-gnu-toolchain/riscv-gcc/libgcc/libgcc2.c:1091
800020ea:	e601                	bnez	a2,800020f2 <__udivdi3+0xdc>
/Local/xl_ci/toolchain/riscv-gnu-toolchain/riscv-gcc/libgcc/libgcc2.c:1092
800020ec:	4705                	li	a4,1
800020ee:	02c75833          	divu	a6,a4,a2
/Local/xl_ci/toolchain/riscv-gnu-toolchain/riscv-gcc/libgcc/libgcc2.c:1094
800020f2:	6741                	lui	a4,0x10
800020f4:	08e87f63          	bgeu	a6,a4,80002192 <__udivdi3+0x17c>
800020f8:	0ff00713          	li	a4,255
800020fc:	01077363          	bgeu	a4,a6,80002102 <__udivdi3+0xec>
80002100:	4521                	li	a0,8
80002102:	00a85733          	srl	a4,a6,a0
80002106:	96ba                	add	a3,a3,a4
80002108:	0006c703          	lbu	a4,0(a3)
8000210c:	02000613          	li	a2,32
80002110:	972a                	add	a4,a4,a0
80002112:	40e606b3          	sub	a3,a2,a4
/Local/xl_ci/toolchain/riscv-gnu-toolchain/riscv-gcc/libgcc/libgcc2.c:1096
80002116:	08e61563          	bne	a2,a4,800021a0 <__udivdi3+0x18a>
/Local/xl_ci/toolchain/riscv-gnu-toolchain/riscv-gcc/libgcc/libgcc2.c:1105
8000211a:	410787b3          	sub	a5,a5,a6
/Local/xl_ci/toolchain/riscv-gnu-toolchain/riscv-gcc/libgcc/libgcc2.c:1106
8000211e:	4585                	li	a1,1
/Local/xl_ci/toolchain/riscv-gnu-toolchain/riscv-gcc/libgcc/libgcc2.c:1124
80002120:	01085893          	srli	a7,a6,0x10
80002124:	01081613          	slli	a2,a6,0x10
80002128:	8241                	srli	a2,a2,0x10
8000212a:	01035713          	srli	a4,t1,0x10
8000212e:	0317f6b3          	remu	a3,a5,a7
80002132:	0317d7b3          	divu	a5,a5,a7
80002136:	06c2                	slli	a3,a3,0x10
80002138:	8f55                	or	a4,a4,a3
8000213a:	02f60e33          	mul	t3,a2,a5
8000213e:	853e                	mv	a0,a5
80002140:	01c77c63          	bgeu	a4,t3,80002158 <__udivdi3+0x142>
80002144:	9742                	add	a4,a4,a6
80002146:	fff78513          	addi	a0,a5,-1
8000214a:	01076763          	bltu	a4,a6,80002158 <__udivdi3+0x142>
8000214e:	01c77563          	bgeu	a4,t3,80002158 <__udivdi3+0x142>
80002152:	ffe78513          	addi	a0,a5,-2
80002156:	9742                	add	a4,a4,a6
80002158:	41c70733          	sub	a4,a4,t3
8000215c:	031777b3          	remu	a5,a4,a7
80002160:	0342                	slli	t1,t1,0x10
80002162:	01035313          	srli	t1,t1,0x10
80002166:	03175733          	divu	a4,a4,a7
8000216a:	07c2                	slli	a5,a5,0x10
8000216c:	0067e333          	or	t1,a5,t1
80002170:	02e606b3          	mul	a3,a2,a4
80002174:	863a                	mv	a2,a4
80002176:	00d37b63          	bgeu	t1,a3,8000218c <__udivdi3+0x176>
8000217a:	9342                	add	t1,t1,a6
8000217c:	fff70613          	addi	a2,a4,-1 # ffff <__stack_size+0xf7ff>
80002180:	01036663          	bltu	t1,a6,8000218c <__udivdi3+0x176>
80002184:	00d37463          	bgeu	t1,a3,8000218c <__udivdi3+0x176>
80002188:	ffe70613          	addi	a2,a4,-2
8000218c:	0542                	slli	a0,a0,0x10
8000218e:	8d51                	or	a0,a0,a2
__udivdi3():
/Local/xl_ci/toolchain/riscv-gnu-toolchain/riscv-gcc/libgcc/libgcc2.c:1321
80002190:	8082                	ret
__udivmoddi4():
/Local/xl_ci/toolchain/riscv-gnu-toolchain/riscv-gcc/libgcc/libgcc2.c:1094
80002192:	01000737          	lui	a4,0x1000
80002196:	4541                	li	a0,16
80002198:	f6e865e3          	bltu	a6,a4,80002102 <__udivdi3+0xec>
8000219c:	4561                	li	a0,24
8000219e:	b795                	j	80002102 <__udivdi3+0xec>
/Local/xl_ci/toolchain/riscv-gnu-toolchain/riscv-gcc/libgcc/libgcc2.c:1114
800021a0:	00d81833          	sll	a6,a6,a3
/Local/xl_ci/toolchain/riscv-gnu-toolchain/riscv-gcc/libgcc/libgcc2.c:1115
800021a4:	00e7d533          	srl	a0,a5,a4
/Local/xl_ci/toolchain/riscv-gnu-toolchain/riscv-gcc/libgcc/libgcc2.c:1117
800021a8:	00d89333          	sll	t1,a7,a3
/Local/xl_ci/toolchain/riscv-gnu-toolchain/riscv-gcc/libgcc/libgcc2.c:1116
800021ac:	00d797b3          	sll	a5,a5,a3
800021b0:	00e8d733          	srl	a4,a7,a4
/Local/xl_ci/toolchain/riscv-gnu-toolchain/riscv-gcc/libgcc/libgcc2.c:1119
800021b4:	01085893          	srli	a7,a6,0x10
/Local/xl_ci/toolchain/riscv-gnu-toolchain/riscv-gcc/libgcc/libgcc2.c:1116
800021b8:	00f76633          	or	a2,a4,a5
/Local/xl_ci/toolchain/riscv-gnu-toolchain/riscv-gcc/libgcc/libgcc2.c:1119
800021bc:	03157733          	remu	a4,a0,a7
800021c0:	01081793          	slli	a5,a6,0x10
800021c4:	83c1                	srli	a5,a5,0x10
800021c6:	01065593          	srli	a1,a2,0x10
800021ca:	03155533          	divu	a0,a0,a7
800021ce:	0742                	slli	a4,a4,0x10
800021d0:	8f4d                	or	a4,a4,a1
800021d2:	02a786b3          	mul	a3,a5,a0
800021d6:	85aa                	mv	a1,a0
800021d8:	00d77c63          	bgeu	a4,a3,800021f0 <__udivdi3+0x1da>
800021dc:	9742                	add	a4,a4,a6
800021de:	fff50593          	addi	a1,a0,-1 # ffffff <__stack_size+0xfff7ff>
800021e2:	01076763          	bltu	a4,a6,800021f0 <__udivdi3+0x1da>
800021e6:	00d77563          	bgeu	a4,a3,800021f0 <__udivdi3+0x1da>
800021ea:	ffe50593          	addi	a1,a0,-2
800021ee:	9742                	add	a4,a4,a6
800021f0:	40d706b3          	sub	a3,a4,a3
800021f4:	0316f733          	remu	a4,a3,a7
800021f8:	0642                	slli	a2,a2,0x10
800021fa:	8241                	srli	a2,a2,0x10
800021fc:	0316d6b3          	divu	a3,a3,a7
80002200:	0742                	slli	a4,a4,0x10
80002202:	02d78533          	mul	a0,a5,a3
80002206:	00c767b3          	or	a5,a4,a2
8000220a:	8736                	mv	a4,a3
8000220c:	00a7fc63          	bgeu	a5,a0,80002224 <__udivdi3+0x20e>
80002210:	97c2                	add	a5,a5,a6
80002212:	fff68713          	addi	a4,a3,-1
80002216:	0107e763          	bltu	a5,a6,80002224 <__udivdi3+0x20e>
8000221a:	00a7f563          	bgeu	a5,a0,80002224 <__udivdi3+0x20e>
8000221e:	ffe68713          	addi	a4,a3,-2
80002222:	97c2                	add	a5,a5,a6
80002224:	05c2                	slli	a1,a1,0x10
80002226:	8f89                	sub	a5,a5,a0
80002228:	8dd9                	or	a1,a1,a4
8000222a:	bddd                	j	80002120 <__udivdi3+0x10a>
/Local/xl_ci/toolchain/riscv-gnu-toolchain/riscv-gcc/libgcc/libgcc2.c:1140
8000222c:	14d5e263          	bltu	a1,a3,80002370 <__udivdi3+0x35a>
/Local/xl_ci/toolchain/riscv-gnu-toolchain/riscv-gcc/libgcc/libgcc2.c:1159
80002230:	6741                	lui	a4,0x10
80002232:	02e6ff63          	bgeu	a3,a4,80002270 <__udivdi3+0x25a>
80002236:	0ff00713          	li	a4,255
8000223a:	00d735b3          	sltu	a1,a4,a3
8000223e:	058e                	slli	a1,a1,0x3
80002240:	00b6d533          	srl	a0,a3,a1
80002244:	00004717          	auipc	a4,0x4
80002248:	e6c70713          	addi	a4,a4,-404 # 800060b0 <__clz_tab>
8000224c:	972a                	add	a4,a4,a0
8000224e:	00074703          	lbu	a4,0(a4)
80002252:	02000513          	li	a0,32
80002256:	972e                	add	a4,a4,a1
80002258:	40e505b3          	sub	a1,a0,a4
/Local/xl_ci/toolchain/riscv-gnu-toolchain/riscv-gcc/libgcc/libgcc2.c:1160
8000225c:	02e51163          	bne	a0,a4,8000227e <__udivdi3+0x268>
/Local/xl_ci/toolchain/riscv-gnu-toolchain/riscv-gcc/libgcc/libgcc2.c:1172
80002260:	4505                	li	a0,1
/Local/xl_ci/toolchain/riscv-gnu-toolchain/riscv-gcc/libgcc/libgcc2.c:1170
80002262:	f2f6e7e3          	bltu	a3,a5,80002190 <__udivdi3+0x17a>
80002266:	00c8b533          	sltu	a0,a7,a2
8000226a:	00154513          	xori	a0,a0,1
8000226e:	b70d                	j	80002190 <__udivdi3+0x17a>
/Local/xl_ci/toolchain/riscv-gnu-toolchain/riscv-gcc/libgcc/libgcc2.c:1159
80002270:	01000737          	lui	a4,0x1000
80002274:	45c1                	li	a1,16
80002276:	fce6e5e3          	bltu	a3,a4,80002240 <__udivdi3+0x22a>
8000227a:	45e1                	li	a1,24
8000227c:	b7d1                	j	80002240 <__udivdi3+0x22a>
/Local/xl_ci/toolchain/riscv-gnu-toolchain/riscv-gcc/libgcc/libgcc2.c:1194
8000227e:	00e65833          	srl	a6,a2,a4
80002282:	00b696b3          	sll	a3,a3,a1
80002286:	00d86833          	or	a6,a6,a3
/Local/xl_ci/toolchain/riscv-gnu-toolchain/riscv-gcc/libgcc/libgcc2.c:1196
8000228a:	00e7d333          	srl	t1,a5,a4
/Local/xl_ci/toolchain/riscv-gnu-toolchain/riscv-gcc/libgcc/libgcc2.c:1200
8000228e:	01085e93          	srli	t4,a6,0x10
80002292:	03d376b3          	remu	a3,t1,t4
/Local/xl_ci/toolchain/riscv-gnu-toolchain/riscv-gcc/libgcc/libgcc2.c:1197
80002296:	00b797b3          	sll	a5,a5,a1
8000229a:	00e8d733          	srl	a4,a7,a4
/Local/xl_ci/toolchain/riscv-gnu-toolchain/riscv-gcc/libgcc/libgcc2.c:1195
8000229e:	00b61e33          	sll	t3,a2,a1
/Local/xl_ci/toolchain/riscv-gnu-toolchain/riscv-gcc/libgcc/libgcc2.c:1197
800022a2:	00f76633          	or	a2,a4,a5
/Local/xl_ci/toolchain/riscv-gnu-toolchain/riscv-gcc/libgcc/libgcc2.c:1200
800022a6:	01081793          	slli	a5,a6,0x10
800022aa:	83c1                	srli	a5,a5,0x10
800022ac:	01065713          	srli	a4,a2,0x10
800022b0:	03d35333          	divu	t1,t1,t4
800022b4:	06c2                	slli	a3,a3,0x10
800022b6:	8f55                	or	a4,a4,a3
800022b8:	02678f33          	mul	t5,a5,t1
800022bc:	851a                	mv	a0,t1
800022be:	01e77c63          	bgeu	a4,t5,800022d6 <__udivdi3+0x2c0>
800022c2:	9742                	add	a4,a4,a6
800022c4:	fff30513          	addi	a0,t1,-1
800022c8:	01076763          	bltu	a4,a6,800022d6 <__udivdi3+0x2c0>
800022cc:	01e77563          	bgeu	a4,t5,800022d6 <__udivdi3+0x2c0>
800022d0:	ffe30513          	addi	a0,t1,-2
800022d4:	9742                	add	a4,a4,a6
800022d6:	41e70733          	sub	a4,a4,t5
800022da:	03d776b3          	remu	a3,a4,t4
800022de:	03d75733          	divu	a4,a4,t4
800022e2:	06c2                	slli	a3,a3,0x10
800022e4:	02e78333          	mul	t1,a5,a4
800022e8:	01061793          	slli	a5,a2,0x10
800022ec:	83c1                	srli	a5,a5,0x10
800022ee:	8fd5                	or	a5,a5,a3
800022f0:	863a                	mv	a2,a4
800022f2:	0067fc63          	bgeu	a5,t1,8000230a <__udivdi3+0x2f4>
800022f6:	97c2                	add	a5,a5,a6
800022f8:	fff70613          	addi	a2,a4,-1 # ffffff <__stack_size+0xfff7ff>
800022fc:	0107e763          	bltu	a5,a6,8000230a <__udivdi3+0x2f4>
80002300:	0067f563          	bgeu	a5,t1,8000230a <__udivdi3+0x2f4>
80002304:	ffe70613          	addi	a2,a4,-2
80002308:	97c2                	add	a5,a5,a6
8000230a:	0542                	slli	a0,a0,0x10
/Local/xl_ci/toolchain/riscv-gnu-toolchain/riscv-gcc/libgcc/libgcc2.c:1201
8000230c:	6ec1                	lui	t4,0x10
/Local/xl_ci/toolchain/riscv-gnu-toolchain/riscv-gcc/libgcc/libgcc2.c:1200
8000230e:	8d51                	or	a0,a0,a2
/Local/xl_ci/toolchain/riscv-gnu-toolchain/riscv-gcc/libgcc/libgcc2.c:1201
80002310:	fffe8693          	addi	a3,t4,-1 # ffff <__stack_size+0xf7ff>
80002314:	010e5613          	srli	a2,t3,0x10
80002318:	01055813          	srli	a6,a0,0x10
/Local/xl_ci/toolchain/riscv-gnu-toolchain/riscv-gcc/libgcc/libgcc2.c:1200
8000231c:	406787b3          	sub	a5,a5,t1
/Local/xl_ci/toolchain/riscv-gnu-toolchain/riscv-gcc/libgcc/libgcc2.c:1201
80002320:	00d57333          	and	t1,a0,a3
80002324:	00de76b3          	and	a3,t3,a3
80002328:	02d30e33          	mul	t3,t1,a3
8000232c:	02d806b3          	mul	a3,a6,a3
80002330:	010e5713          	srli	a4,t3,0x10
80002334:	02c30333          	mul	t1,t1,a2
80002338:	9336                	add	t1,t1,a3
8000233a:	971a                	add	a4,a4,t1
8000233c:	02c80833          	mul	a6,a6,a2
80002340:	00d77363          	bgeu	a4,a3,80002346 <__udivdi3+0x330>
80002344:	9876                	add	a6,a6,t4
80002346:	01075693          	srli	a3,a4,0x10
8000234a:	9836                	add	a6,a6,a3
/Local/xl_ci/toolchain/riscv-gnu-toolchain/riscv-gcc/libgcc/libgcc2.c:1203
8000234c:	0307e063          	bltu	a5,a6,8000236c <__udivdi3+0x356>
80002350:	d90794e3          	bne	a5,a6,800020d8 <__udivdi3+0xc2>
/Local/xl_ci/toolchain/riscv-gnu-toolchain/riscv-gcc/libgcc/libgcc2.c:1201
80002354:	67c1                	lui	a5,0x10
80002356:	17fd                	addi	a5,a5,-1
80002358:	8f7d                	and	a4,a4,a5
8000235a:	0742                	slli	a4,a4,0x10
8000235c:	00fe7e33          	and	t3,t3,a5
/Local/xl_ci/toolchain/riscv-gnu-toolchain/riscv-gcc/libgcc/libgcc2.c:1198
80002360:	00b898b3          	sll	a7,a7,a1
/Local/xl_ci/toolchain/riscv-gnu-toolchain/riscv-gcc/libgcc/libgcc2.c:1201
80002364:	9772                	add	a4,a4,t3
/Local/xl_ci/toolchain/riscv-gnu-toolchain/riscv-gcc/libgcc/libgcc2.c:1209
80002366:	4581                	li	a1,0
/Local/xl_ci/toolchain/riscv-gnu-toolchain/riscv-gcc/libgcc/libgcc2.c:1203
80002368:	e2e8f4e3          	bgeu	a7,a4,80002190 <__udivdi3+0x17a>
/Local/xl_ci/toolchain/riscv-gnu-toolchain/riscv-gcc/libgcc/libgcc2.c:1205
8000236c:	157d                	addi	a0,a0,-1
__udivdi3():
/Local/xl_ci/toolchain/riscv-gnu-toolchain/riscv-gcc/libgcc/libgcc2.c:1206
8000236e:	b3ad                	j	800020d8 <__udivdi3+0xc2>
__udivmoddi4():
/Local/xl_ci/toolchain/riscv-gnu-toolchain/riscv-gcc/libgcc/libgcc2.c:1145
80002370:	4581                	li	a1,0
/Local/xl_ci/toolchain/riscv-gnu-toolchain/riscv-gcc/libgcc/libgcc2.c:1144
80002372:	4501                	li	a0,0
80002374:	bd31                	j	80002190 <__udivdi3+0x17a>

80002376 <__addsf3>:
__addsf3():
/Local/xl_ci/toolchain/riscv-gnu-toolchain/riscv-gcc/libgcc/soft-fp/addsf3.c:44
80002376:	00800737          	lui	a4,0x800
/Local/xl_ci/toolchain/riscv-gnu-toolchain/riscv-gcc/libgcc/soft-fp/addsf3.c:36
8000237a:	1141                	addi	sp,sp,-16
/Local/xl_ci/toolchain/riscv-gnu-toolchain/riscv-gcc/libgcc/soft-fp/addsf3.c:44
8000237c:	177d                	addi	a4,a4,-1
8000237e:	00a777b3          	and	a5,a4,a0
/Local/xl_ci/toolchain/riscv-gnu-toolchain/riscv-gcc/libgcc/soft-fp/addsf3.c:36
80002382:	c422                	sw	s0,8(sp)
80002384:	c226                	sw	s1,4(sp)
/Local/xl_ci/toolchain/riscv-gnu-toolchain/riscv-gcc/libgcc/soft-fp/addsf3.c:44
80002386:	01755413          	srli	s0,a0,0x17
8000238a:	01f55493          	srli	s1,a0,0x1f
/Local/xl_ci/toolchain/riscv-gnu-toolchain/riscv-gcc/libgcc/soft-fp/addsf3.c:45
8000238e:	0175d513          	srli	a0,a1,0x17
80002392:	8f6d                	and	a4,a4,a1
/Local/xl_ci/toolchain/riscv-gnu-toolchain/riscv-gcc/libgcc/soft-fp/addsf3.c:44
80002394:	0ff47413          	zext.b	s0,s0
/Local/xl_ci/toolchain/riscv-gnu-toolchain/riscv-gcc/libgcc/soft-fp/addsf3.c:45
80002398:	0ff57513          	zext.b	a0,a0
/Local/xl_ci/toolchain/riscv-gnu-toolchain/riscv-gcc/libgcc/soft-fp/addsf3.c:36
8000239c:	c606                	sw	ra,12(sp)
8000239e:	c04a                	sw	s2,0(sp)
/Local/xl_ci/toolchain/riscv-gnu-toolchain/riscv-gcc/libgcc/soft-fp/addsf3.c:45
800023a0:	81fd                	srli	a1,a1,0x1f
/Local/xl_ci/toolchain/riscv-gnu-toolchain/riscv-gcc/libgcc/soft-fp/addsf3.c:44
800023a2:	078e                	slli	a5,a5,0x3
/Local/xl_ci/toolchain/riscv-gnu-toolchain/riscv-gcc/libgcc/soft-fp/addsf3.c:45
800023a4:	070e                	slli	a4,a4,0x3
/Local/xl_ci/toolchain/riscv-gnu-toolchain/riscv-gcc/libgcc/soft-fp/addsf3.c:46
800023a6:	40a406b3          	sub	a3,s0,a0
800023aa:	12b49663          	bne	s1,a1,800024d6 <__addsf3+0x160>
/Local/xl_ci/toolchain/riscv-gnu-toolchain/riscv-gcc/libgcc/soft-fp/addsf3.c:46 (discriminator 7)
800023ae:	06d05c63          	blez	a3,80002426 <__addsf3+0xb0>
/Local/xl_ci/toolchain/riscv-gnu-toolchain/riscv-gcc/libgcc/soft-fp/addsf3.c:46 (discriminator 9)
800023b2:	e105                	bnez	a0,800023d2 <__addsf3+0x5c>
/Local/xl_ci/toolchain/riscv-gnu-toolchain/riscv-gcc/libgcc/soft-fp/addsf3.c:46 (discriminator 11)
800023b4:	10070f63          	beqz	a4,800024d2 <__addsf3+0x15c>
/Local/xl_ci/toolchain/riscv-gnu-toolchain/riscv-gcc/libgcc/soft-fp/addsf3.c:46 (discriminator 14)
800023b8:	fff68613          	addi	a2,a3,-1
800023bc:	e601                	bnez	a2,800023c4 <__addsf3+0x4e>
/Local/xl_ci/toolchain/riscv-gnu-toolchain/riscv-gcc/libgcc/soft-fp/addsf3.c:46 (discriminator 75)
800023be:	97ba                	add	a5,a5,a4
/Local/xl_ci/toolchain/riscv-gnu-toolchain/riscv-gcc/libgcc/soft-fp/addsf3.c:45 (discriminator 75)
800023c0:	4405                	li	s0,1
/Local/xl_ci/toolchain/riscv-gnu-toolchain/riscv-gcc/libgcc/soft-fp/addsf3.c:46 (discriminator 75)
800023c2:	a081                	j	80002402 <__addsf3+0x8c>
/Local/xl_ci/toolchain/riscv-gnu-toolchain/riscv-gcc/libgcc/soft-fp/addsf3.c:46 (discriminator 24)
800023c4:	0ff00593          	li	a1,255
800023c8:	00b69d63          	bne	a3,a1,800023e2 <__addsf3+0x6c>
/Local/xl_ci/toolchain/riscv-gnu-toolchain/riscv-gcc/libgcc/soft-fp/addsf3.c:46
800023cc:	0ff00413          	li	s0,255
800023d0:	a8c1                	j	800024a0 <__addsf3+0x12a>
/Local/xl_ci/toolchain/riscv-gnu-toolchain/riscv-gcc/libgcc/soft-fp/addsf3.c:46 (discriminator 12)
800023d2:	0ff00613          	li	a2,255
800023d6:	0cc40563          	beq	s0,a2,800024a0 <__addsf3+0x12a>
/Local/xl_ci/toolchain/riscv-gnu-toolchain/riscv-gcc/libgcc/soft-fp/addsf3.c:46 (discriminator 38)
800023da:	04000637          	lui	a2,0x4000
800023de:	8f51                	or	a4,a4,a2
800023e0:	8636                	mv	a2,a3
/Local/xl_ci/toolchain/riscv-gnu-toolchain/riscv-gcc/libgcc/soft-fp/addsf3.c:46 (discriminator 47)
800023e2:	45ed                	li	a1,27
800023e4:	4685                	li	a3,1
800023e6:	00c5cd63          	blt	a1,a2,80002400 <__addsf3+0x8a>
/Local/xl_ci/toolchain/riscv-gnu-toolchain/riscv-gcc/libgcc/soft-fp/addsf3.c:46 (discriminator 48)
800023ea:	02000693          	li	a3,32
800023ee:	8e91                	sub	a3,a3,a2
800023f0:	00c755b3          	srl	a1,a4,a2
800023f4:	00d71733          	sll	a4,a4,a3
800023f8:	00e03733          	snez	a4,a4
800023fc:	00e5e6b3          	or	a3,a1,a4
/Local/xl_ci/toolchain/riscv-gnu-toolchain/riscv-gcc/libgcc/soft-fp/addsf3.c:46 (discriminator 59)
80002400:	97b6                	add	a5,a5,a3
/Local/xl_ci/toolchain/riscv-gnu-toolchain/riscv-gcc/libgcc/soft-fp/addsf3.c:46 (discriminator 112)
80002402:	04000737          	lui	a4,0x4000
80002406:	8f7d                	and	a4,a4,a5
80002408:	cf41                	beqz	a4,800024a0 <__addsf3+0x12a>
/Local/xl_ci/toolchain/riscv-gnu-toolchain/riscv-gcc/libgcc/soft-fp/addsf3.c:46 (discriminator 171)
8000240a:	0405                	addi	s0,s0,1
8000240c:	0ff00713          	li	a4,255
80002410:	22e40a63          	beq	s0,a4,80002644 <__addsf3+0x2ce>
/Local/xl_ci/toolchain/riscv-gnu-toolchain/riscv-gcc/libgcc/soft-fp/addsf3.c:46
80002414:	7e000737          	lui	a4,0x7e000
80002418:	0017f693          	andi	a3,a5,1
8000241c:	177d                	addi	a4,a4,-1
8000241e:	8385                	srli	a5,a5,0x1
80002420:	8ff9                	and	a5,a5,a4
80002422:	8fd5                	or	a5,a5,a3
80002424:	a8b5                	j	800024a0 <__addsf3+0x12a>
/Local/xl_ci/toolchain/riscv-gnu-toolchain/riscv-gcc/libgcc/soft-fp/addsf3.c:46 (discriminator 10)
80002426:	cab1                	beqz	a3,8000247a <__addsf3+0x104>
/Local/xl_ci/toolchain/riscv-gnu-toolchain/riscv-gcc/libgcc/soft-fp/addsf3.c:46 (discriminator 61)
80002428:	408506b3          	sub	a3,a0,s0
8000242c:	ec01                	bnez	s0,80002444 <__addsf3+0xce>
/Local/xl_ci/toolchain/riscv-gnu-toolchain/riscv-gcc/libgcc/soft-fp/addsf3.c:46 (discriminator 63)
8000242e:	20078563          	beqz	a5,80002638 <__addsf3+0x2c2>
/Local/xl_ci/toolchain/riscv-gnu-toolchain/riscv-gcc/libgcc/soft-fp/addsf3.c:46 (discriminator 66)
80002432:	fff68613          	addi	a2,a3,-1
80002436:	d641                	beqz	a2,800023be <__addsf3+0x48>
/Local/xl_ci/toolchain/riscv-gnu-toolchain/riscv-gcc/libgcc/soft-fp/addsf3.c:46 (discriminator 76)
80002438:	0ff00593          	li	a1,255
8000243c:	00b69c63          	bne	a3,a1,80002454 <__addsf3+0xde>
/Local/xl_ci/toolchain/riscv-gnu-toolchain/riscv-gcc/libgcc/soft-fp/addsf3.c:45
80002440:	87ba                	mv	a5,a4
80002442:	b769                	j	800023cc <__addsf3+0x56>
/Local/xl_ci/toolchain/riscv-gnu-toolchain/riscv-gcc/libgcc/soft-fp/addsf3.c:46 (discriminator 64)
80002444:	0ff00613          	li	a2,255
80002448:	fec50ce3          	beq	a0,a2,80002440 <__addsf3+0xca>
/Local/xl_ci/toolchain/riscv-gnu-toolchain/riscv-gcc/libgcc/soft-fp/addsf3.c:46 (discriminator 90)
8000244c:	04000637          	lui	a2,0x4000
80002450:	8fd1                	or	a5,a5,a2
80002452:	8636                	mv	a2,a3
/Local/xl_ci/toolchain/riscv-gnu-toolchain/riscv-gcc/libgcc/soft-fp/addsf3.c:46 (discriminator 99)
80002454:	45ed                	li	a1,27
80002456:	4685                	li	a3,1
80002458:	00c5cd63          	blt	a1,a2,80002472 <__addsf3+0xfc>
/Local/xl_ci/toolchain/riscv-gnu-toolchain/riscv-gcc/libgcc/soft-fp/addsf3.c:46 (discriminator 100)
8000245c:	02000693          	li	a3,32
80002460:	8e91                	sub	a3,a3,a2
80002462:	00c7d5b3          	srl	a1,a5,a2
80002466:	00d797b3          	sll	a5,a5,a3
8000246a:	00f037b3          	snez	a5,a5
8000246e:	00f5e6b3          	or	a3,a1,a5
/Local/xl_ci/toolchain/riscv-gnu-toolchain/riscv-gcc/libgcc/soft-fp/addsf3.c:46 (discriminator 111)
80002472:	00e687b3          	add	a5,a3,a4
/Local/xl_ci/toolchain/riscv-gnu-toolchain/riscv-gcc/libgcc/soft-fp/addsf3.c:45 (discriminator 111)
80002476:	842a                	mv	s0,a0
80002478:	b769                	j	80002402 <__addsf3+0x8c>
/Local/xl_ci/toolchain/riscv-gnu-toolchain/riscv-gcc/libgcc/soft-fp/addsf3.c:46 (discriminator 62)
8000247a:	00140693          	addi	a3,s0,1
8000247e:	0fe6f613          	andi	a2,a3,254
80002482:	e231                	bnez	a2,800024c6 <__addsf3+0x150>
/Local/xl_ci/toolchain/riscv-gnu-toolchain/riscv-gcc/libgcc/soft-fp/addsf3.c:46 (discriminator 113)
80002484:	e80d                	bnez	s0,800024b6 <__addsf3+0x140>
/Local/xl_ci/toolchain/riscv-gnu-toolchain/riscv-gcc/libgcc/soft-fp/addsf3.c:46 (discriminator 115)
80002486:	1a078b63          	beqz	a5,8000263c <__addsf3+0x2c6>
/Local/xl_ci/toolchain/riscv-gnu-toolchain/riscv-gcc/libgcc/soft-fp/addsf3.c:46 (discriminator 118)
8000248a:	cb19                	beqz	a4,800024a0 <__addsf3+0x12a>
/Local/xl_ci/toolchain/riscv-gnu-toolchain/riscv-gcc/libgcc/soft-fp/addsf3.c:46 (discriminator 124)
8000248c:	97ba                	add	a5,a5,a4
8000248e:	04000737          	lui	a4,0x4000
80002492:	8f7d                	and	a4,a4,a5
80002494:	c711                	beqz	a4,800024a0 <__addsf3+0x12a>
/Local/xl_ci/toolchain/riscv-gnu-toolchain/riscv-gcc/libgcc/soft-fp/addsf3.c:46 (discriminator 126)
80002496:	fc000737          	lui	a4,0xfc000
8000249a:	177d                	addi	a4,a4,-1
8000249c:	8ff9                	and	a5,a5,a4
8000249e:	4405                	li	s0,1
/Local/xl_ci/toolchain/riscv-gnu-toolchain/riscv-gcc/libgcc/soft-fp/addsf3.c:47 (discriminator 377)
800024a0:	0077f713          	andi	a4,a5,7
800024a4:	1a070163          	beqz	a4,80002646 <__addsf3+0x2d0>
/Local/xl_ci/toolchain/riscv-gnu-toolchain/riscv-gcc/libgcc/soft-fp/addsf3.c:47 (discriminator 37)
800024a8:	00f7f713          	andi	a4,a5,15
800024ac:	4691                	li	a3,4
800024ae:	18d70c63          	beq	a4,a3,80002646 <__addsf3+0x2d0>
/Local/xl_ci/toolchain/riscv-gnu-toolchain/riscv-gcc/libgcc/soft-fp/addsf3.c:47 (discriminator 44)
800024b2:	0791                	addi	a5,a5,4
800024b4:	aa49                	j	80002646 <__addsf3+0x2d0>
/Local/xl_ci/toolchain/riscv-gnu-toolchain/riscv-gcc/libgcc/soft-fp/addsf3.c:46 (discriminator 143)
800024b6:	d7c9                	beqz	a5,80002440 <__addsf3+0xca>
/Local/xl_ci/toolchain/riscv-gnu-toolchain/riscv-gcc/libgcc/soft-fp/addsf3.c:46 (discriminator 329)
800024b8:	db11                	beqz	a4,800023cc <__addsf3+0x56>
/Local/xl_ci/toolchain/riscv-gnu-toolchain/riscv-gcc/libgcc/soft-fp/addsf3.c:46
800024ba:	4481                	li	s1,0
800024bc:	020007b7          	lui	a5,0x2000
800024c0:	0ff00413          	li	s0,255
800024c4:	a249                	j	80002646 <__addsf3+0x2d0>
/Local/xl_ci/toolchain/riscv-gnu-toolchain/riscv-gcc/libgcc/soft-fp/addsf3.c:46 (discriminator 114)
800024c6:	0ff00613          	li	a2,255
800024ca:	16c68b63          	beq	a3,a2,80002640 <__addsf3+0x2ca>
/Local/xl_ci/toolchain/riscv-gnu-toolchain/riscv-gcc/libgcc/soft-fp/addsf3.c:46
800024ce:	97ba                	add	a5,a5,a4
800024d0:	8385                	srli	a5,a5,0x1
800024d2:	8436                	mv	s0,a3
800024d4:	b7f1                	j	800024a0 <__addsf3+0x12a>
/Local/xl_ci/toolchain/riscv-gnu-toolchain/riscv-gcc/libgcc/soft-fp/addsf3.c:46 (discriminator 8)
800024d6:	06d05063          	blez	a3,80002536 <__addsf3+0x1c0>
/Local/xl_ci/toolchain/riscv-gnu-toolchain/riscv-gcc/libgcc/soft-fp/addsf3.c:46 (discriminator 189)
800024da:	e529                	bnez	a0,80002524 <__addsf3+0x1ae>
/Local/xl_ci/toolchain/riscv-gnu-toolchain/riscv-gcc/libgcc/soft-fp/addsf3.c:46 (discriminator 191)
800024dc:	db7d                	beqz	a4,800024d2 <__addsf3+0x15c>
/Local/xl_ci/toolchain/riscv-gnu-toolchain/riscv-gcc/libgcc/soft-fp/addsf3.c:46 (discriminator 194)
800024de:	fff68613          	addi	a2,a3,-1
800024e2:	e601                	bnez	a2,800024ea <__addsf3+0x174>
/Local/xl_ci/toolchain/riscv-gnu-toolchain/riscv-gcc/libgcc/soft-fp/addsf3.c:46 (discriminator 203)
800024e4:	8f99                	sub	a5,a5,a4
/Local/xl_ci/toolchain/riscv-gnu-toolchain/riscv-gcc/libgcc/soft-fp/addsf3.c:45 (discriminator 255)
800024e6:	4405                	li	s0,1
/Local/xl_ci/toolchain/riscv-gnu-toolchain/riscv-gcc/libgcc/soft-fp/addsf3.c:46 (discriminator 255)
800024e8:	a02d                	j	80002512 <__addsf3+0x19c>
/Local/xl_ci/toolchain/riscv-gnu-toolchain/riscv-gcc/libgcc/soft-fp/addsf3.c:46 (discriminator 204)
800024ea:	0ff00593          	li	a1,255
800024ee:	ecb68fe3          	beq	a3,a1,800023cc <__addsf3+0x56>
/Local/xl_ci/toolchain/riscv-gnu-toolchain/riscv-gcc/libgcc/soft-fp/addsf3.c:46 (discriminator 227)
800024f2:	45ed                	li	a1,27
800024f4:	4685                	li	a3,1
800024f6:	00c5cd63          	blt	a1,a2,80002510 <__addsf3+0x19a>
/Local/xl_ci/toolchain/riscv-gnu-toolchain/riscv-gcc/libgcc/soft-fp/addsf3.c:46 (discriminator 228)
800024fa:	02000693          	li	a3,32
800024fe:	8e91                	sub	a3,a3,a2
80002500:	00c755b3          	srl	a1,a4,a2
80002504:	00d71733          	sll	a4,a4,a3
80002508:	00e03733          	snez	a4,a4
8000250c:	00e5e6b3          	or	a3,a1,a4
/Local/xl_ci/toolchain/riscv-gnu-toolchain/riscv-gcc/libgcc/soft-fp/addsf3.c:46 (discriminator 239)
80002510:	8f95                	sub	a5,a5,a3
/Local/xl_ci/toolchain/riscv-gnu-toolchain/riscv-gcc/libgcc/soft-fp/addsf3.c:46 (discriminator 292)
80002512:	04000937          	lui	s2,0x4000
80002516:	0127f733          	and	a4,a5,s2
8000251a:	d359                	beqz	a4,800024a0 <__addsf3+0x12a>
/Local/xl_ci/toolchain/riscv-gnu-toolchain/riscv-gcc/libgcc/soft-fp/addsf3.c:46 (discriminator 351)
8000251c:	197d                	addi	s2,s2,-1
8000251e:	0127f933          	and	s2,a5,s2
80002522:	a0f1                	j	800025ee <__addsf3+0x278>
/Local/xl_ci/toolchain/riscv-gnu-toolchain/riscv-gcc/libgcc/soft-fp/addsf3.c:46 (discriminator 192)
80002524:	0ff00613          	li	a2,255
80002528:	f6c40ce3          	beq	s0,a2,800024a0 <__addsf3+0x12a>
/Local/xl_ci/toolchain/riscv-gnu-toolchain/riscv-gcc/libgcc/soft-fp/addsf3.c:46 (discriminator 218)
8000252c:	04000637          	lui	a2,0x4000
80002530:	8f51                	or	a4,a4,a2
80002532:	8636                	mv	a2,a3
80002534:	bf7d                	j	800024f2 <__addsf3+0x17c>
/Local/xl_ci/toolchain/riscv-gnu-toolchain/riscv-gcc/libgcc/soft-fp/addsf3.c:46 (discriminator 190)
80002536:	c2ad                	beqz	a3,80002598 <__addsf3+0x222>
/Local/xl_ci/toolchain/riscv-gnu-toolchain/riscv-gcc/libgcc/soft-fp/addsf3.c:46 (discriminator 241)
80002538:	408506b3          	sub	a3,a0,s0
8000253c:	e015                	bnez	s0,80002560 <__addsf3+0x1ea>
/Local/xl_ci/toolchain/riscv-gnu-toolchain/riscv-gcc/libgcc/soft-fp/addsf3.c:46 (discriminator 243)
8000253e:	14078a63          	beqz	a5,80002692 <__addsf3+0x31c>
/Local/xl_ci/toolchain/riscv-gnu-toolchain/riscv-gcc/libgcc/soft-fp/addsf3.c:46 (discriminator 246)
80002542:	fff68613          	addi	a2,a3,-1
80002546:	e609                	bnez	a2,80002550 <__addsf3+0x1da>
/Local/xl_ci/toolchain/riscv-gnu-toolchain/riscv-gcc/libgcc/soft-fp/addsf3.c:46 (discriminator 255)
80002548:	40f707b3          	sub	a5,a4,a5
8000254c:	84ae                	mv	s1,a1
8000254e:	bf61                	j	800024e6 <__addsf3+0x170>
/Local/xl_ci/toolchain/riscv-gnu-toolchain/riscv-gcc/libgcc/soft-fp/addsf3.c:46 (discriminator 256)
80002550:	0ff00813          	li	a6,255
80002554:	01069e63          	bne	a3,a6,80002570 <__addsf3+0x1fa>
/Local/xl_ci/toolchain/riscv-gnu-toolchain/riscv-gcc/libgcc/soft-fp/addsf3.c:45
80002558:	87ba                	mv	a5,a4
/Local/xl_ci/toolchain/riscv-gnu-toolchain/riscv-gcc/libgcc/soft-fp/addsf3.c:46
8000255a:	0ff00413          	li	s0,255
8000255e:	a0b9                	j	800025ac <__addsf3+0x236>
/Local/xl_ci/toolchain/riscv-gnu-toolchain/riscv-gcc/libgcc/soft-fp/addsf3.c:46 (discriminator 244)
80002560:	0ff00613          	li	a2,255
80002564:	fec50ae3          	beq	a0,a2,80002558 <__addsf3+0x1e2>
/Local/xl_ci/toolchain/riscv-gnu-toolchain/riscv-gcc/libgcc/soft-fp/addsf3.c:46 (discriminator 270)
80002568:	04000637          	lui	a2,0x4000
8000256c:	8fd1                	or	a5,a5,a2
8000256e:	8636                	mv	a2,a3
/Local/xl_ci/toolchain/riscv-gnu-toolchain/riscv-gcc/libgcc/soft-fp/addsf3.c:46 (discriminator 279)
80002570:	486d                	li	a6,27
80002572:	4685                	li	a3,1
80002574:	00c84d63          	blt	a6,a2,8000258e <__addsf3+0x218>
/Local/xl_ci/toolchain/riscv-gnu-toolchain/riscv-gcc/libgcc/soft-fp/addsf3.c:46 (discriminator 280)
80002578:	02000693          	li	a3,32
8000257c:	8e91                	sub	a3,a3,a2
8000257e:	00c7d833          	srl	a6,a5,a2
80002582:	00d797b3          	sll	a5,a5,a3
80002586:	00f037b3          	snez	a5,a5
8000258a:	00f866b3          	or	a3,a6,a5
/Local/xl_ci/toolchain/riscv-gnu-toolchain/riscv-gcc/libgcc/soft-fp/addsf3.c:46 (discriminator 291)
8000258e:	40d707b3          	sub	a5,a4,a3
/Local/xl_ci/toolchain/riscv-gnu-toolchain/riscv-gcc/libgcc/soft-fp/addsf3.c:45 (discriminator 291)
80002592:	842a                	mv	s0,a0
80002594:	84ae                	mv	s1,a1
80002596:	bfb5                	j	80002512 <__addsf3+0x19c>
/Local/xl_ci/toolchain/riscv-gnu-toolchain/riscv-gcc/libgcc/soft-fp/addsf3.c:46 (discriminator 242)
80002598:	00140693          	addi	a3,s0,1
8000259c:	0fe6f693          	andi	a3,a3,254
800025a0:	ee8d                	bnez	a3,800025da <__addsf3+0x264>
/Local/xl_ci/toolchain/riscv-gnu-toolchain/riscv-gcc/libgcc/soft-fp/addsf3.c:46 (discriminator 293)
800025a2:	e40d                	bnez	s0,800025cc <__addsf3+0x256>
/Local/xl_ci/toolchain/riscv-gnu-toolchain/riscv-gcc/libgcc/soft-fp/addsf3.c:46 (discriminator 295)
800025a4:	e791                	bnez	a5,800025b0 <__addsf3+0x23a>
/Local/xl_ci/toolchain/riscv-gnu-toolchain/riscv-gcc/libgcc/soft-fp/addsf3.c:46 (discriminator 297)
800025a6:	4481                	li	s1,0
800025a8:	cf59                	beqz	a4,80002646 <__addsf3+0x2d0>
/Local/xl_ci/toolchain/riscv-gnu-toolchain/riscv-gcc/libgcc/soft-fp/addsf3.c:46
800025aa:	87ba                	mv	a5,a4
800025ac:	84ae                	mv	s1,a1
800025ae:	bdcd                	j	800024a0 <__addsf3+0x12a>
/Local/xl_ci/toolchain/riscv-gnu-toolchain/riscv-gcc/libgcc/soft-fp/addsf3.c:46 (discriminator 298)
800025b0:	ee0708e3          	beqz	a4,800024a0 <__addsf3+0x12a>
/Local/xl_ci/toolchain/riscv-gnu-toolchain/riscv-gcc/libgcc/soft-fp/addsf3.c:46 (discriminator 305)
800025b4:	40e786b3          	sub	a3,a5,a4
800025b8:	04000637          	lui	a2,0x4000
800025bc:	8e75                	and	a2,a2,a3
800025be:	40f707b3          	sub	a5,a4,a5
800025c2:	f66d                	bnez	a2,800025ac <__addsf3+0x236>
/Local/xl_ci/toolchain/riscv-gnu-toolchain/riscv-gcc/libgcc/soft-fp/addsf3.c:46 (discriminator 308)
800025c4:	4781                	li	a5,0
800025c6:	c2a5                	beqz	a3,80002626 <__addsf3+0x2b0>
800025c8:	87b6                	mv	a5,a3
800025ca:	bdd9                	j	800024a0 <__addsf3+0x12a>
/Local/xl_ci/toolchain/riscv-gnu-toolchain/riscv-gcc/libgcc/soft-fp/addsf3.c:46 (discriminator 327)
800025cc:	ee0796e3          	bnez	a5,800024b8 <__addsf3+0x142>
/Local/xl_ci/toolchain/riscv-gnu-toolchain/riscv-gcc/libgcc/soft-fp/addsf3.c:46 (discriminator 328)
800025d0:	ee0705e3          	beqz	a4,800024ba <__addsf3+0x144>
/Local/xl_ci/toolchain/riscv-gnu-toolchain/riscv-gcc/libgcc/soft-fp/addsf3.c:46
800025d4:	87ba                	mv	a5,a4
800025d6:	84ae                	mv	s1,a1
800025d8:	bbd5                	j	800023cc <__addsf3+0x56>
/Local/xl_ci/toolchain/riscv-gnu-toolchain/riscv-gcc/libgcc/soft-fp/addsf3.c:46 (discriminator 294)
800025da:	40e78933          	sub	s2,a5,a4
800025de:	040006b7          	lui	a3,0x4000
800025e2:	00d976b3          	and	a3,s2,a3
800025e6:	ce85                	beqz	a3,8000261e <__addsf3+0x2a8>
/Local/xl_ci/toolchain/riscv-gnu-toolchain/riscv-gcc/libgcc/soft-fp/addsf3.c:46 (discriminator 344)
800025e8:	40f70933          	sub	s2,a4,a5
800025ec:	84ae                	mv	s1,a1
/Local/xl_ci/toolchain/riscv-gnu-toolchain/riscv-gcc/libgcc/soft-fp/addsf3.c:46 (discriminator 354)
800025ee:	854a                	mv	a0,s2
800025f0:	043000ef          	jal	ra,80002e32 <__clzsi2>
800025f4:	156d                	addi	a0,a0,-5
800025f6:	00a91933          	sll	s2,s2,a0
800025fa:	02854863          	blt	a0,s0,8000262a <__addsf3+0x2b4>
/Local/xl_ci/toolchain/riscv-gnu-toolchain/riscv-gcc/libgcc/soft-fp/addsf3.c:46 (discriminator 367)
800025fe:	8d01                	sub	a0,a0,s0
80002600:	0505                	addi	a0,a0,1
80002602:	02000413          	li	s0,32
80002606:	00a957b3          	srl	a5,s2,a0
8000260a:	40a40533          	sub	a0,s0,a0
8000260e:	00a91933          	sll	s2,s2,a0
80002612:	01203933          	snez	s2,s2
80002616:	0127e7b3          	or	a5,a5,s2
8000261a:	4401                	li	s0,0
8000261c:	b551                	j	800024a0 <__addsf3+0x12a>
/Local/xl_ci/toolchain/riscv-gnu-toolchain/riscv-gcc/libgcc/soft-fp/addsf3.c:46 (discriminator 345)
8000261e:	fc0918e3          	bnez	s2,800025ee <__addsf3+0x278>
/Local/xl_ci/toolchain/riscv-gnu-toolchain/riscv-gcc/libgcc/soft-fp/addsf3.c:46
80002622:	4781                	li	a5,0
80002624:	4401                	li	s0,0
80002626:	4481                	li	s1,0
80002628:	a839                	j	80002646 <__addsf3+0x2d0>
/Local/xl_ci/toolchain/riscv-gnu-toolchain/riscv-gcc/libgcc/soft-fp/addsf3.c:46 (discriminator 368)
8000262a:	fc0007b7          	lui	a5,0xfc000
8000262e:	17fd                	addi	a5,a5,-1
80002630:	8c09                	sub	s0,s0,a0
80002632:	00f977b3          	and	a5,s2,a5
80002636:	b5ad                	j	800024a0 <__addsf3+0x12a>
/Local/xl_ci/toolchain/riscv-gnu-toolchain/riscv-gcc/libgcc/soft-fp/addsf3.c:45
80002638:	87ba                	mv	a5,a4
8000263a:	bd61                	j	800024d2 <__addsf3+0x15c>
8000263c:	87ba                	mv	a5,a4
8000263e:	b58d                	j	800024a0 <__addsf3+0x12a>
80002640:	0ff00413          	li	s0,255
80002644:	4781                	li	a5,0
/Local/xl_ci/toolchain/riscv-gnu-toolchain/riscv-gcc/libgcc/soft-fp/addsf3.c:47 (discriminator 47)
80002646:	04000737          	lui	a4,0x4000
8000264a:	8f7d                	and	a4,a4,a5
8000264c:	cb11                	beqz	a4,80002660 <__addsf3+0x2ea>
/Local/xl_ci/toolchain/riscv-gnu-toolchain/riscv-gcc/libgcc/soft-fp/addsf3.c:47 (discriminator 63)
8000264e:	0405                	addi	s0,s0,1
80002650:	0ff00713          	li	a4,255
80002654:	04e40263          	beq	s0,a4,80002698 <__addsf3+0x322>
/Local/xl_ci/toolchain/riscv-gnu-toolchain/riscv-gcc/libgcc/soft-fp/addsf3.c:47
80002658:	fc000737          	lui	a4,0xfc000
8000265c:	177d                	addi	a4,a4,-1
8000265e:	8ff9                	and	a5,a5,a4
/Local/xl_ci/toolchain/riscv-gnu-toolchain/riscv-gcc/libgcc/soft-fp/addsf3.c:47 (discriminator 79)
80002660:	0ff00713          	li	a4,255
80002664:	838d                	srli	a5,a5,0x3
80002666:	00e41663          	bne	s0,a4,80002672 <__addsf3+0x2fc>
/Local/xl_ci/toolchain/riscv-gnu-toolchain/riscv-gcc/libgcc/soft-fp/addsf3.c:47 (discriminator 80)
8000266a:	c781                	beqz	a5,80002672 <__addsf3+0x2fc>
/Local/xl_ci/toolchain/riscv-gnu-toolchain/riscv-gcc/libgcc/soft-fp/addsf3.c:47
8000266c:	004007b7          	lui	a5,0x400
80002670:	4481                	li	s1,0
/Local/xl_ci/toolchain/riscv-gnu-toolchain/riscv-gcc/libgcc/soft-fp/addsf3.c:47 (discriminator 90)
80002672:	7f800537          	lui	a0,0x7f800
80002676:	045e                	slli	s0,s0,0x17
80002678:	07a6                	slli	a5,a5,0x9
8000267a:	8c69                	and	s0,s0,a0
8000267c:	83a5                	srli	a5,a5,0x9
/Local/xl_ci/toolchain/riscv-gnu-toolchain/riscv-gcc/libgcc/soft-fp/addsf3.c:51 (discriminator 90)
8000267e:	40b2                	lw	ra,12(sp)
/Local/xl_ci/toolchain/riscv-gnu-toolchain/riscv-gcc/libgcc/soft-fp/addsf3.c:47 (discriminator 90)
80002680:	8fc1                	or	a5,a5,s0
/Local/xl_ci/toolchain/riscv-gnu-toolchain/riscv-gcc/libgcc/soft-fp/addsf3.c:51 (discriminator 90)
80002682:	4422                	lw	s0,8(sp)
/Local/xl_ci/toolchain/riscv-gnu-toolchain/riscv-gcc/libgcc/soft-fp/addsf3.c:47 (discriminator 90)
80002684:	01f49513          	slli	a0,s1,0x1f
/Local/xl_ci/toolchain/riscv-gnu-toolchain/riscv-gcc/libgcc/soft-fp/addsf3.c:51 (discriminator 90)
80002688:	4902                	lw	s2,0(sp)
8000268a:	4492                	lw	s1,4(sp)
8000268c:	8d5d                	or	a0,a0,a5
8000268e:	0141                	addi	sp,sp,16
80002690:	8082                	ret
/Local/xl_ci/toolchain/riscv-gnu-toolchain/riscv-gcc/libgcc/soft-fp/addsf3.c:45
80002692:	87ba                	mv	a5,a4
/Local/xl_ci/toolchain/riscv-gnu-toolchain/riscv-gcc/libgcc/soft-fp/addsf3.c:46
80002694:	8436                	mv	s0,a3
80002696:	bf19                	j	800025ac <__addsf3+0x236>
80002698:	4781                	li	a5,0
8000269a:	b7d9                	j	80002660 <__addsf3+0x2ea>

8000269c <__mulsf3>:
__mulsf3():
/Local/xl_ci/toolchain/riscv-gnu-toolchain/riscv-gcc/libgcc/soft-fp/mulsf3.c:36
8000269c:	1101                	addi	sp,sp,-32
8000269e:	c84a                	sw	s2,16(sp)
800026a0:	01755913          	srli	s2,a0,0x17
800026a4:	ca26                	sw	s1,20(sp)
800026a6:	c64e                	sw	s3,12(sp)
800026a8:	c452                	sw	s4,8(sp)
/Local/xl_ci/toolchain/riscv-gnu-toolchain/riscv-gcc/libgcc/soft-fp/mulsf3.c:44
800026aa:	00951493          	slli	s1,a0,0x9
/Local/xl_ci/toolchain/riscv-gnu-toolchain/riscv-gcc/libgcc/soft-fp/mulsf3.c:36
800026ae:	ce06                	sw	ra,28(sp)
800026b0:	cc22                	sw	s0,24(sp)
800026b2:	c256                	sw	s5,4(sp)
800026b4:	0ff97913          	zext.b	s2,s2
800026b8:	8a2e                	mv	s4,a1
/Local/xl_ci/toolchain/riscv-gnu-toolchain/riscv-gcc/libgcc/soft-fp/mulsf3.c:44
800026ba:	80a5                	srli	s1,s1,0x9
800026bc:	01f55993          	srli	s3,a0,0x1f
800026c0:	06090763          	beqz	s2,8000272e <__mulsf3+0x92>
800026c4:	0ff00793          	li	a5,255
800026c8:	06f90f63          	beq	s2,a5,80002746 <__mulsf3+0xaa>
/Local/xl_ci/toolchain/riscv-gnu-toolchain/riscv-gcc/libgcc/soft-fp/mulsf3.c:44 (discriminator 1)
800026cc:	048e                	slli	s1,s1,0x3
800026ce:	040007b7          	lui	a5,0x4000
800026d2:	8cdd                	or	s1,s1,a5
800026d4:	f8190913          	addi	s2,s2,-127 # 3ffff81 <__stack_size+0x3fff781>
/Local/xl_ci/toolchain/riscv-gnu-toolchain/riscv-gcc/libgcc/soft-fp/mulsf3.c:44 (discriminator 15)
800026d8:	4a81                	li	s5,0
/Local/xl_ci/toolchain/riscv-gnu-toolchain/riscv-gcc/libgcc/soft-fp/mulsf3.c:45 (discriminator 8)
800026da:	017a5513          	srli	a0,s4,0x17
800026de:	009a1413          	slli	s0,s4,0x9
800026e2:	0ff57513          	zext.b	a0,a0
800026e6:	8025                	srli	s0,s0,0x9
800026e8:	01fa5a13          	srli	s4,s4,0x1f
800026ec:	c535                	beqz	a0,80002758 <__mulsf3+0xbc>
/Local/xl_ci/toolchain/riscv-gnu-toolchain/riscv-gcc/libgcc/soft-fp/mulsf3.c:45
800026ee:	0ff00793          	li	a5,255
800026f2:	06f50f63          	beq	a0,a5,80002770 <__mulsf3+0xd4>
/Local/xl_ci/toolchain/riscv-gnu-toolchain/riscv-gcc/libgcc/soft-fp/mulsf3.c:45 (discriminator 1)
800026f6:	040e                	slli	s0,s0,0x3
800026f8:	040007b7          	lui	a5,0x4000
800026fc:	8c5d                	or	s0,s0,a5
800026fe:	f8150513          	addi	a0,a0,-127 # 7f7fff81 <__stack_size+0x7f7ff781>
/Local/xl_ci/toolchain/riscv-gnu-toolchain/riscv-gcc/libgcc/soft-fp/mulsf3.c:45 (discriminator 15)
80002702:	4781                	li	a5,0
/Local/xl_ci/toolchain/riscv-gnu-toolchain/riscv-gcc/libgcc/soft-fp/mulsf3.c:46 (discriminator 8)
80002704:	002a9713          	slli	a4,s5,0x2
80002708:	8f5d                	or	a4,a4,a5
8000270a:	954a                	add	a0,a0,s2
8000270c:	177d                	addi	a4,a4,-1
8000270e:	45b9                	li	a1,14
80002710:	0149c6b3          	xor	a3,s3,s4
80002714:	00150613          	addi	a2,a0,1
80002718:	06e5e563          	bltu	a1,a4,80002782 <__mulsf3+0xe6>
8000271c:	00004597          	auipc	a1,0x4
80002720:	95858593          	addi	a1,a1,-1704 # 80006074 <bird_ico3+0x198>
80002724:	070a                	slli	a4,a4,0x2
80002726:	972e                	add	a4,a4,a1
80002728:	4318                	lw	a4,0(a4)
8000272a:	972e                	add	a4,a4,a1
8000272c:	8702                	jr	a4
/Local/xl_ci/toolchain/riscv-gnu-toolchain/riscv-gcc/libgcc/soft-fp/mulsf3.c:44 (discriminator 2)
8000272e:	c095                	beqz	s1,80002752 <__mulsf3+0xb6>
/Local/xl_ci/toolchain/riscv-gnu-toolchain/riscv-gcc/libgcc/soft-fp/mulsf3.c:44 (discriminator 15)
80002730:	8526                	mv	a0,s1
80002732:	2701                	jal	80002e32 <__clzsi2>
80002734:	ffb50793          	addi	a5,a0,-5
80002738:	f8a00913          	li	s2,-118
8000273c:	00f494b3          	sll	s1,s1,a5
80002740:	40a90933          	sub	s2,s2,a0
80002744:	bf51                	j	800026d8 <__mulsf3+0x3c>
/Local/xl_ci/toolchain/riscv-gnu-toolchain/riscv-gcc/libgcc/soft-fp/mulsf3.c:44 (discriminator 3)
80002746:	0ff00913          	li	s2,255
8000274a:	4a89                	li	s5,2
8000274c:	d4d9                	beqz	s1,800026da <__mulsf3+0x3e>
/Local/xl_ci/toolchain/riscv-gnu-toolchain/riscv-gcc/libgcc/soft-fp/mulsf3.c:44
8000274e:	4a8d                	li	s5,3
80002750:	b769                	j	800026da <__mulsf3+0x3e>
80002752:	4901                	li	s2,0
80002754:	4a85                	li	s5,1
80002756:	b751                	j	800026da <__mulsf3+0x3e>
/Local/xl_ci/toolchain/riscv-gnu-toolchain/riscv-gcc/libgcc/soft-fp/mulsf3.c:45 (discriminator 2)
80002758:	c015                	beqz	s0,8000277c <__mulsf3+0xe0>
/Local/xl_ci/toolchain/riscv-gnu-toolchain/riscv-gcc/libgcc/soft-fp/mulsf3.c:45 (discriminator 15)
8000275a:	8522                	mv	a0,s0
8000275c:	2dd9                	jal	80002e32 <__clzsi2>
8000275e:	ffb50793          	addi	a5,a0,-5
80002762:	00f41433          	sll	s0,s0,a5
80002766:	f8a00793          	li	a5,-118
8000276a:	40a78533          	sub	a0,a5,a0
8000276e:	bf51                	j	80002702 <__mulsf3+0x66>
/Local/xl_ci/toolchain/riscv-gnu-toolchain/riscv-gcc/libgcc/soft-fp/mulsf3.c:45 (discriminator 3)
80002770:	0ff00513          	li	a0,255
80002774:	4789                	li	a5,2
80002776:	d459                	beqz	s0,80002704 <__mulsf3+0x68>
/Local/xl_ci/toolchain/riscv-gnu-toolchain/riscv-gcc/libgcc/soft-fp/mulsf3.c:45
80002778:	478d                	li	a5,3
8000277a:	b769                	j	80002704 <__mulsf3+0x68>
8000277c:	4501                	li	a0,0
8000277e:	4785                	li	a5,1
80002780:	b751                	j	80002704 <__mulsf3+0x68>
/Local/xl_ci/toolchain/riscv-gnu-toolchain/riscv-gcc/libgcc/soft-fp/mulsf3.c:46 (discriminator 2)
80002782:	67c1                	lui	a5,0x10
80002784:	fff78313          	addi	t1,a5,-1 # ffff <__stack_size+0xf7ff>
80002788:	0104d713          	srli	a4,s1,0x10
8000278c:	01045593          	srli	a1,s0,0x10
80002790:	0064f4b3          	and	s1,s1,t1
80002794:	00647433          	and	s0,s0,t1
80002798:	029408b3          	mul	a7,s0,s1
8000279c:	02870833          	mul	a6,a4,s0
800027a0:	02b70433          	mul	s0,a4,a1
800027a4:	029585b3          	mul	a1,a1,s1
800027a8:	0108d493          	srli	s1,a7,0x10
800027ac:	95c2                	add	a1,a1,a6
800027ae:	94ae                	add	s1,s1,a1
800027b0:	0104f363          	bgeu	s1,a6,800027b6 <__mulsf3+0x11a>
/Local/xl_ci/toolchain/riscv-gnu-toolchain/riscv-gcc/libgcc/soft-fp/mulsf3.c:46 (discriminator 9)
800027b4:	943e                	add	s0,s0,a5
/Local/xl_ci/toolchain/riscv-gnu-toolchain/riscv-gcc/libgcc/soft-fp/mulsf3.c:46 (discriminator 11)
800027b6:	0064f7b3          	and	a5,s1,t1
800027ba:	07c2                	slli	a5,a5,0x10
800027bc:	0068f8b3          	and	a7,a7,t1
800027c0:	97c6                	add	a5,a5,a7
800027c2:	00679713          	slli	a4,a5,0x6
800027c6:	80c1                	srli	s1,s1,0x10
800027c8:	00e03733          	snez	a4,a4
800027cc:	83e9                	srli	a5,a5,0x1a
800027ce:	9426                	add	s0,s0,s1
800027d0:	8fd9                	or	a5,a5,a4
800027d2:	041a                	slli	s0,s0,0x6
800027d4:	8c5d                	or	s0,s0,a5
800027d6:	080007b7          	lui	a5,0x8000
800027da:	8fe1                	and	a5,a5,s0
800027dc:	c7b5                	beqz	a5,80002848 <__mulsf3+0x1ac>
/Local/xl_ci/toolchain/riscv-gnu-toolchain/riscv-gcc/libgcc/soft-fp/mulsf3.c:46 (discriminator 12)
800027de:	00145793          	srli	a5,s0,0x1
800027e2:	8805                	andi	s0,s0,1
800027e4:	8c5d                	or	s0,s0,a5
/Local/xl_ci/toolchain/riscv-gnu-toolchain/riscv-gcc/libgcc/soft-fp/mulsf3.c:47 (discriminator 2)
800027e6:	07f60713          	addi	a4,a2,127 # 400007f <__stack_size+0x3fff87f>
800027ea:	06e05163          	blez	a4,8000284c <__mulsf3+0x1b0>
/Local/xl_ci/toolchain/riscv-gnu-toolchain/riscv-gcc/libgcc/soft-fp/mulsf3.c:47 (discriminator 6)
800027ee:	00747793          	andi	a5,s0,7
800027f2:	c799                	beqz	a5,80002800 <__mulsf3+0x164>
/Local/xl_ci/toolchain/riscv-gnu-toolchain/riscv-gcc/libgcc/soft-fp/mulsf3.c:47 (discriminator 8)
800027f4:	00f47793          	andi	a5,s0,15
800027f8:	4591                	li	a1,4
800027fa:	00b78363          	beq	a5,a1,80002800 <__mulsf3+0x164>
/Local/xl_ci/toolchain/riscv-gnu-toolchain/riscv-gcc/libgcc/soft-fp/mulsf3.c:47 (discriminator 10)
800027fe:	0411                	addi	s0,s0,4
/Local/xl_ci/toolchain/riscv-gnu-toolchain/riscv-gcc/libgcc/soft-fp/mulsf3.c:47 (discriminator 9)
80002800:	080007b7          	lui	a5,0x8000
80002804:	8fe1                	and	a5,a5,s0
80002806:	c799                	beqz	a5,80002814 <__mulsf3+0x178>
/Local/xl_ci/toolchain/riscv-gnu-toolchain/riscv-gcc/libgcc/soft-fp/mulsf3.c:47 (discriminator 24)
80002808:	f80007b7          	lui	a5,0xf8000
8000280c:	17fd                	addi	a5,a5,-1
8000280e:	8c7d                	and	s0,s0,a5
80002810:	08060713          	addi	a4,a2,128
/Local/xl_ci/toolchain/riscv-gnu-toolchain/riscv-gcc/libgcc/soft-fp/mulsf3.c:47 (discriminator 26)
80002814:	0fe00793          	li	a5,254
80002818:	800d                	srli	s0,s0,0x3
8000281a:	06e7dd63          	bge	a5,a4,80002894 <__mulsf3+0x1f8>
8000281e:	4401                	li	s0,0
80002820:	0ff00713          	li	a4,255
80002824:	a885                	j	80002894 <__mulsf3+0x1f8>
/Local/xl_ci/toolchain/riscv-gnu-toolchain/riscv-gcc/libgcc/soft-fp/mulsf3.c:44 (discriminator 7)
80002826:	86ce                	mv	a3,s3
/Local/xl_ci/toolchain/riscv-gnu-toolchain/riscv-gcc/libgcc/soft-fp/mulsf3.c:46 (discriminator 7)
80002828:	8426                	mv	s0,s1
8000282a:	87d6                	mv	a5,s5
/Local/xl_ci/toolchain/riscv-gnu-toolchain/riscv-gcc/libgcc/soft-fp/mulsf3.c:47 (discriminator 21)
8000282c:	4709                	li	a4,2
8000282e:	fee788e3          	beq	a5,a4,8000281e <__mulsf3+0x182>
/Local/xl_ci/toolchain/riscv-gnu-toolchain/riscv-gcc/libgcc/soft-fp/mulsf3.c:47
80002832:	470d                	li	a4,3
80002834:	04e78b63          	beq	a5,a4,8000288a <__mulsf3+0x1ee>
80002838:	4705                	li	a4,1
8000283a:	fae796e3          	bne	a5,a4,800027e6 <__mulsf3+0x14a>
8000283e:	4401                	li	s0,0
80002840:	4701                	li	a4,0
80002842:	a889                	j	80002894 <__mulsf3+0x1f8>
/Local/xl_ci/toolchain/riscv-gnu-toolchain/riscv-gcc/libgcc/soft-fp/mulsf3.c:45 (discriminator 4)
80002844:	86d2                	mv	a3,s4
/Local/xl_ci/toolchain/riscv-gnu-toolchain/riscv-gcc/libgcc/soft-fp/mulsf3.c:46 (discriminator 4)
80002846:	b7dd                	j	8000282c <__mulsf3+0x190>
/Local/xl_ci/toolchain/riscv-gnu-toolchain/riscv-gcc/libgcc/soft-fp/mulsf3.c:46
80002848:	862a                	mv	a2,a0
8000284a:	bf71                	j	800027e6 <__mulsf3+0x14a>
/Local/xl_ci/toolchain/riscv-gnu-toolchain/riscv-gcc/libgcc/soft-fp/mulsf3.c:47 (discriminator 59)
8000284c:	4785                	li	a5,1
8000284e:	8f99                	sub	a5,a5,a4
80002850:	476d                	li	a4,27
80002852:	fef746e3          	blt	a4,a5,8000283e <__mulsf3+0x1a2>
/Local/xl_ci/toolchain/riscv-gnu-toolchain/riscv-gcc/libgcc/soft-fp/mulsf3.c:47 (discriminator 60)
80002856:	09e60613          	addi	a2,a2,158
8000285a:	00f457b3          	srl	a5,s0,a5
8000285e:	00c41433          	sll	s0,s0,a2
80002862:	00803433          	snez	s0,s0
80002866:	8c5d                	or	s0,s0,a5
80002868:	00747793          	andi	a5,s0,7
8000286c:	c799                	beqz	a5,8000287a <__mulsf3+0x1de>
/Local/xl_ci/toolchain/riscv-gnu-toolchain/riscv-gcc/libgcc/soft-fp/mulsf3.c:47 (discriminator 68)
8000286e:	00f47793          	andi	a5,s0,15
80002872:	4711                	li	a4,4
80002874:	00e78363          	beq	a5,a4,8000287a <__mulsf3+0x1de>
/Local/xl_ci/toolchain/riscv-gnu-toolchain/riscv-gcc/libgcc/soft-fp/mulsf3.c:47 (discriminator 70)
80002878:	0411                	addi	s0,s0,4
/Local/xl_ci/toolchain/riscv-gnu-toolchain/riscv-gcc/libgcc/soft-fp/mulsf3.c:47 (discriminator 69)
8000287a:	040007b7          	lui	a5,0x4000
8000287e:	8fe1                	and	a5,a5,s0
80002880:	800d                	srli	s0,s0,0x3
80002882:	dfdd                	beqz	a5,80002840 <__mulsf3+0x1a4>
/Local/xl_ci/toolchain/riscv-gnu-toolchain/riscv-gcc/libgcc/soft-fp/mulsf3.c:47
80002884:	4401                	li	s0,0
80002886:	4705                	li	a4,1
80002888:	a031                	j	80002894 <__mulsf3+0x1f8>
8000288a:	00400437          	lui	s0,0x400
8000288e:	0ff00713          	li	a4,255
80002892:	4681                	li	a3,0
/Local/xl_ci/toolchain/riscv-gnu-toolchain/riscv-gcc/libgcc/soft-fp/mulsf3.c:47 (discriminator 111)
80002894:	01771793          	slli	a5,a4,0x17
80002898:	0426                	slli	s0,s0,0x9
8000289a:	7f800737          	lui	a4,0x7f800
8000289e:	8ff9                	and	a5,a5,a4
800028a0:	8025                	srli	s0,s0,0x9
800028a2:	8c5d                	or	s0,s0,a5
800028a4:	01f69513          	slli	a0,a3,0x1f
/Local/xl_ci/toolchain/riscv-gnu-toolchain/riscv-gcc/libgcc/soft-fp/mulsf3.c:51 (discriminator 111)
800028a8:	40f2                	lw	ra,28(sp)
800028aa:	8d41                	or	a0,a0,s0
800028ac:	4462                	lw	s0,24(sp)
800028ae:	44d2                	lw	s1,20(sp)
800028b0:	4942                	lw	s2,16(sp)
800028b2:	49b2                	lw	s3,12(sp)
800028b4:	4a22                	lw	s4,8(sp)
800028b6:	4a92                	lw	s5,4(sp)
800028b8:	6105                	addi	sp,sp,32
800028ba:	8082                	ret

800028bc <__subsf3>:
__subsf3():
/Local/xl_ci/toolchain/riscv-gnu-toolchain/riscv-gcc/libgcc/soft-fp/subsf3.c:44
800028bc:	00800737          	lui	a4,0x800
/Local/xl_ci/toolchain/riscv-gnu-toolchain/riscv-gcc/libgcc/soft-fp/subsf3.c:36
800028c0:	1141                	addi	sp,sp,-16
/Local/xl_ci/toolchain/riscv-gnu-toolchain/riscv-gcc/libgcc/soft-fp/subsf3.c:44
800028c2:	177d                	addi	a4,a4,-1
/Local/xl_ci/toolchain/riscv-gnu-toolchain/riscv-gcc/libgcc/soft-fp/subsf3.c:45
800028c4:	0175d613          	srli	a2,a1,0x17
/Local/xl_ci/toolchain/riscv-gnu-toolchain/riscv-gcc/libgcc/soft-fp/subsf3.c:44
800028c8:	00a777b3          	and	a5,a4,a0
/Local/xl_ci/toolchain/riscv-gnu-toolchain/riscv-gcc/libgcc/soft-fp/subsf3.c:36
800028cc:	c422                	sw	s0,8(sp)
/Local/xl_ci/toolchain/riscv-gnu-toolchain/riscv-gcc/libgcc/soft-fp/subsf3.c:45
800028ce:	8f6d                	and	a4,a4,a1
/Local/xl_ci/toolchain/riscv-gnu-toolchain/riscv-gcc/libgcc/soft-fp/subsf3.c:36
800028d0:	c226                	sw	s1,4(sp)
/Local/xl_ci/toolchain/riscv-gnu-toolchain/riscv-gcc/libgcc/soft-fp/subsf3.c:44
800028d2:	01755413          	srli	s0,a0,0x17
/Local/xl_ci/toolchain/riscv-gnu-toolchain/riscv-gcc/libgcc/soft-fp/subsf3.c:36
800028d6:	c606                	sw	ra,12(sp)
800028d8:	c04a                	sw	s2,0(sp)
/Local/xl_ci/toolchain/riscv-gnu-toolchain/riscv-gcc/libgcc/soft-fp/subsf3.c:45
800028da:	0ff67613          	zext.b	a2,a2
/Local/xl_ci/toolchain/riscv-gnu-toolchain/riscv-gcc/libgcc/soft-fp/subsf3.c:46
800028de:	0ff00693          	li	a3,255
/Local/xl_ci/toolchain/riscv-gnu-toolchain/riscv-gcc/libgcc/soft-fp/subsf3.c:44
800028e2:	0ff47413          	zext.b	s0,s0
800028e6:	01f55493          	srli	s1,a0,0x1f
800028ea:	078e                	slli	a5,a5,0x3
/Local/xl_ci/toolchain/riscv-gnu-toolchain/riscv-gcc/libgcc/soft-fp/subsf3.c:45
800028ec:	81fd                	srli	a1,a1,0x1f
800028ee:	070e                	slli	a4,a4,0x3
/Local/xl_ci/toolchain/riscv-gnu-toolchain/riscv-gcc/libgcc/soft-fp/subsf3.c:46
800028f0:	00d61363          	bne	a2,a3,800028f6 <__subsf3+0x3a>
/Local/xl_ci/toolchain/riscv-gnu-toolchain/riscv-gcc/libgcc/soft-fp/subsf3.c:46 (discriminator 2)
800028f4:	e319                	bnez	a4,800028fa <__subsf3+0x3e>
/Local/xl_ci/toolchain/riscv-gnu-toolchain/riscv-gcc/libgcc/soft-fp/subsf3.c:46 (discriminator 3)
800028f6:	0015c593          	xori	a1,a1,1
/Local/xl_ci/toolchain/riscv-gnu-toolchain/riscv-gcc/libgcc/soft-fp/subsf3.c:46 (discriminator 11)
800028fa:	40c406b3          	sub	a3,s0,a2
800028fe:	12959663          	bne	a1,s1,80002a2a <__subsf3+0x16e>
/Local/xl_ci/toolchain/riscv-gnu-toolchain/riscv-gcc/libgcc/soft-fp/subsf3.c:46 (discriminator 12)
80002902:	06d05c63          	blez	a3,8000297a <__subsf3+0xbe>
/Local/xl_ci/toolchain/riscv-gnu-toolchain/riscv-gcc/libgcc/soft-fp/subsf3.c:46 (discriminator 14)
80002906:	e205                	bnez	a2,80002926 <__subsf3+0x6a>
/Local/xl_ci/toolchain/riscv-gnu-toolchain/riscv-gcc/libgcc/soft-fp/subsf3.c:46 (discriminator 16)
80002908:	10070f63          	beqz	a4,80002a26 <__subsf3+0x16a>
/Local/xl_ci/toolchain/riscv-gnu-toolchain/riscv-gcc/libgcc/soft-fp/subsf3.c:46 (discriminator 19)
8000290c:	fff68613          	addi	a2,a3,-1 # 3ffffff <__stack_size+0x3fff7ff>
80002910:	e601                	bnez	a2,80002918 <__subsf3+0x5c>
/Local/xl_ci/toolchain/riscv-gnu-toolchain/riscv-gcc/libgcc/soft-fp/subsf3.c:46 (discriminator 80)
80002912:	97ba                	add	a5,a5,a4
/Local/xl_ci/toolchain/riscv-gnu-toolchain/riscv-gcc/libgcc/soft-fp/subsf3.c:45 (discriminator 80)
80002914:	4405                	li	s0,1
/Local/xl_ci/toolchain/riscv-gnu-toolchain/riscv-gcc/libgcc/soft-fp/subsf3.c:46 (discriminator 80)
80002916:	a081                	j	80002956 <__subsf3+0x9a>
/Local/xl_ci/toolchain/riscv-gnu-toolchain/riscv-gcc/libgcc/soft-fp/subsf3.c:46 (discriminator 29)
80002918:	0ff00593          	li	a1,255
8000291c:	00b69d63          	bne	a3,a1,80002936 <__subsf3+0x7a>
/Local/xl_ci/toolchain/riscv-gnu-toolchain/riscv-gcc/libgcc/soft-fp/subsf3.c:46
80002920:	0ff00413          	li	s0,255
80002924:	a8c1                	j	800029f4 <__subsf3+0x138>
/Local/xl_ci/toolchain/riscv-gnu-toolchain/riscv-gcc/libgcc/soft-fp/subsf3.c:46 (discriminator 17)
80002926:	0ff00613          	li	a2,255
8000292a:	0cc40563          	beq	s0,a2,800029f4 <__subsf3+0x138>
/Local/xl_ci/toolchain/riscv-gnu-toolchain/riscv-gcc/libgcc/soft-fp/subsf3.c:46 (discriminator 43)
8000292e:	04000637          	lui	a2,0x4000
80002932:	8f51                	or	a4,a4,a2
80002934:	8636                	mv	a2,a3
/Local/xl_ci/toolchain/riscv-gnu-toolchain/riscv-gcc/libgcc/soft-fp/subsf3.c:46 (discriminator 52)
80002936:	45ed                	li	a1,27
80002938:	4685                	li	a3,1
8000293a:	00c5cd63          	blt	a1,a2,80002954 <__subsf3+0x98>
/Local/xl_ci/toolchain/riscv-gnu-toolchain/riscv-gcc/libgcc/soft-fp/subsf3.c:46 (discriminator 53)
8000293e:	02000693          	li	a3,32
80002942:	8e91                	sub	a3,a3,a2
80002944:	00c755b3          	srl	a1,a4,a2
80002948:	00d71733          	sll	a4,a4,a3
8000294c:	00e03733          	snez	a4,a4
80002950:	00e5e6b3          	or	a3,a1,a4
/Local/xl_ci/toolchain/riscv-gnu-toolchain/riscv-gcc/libgcc/soft-fp/subsf3.c:46 (discriminator 64)
80002954:	97b6                	add	a5,a5,a3
/Local/xl_ci/toolchain/riscv-gnu-toolchain/riscv-gcc/libgcc/soft-fp/subsf3.c:46 (discriminator 117)
80002956:	04000737          	lui	a4,0x4000
8000295a:	8f7d                	and	a4,a4,a5
8000295c:	cf41                	beqz	a4,800029f4 <__subsf3+0x138>
/Local/xl_ci/toolchain/riscv-gnu-toolchain/riscv-gcc/libgcc/soft-fp/subsf3.c:46 (discriminator 176)
8000295e:	0405                	addi	s0,s0,1
80002960:	0ff00713          	li	a4,255
80002964:	22e40963          	beq	s0,a4,80002b96 <__subsf3+0x2da>
/Local/xl_ci/toolchain/riscv-gnu-toolchain/riscv-gcc/libgcc/soft-fp/subsf3.c:46
80002968:	7e000737          	lui	a4,0x7e000
8000296c:	0017f693          	andi	a3,a5,1
80002970:	177d                	addi	a4,a4,-1
80002972:	8385                	srli	a5,a5,0x1
80002974:	8ff9                	and	a5,a5,a4
80002976:	8fd5                	or	a5,a5,a3
80002978:	a8b5                	j	800029f4 <__subsf3+0x138>
/Local/xl_ci/toolchain/riscv-gnu-toolchain/riscv-gcc/libgcc/soft-fp/subsf3.c:46 (discriminator 15)
8000297a:	cab1                	beqz	a3,800029ce <__subsf3+0x112>
/Local/xl_ci/toolchain/riscv-gnu-toolchain/riscv-gcc/libgcc/soft-fp/subsf3.c:46 (discriminator 66)
8000297c:	408606b3          	sub	a3,a2,s0
80002980:	ec01                	bnez	s0,80002998 <__subsf3+0xdc>
/Local/xl_ci/toolchain/riscv-gnu-toolchain/riscv-gcc/libgcc/soft-fp/subsf3.c:46 (discriminator 68)
80002982:	20078463          	beqz	a5,80002b8a <__subsf3+0x2ce>
/Local/xl_ci/toolchain/riscv-gnu-toolchain/riscv-gcc/libgcc/soft-fp/subsf3.c:46 (discriminator 71)
80002986:	fff68593          	addi	a1,a3,-1
8000298a:	d5c1                	beqz	a1,80002912 <__subsf3+0x56>
/Local/xl_ci/toolchain/riscv-gnu-toolchain/riscv-gcc/libgcc/soft-fp/subsf3.c:46 (discriminator 81)
8000298c:	0ff00513          	li	a0,255
80002990:	00a69c63          	bne	a3,a0,800029a8 <__subsf3+0xec>
/Local/xl_ci/toolchain/riscv-gnu-toolchain/riscv-gcc/libgcc/soft-fp/subsf3.c:45
80002994:	87ba                	mv	a5,a4
80002996:	b769                	j	80002920 <__subsf3+0x64>
/Local/xl_ci/toolchain/riscv-gnu-toolchain/riscv-gcc/libgcc/soft-fp/subsf3.c:46 (discriminator 69)
80002998:	0ff00593          	li	a1,255
8000299c:	feb60ce3          	beq	a2,a1,80002994 <__subsf3+0xd8>
/Local/xl_ci/toolchain/riscv-gnu-toolchain/riscv-gcc/libgcc/soft-fp/subsf3.c:46 (discriminator 95)
800029a0:	040005b7          	lui	a1,0x4000
800029a4:	8fcd                	or	a5,a5,a1
800029a6:	85b6                	mv	a1,a3
/Local/xl_ci/toolchain/riscv-gnu-toolchain/riscv-gcc/libgcc/soft-fp/subsf3.c:46 (discriminator 104)
800029a8:	456d                	li	a0,27
800029aa:	4685                	li	a3,1
800029ac:	00b54d63          	blt	a0,a1,800029c6 <__subsf3+0x10a>
/Local/xl_ci/toolchain/riscv-gnu-toolchain/riscv-gcc/libgcc/soft-fp/subsf3.c:46 (discriminator 105)
800029b0:	02000693          	li	a3,32
800029b4:	8e8d                	sub	a3,a3,a1
800029b6:	00b7d533          	srl	a0,a5,a1
800029ba:	00d797b3          	sll	a5,a5,a3
800029be:	00f037b3          	snez	a5,a5
800029c2:	00f566b3          	or	a3,a0,a5
/Local/xl_ci/toolchain/riscv-gnu-toolchain/riscv-gcc/libgcc/soft-fp/subsf3.c:46 (discriminator 116)
800029c6:	00e687b3          	add	a5,a3,a4
/Local/xl_ci/toolchain/riscv-gnu-toolchain/riscv-gcc/libgcc/soft-fp/subsf3.c:45 (discriminator 116)
800029ca:	8432                	mv	s0,a2
800029cc:	b769                	j	80002956 <__subsf3+0x9a>
/Local/xl_ci/toolchain/riscv-gnu-toolchain/riscv-gcc/libgcc/soft-fp/subsf3.c:46 (discriminator 67)
800029ce:	00140693          	addi	a3,s0,1 # 400001 <__stack_size+0x3ff801>
800029d2:	0fe6f613          	andi	a2,a3,254
800029d6:	e231                	bnez	a2,80002a1a <__subsf3+0x15e>
/Local/xl_ci/toolchain/riscv-gnu-toolchain/riscv-gcc/libgcc/soft-fp/subsf3.c:46 (discriminator 118)
800029d8:	e80d                	bnez	s0,80002a0a <__subsf3+0x14e>
/Local/xl_ci/toolchain/riscv-gnu-toolchain/riscv-gcc/libgcc/soft-fp/subsf3.c:46 (discriminator 120)
800029da:	1a078a63          	beqz	a5,80002b8e <__subsf3+0x2d2>
/Local/xl_ci/toolchain/riscv-gnu-toolchain/riscv-gcc/libgcc/soft-fp/subsf3.c:46 (discriminator 123)
800029de:	cb19                	beqz	a4,800029f4 <__subsf3+0x138>
/Local/xl_ci/toolchain/riscv-gnu-toolchain/riscv-gcc/libgcc/soft-fp/subsf3.c:46 (discriminator 129)
800029e0:	97ba                	add	a5,a5,a4
800029e2:	04000737          	lui	a4,0x4000
800029e6:	8f7d                	and	a4,a4,a5
800029e8:	c711                	beqz	a4,800029f4 <__subsf3+0x138>
/Local/xl_ci/toolchain/riscv-gnu-toolchain/riscv-gcc/libgcc/soft-fp/subsf3.c:46 (discriminator 131)
800029ea:	fc000737          	lui	a4,0xfc000
800029ee:	177d                	addi	a4,a4,-1
800029f0:	8ff9                	and	a5,a5,a4
800029f2:	4405                	li	s0,1
/Local/xl_ci/toolchain/riscv-gnu-toolchain/riscv-gcc/libgcc/soft-fp/subsf3.c:47 (discriminator 382)
800029f4:	0077f713          	andi	a4,a5,7
800029f8:	1a070063          	beqz	a4,80002b98 <__subsf3+0x2dc>
/Local/xl_ci/toolchain/riscv-gnu-toolchain/riscv-gcc/libgcc/soft-fp/subsf3.c:47 (discriminator 37)
800029fc:	00f7f713          	andi	a4,a5,15
80002a00:	4691                	li	a3,4
80002a02:	18d70b63          	beq	a4,a3,80002b98 <__subsf3+0x2dc>
/Local/xl_ci/toolchain/riscv-gnu-toolchain/riscv-gcc/libgcc/soft-fp/subsf3.c:47 (discriminator 44)
80002a06:	0791                	addi	a5,a5,4
80002a08:	aa41                	j	80002b98 <__subsf3+0x2dc>
/Local/xl_ci/toolchain/riscv-gnu-toolchain/riscv-gcc/libgcc/soft-fp/subsf3.c:46 (discriminator 148)
80002a0a:	d7c9                	beqz	a5,80002994 <__subsf3+0xd8>
/Local/xl_ci/toolchain/riscv-gnu-toolchain/riscv-gcc/libgcc/soft-fp/subsf3.c:46 (discriminator 334)
80002a0c:	db11                	beqz	a4,80002920 <__subsf3+0x64>
/Local/xl_ci/toolchain/riscv-gnu-toolchain/riscv-gcc/libgcc/soft-fp/subsf3.c:46
80002a0e:	4481                	li	s1,0
80002a10:	020007b7          	lui	a5,0x2000
80002a14:	0ff00413          	li	s0,255
80002a18:	a241                	j	80002b98 <__subsf3+0x2dc>
/Local/xl_ci/toolchain/riscv-gnu-toolchain/riscv-gcc/libgcc/soft-fp/subsf3.c:46 (discriminator 119)
80002a1a:	0ff00613          	li	a2,255
80002a1e:	16c68a63          	beq	a3,a2,80002b92 <__subsf3+0x2d6>
/Local/xl_ci/toolchain/riscv-gnu-toolchain/riscv-gcc/libgcc/soft-fp/subsf3.c:46
80002a22:	97ba                	add	a5,a5,a4
80002a24:	8385                	srli	a5,a5,0x1
80002a26:	8436                	mv	s0,a3
80002a28:	b7f1                	j	800029f4 <__subsf3+0x138>
/Local/xl_ci/toolchain/riscv-gnu-toolchain/riscv-gcc/libgcc/soft-fp/subsf3.c:46 (discriminator 13)
80002a2a:	06d05063          	blez	a3,80002a8a <__subsf3+0x1ce>
/Local/xl_ci/toolchain/riscv-gnu-toolchain/riscv-gcc/libgcc/soft-fp/subsf3.c:46 (discriminator 194)
80002a2e:	e629                	bnez	a2,80002a78 <__subsf3+0x1bc>
/Local/xl_ci/toolchain/riscv-gnu-toolchain/riscv-gcc/libgcc/soft-fp/subsf3.c:46 (discriminator 196)
80002a30:	db7d                	beqz	a4,80002a26 <__subsf3+0x16a>
/Local/xl_ci/toolchain/riscv-gnu-toolchain/riscv-gcc/libgcc/soft-fp/subsf3.c:46 (discriminator 199)
80002a32:	fff68613          	addi	a2,a3,-1
80002a36:	e601                	bnez	a2,80002a3e <__subsf3+0x182>
/Local/xl_ci/toolchain/riscv-gnu-toolchain/riscv-gcc/libgcc/soft-fp/subsf3.c:46 (discriminator 208)
80002a38:	8f99                	sub	a5,a5,a4
/Local/xl_ci/toolchain/riscv-gnu-toolchain/riscv-gcc/libgcc/soft-fp/subsf3.c:45 (discriminator 260)
80002a3a:	4405                	li	s0,1
/Local/xl_ci/toolchain/riscv-gnu-toolchain/riscv-gcc/libgcc/soft-fp/subsf3.c:46 (discriminator 260)
80002a3c:	a02d                	j	80002a66 <__subsf3+0x1aa>
/Local/xl_ci/toolchain/riscv-gnu-toolchain/riscv-gcc/libgcc/soft-fp/subsf3.c:46 (discriminator 209)
80002a3e:	0ff00593          	li	a1,255
80002a42:	ecb68fe3          	beq	a3,a1,80002920 <__subsf3+0x64>
/Local/xl_ci/toolchain/riscv-gnu-toolchain/riscv-gcc/libgcc/soft-fp/subsf3.c:46 (discriminator 232)
80002a46:	45ed                	li	a1,27
80002a48:	4685                	li	a3,1
80002a4a:	00c5cd63          	blt	a1,a2,80002a64 <__subsf3+0x1a8>
/Local/xl_ci/toolchain/riscv-gnu-toolchain/riscv-gcc/libgcc/soft-fp/subsf3.c:46 (discriminator 233)
80002a4e:	02000693          	li	a3,32
80002a52:	8e91                	sub	a3,a3,a2
80002a54:	00c755b3          	srl	a1,a4,a2
80002a58:	00d71733          	sll	a4,a4,a3
80002a5c:	00e03733          	snez	a4,a4
80002a60:	00e5e6b3          	or	a3,a1,a4
/Local/xl_ci/toolchain/riscv-gnu-toolchain/riscv-gcc/libgcc/soft-fp/subsf3.c:46 (discriminator 244)
80002a64:	8f95                	sub	a5,a5,a3
/Local/xl_ci/toolchain/riscv-gnu-toolchain/riscv-gcc/libgcc/soft-fp/subsf3.c:46 (discriminator 297)
80002a66:	04000937          	lui	s2,0x4000
80002a6a:	0127f733          	and	a4,a5,s2
80002a6e:	d359                	beqz	a4,800029f4 <__subsf3+0x138>
/Local/xl_ci/toolchain/riscv-gnu-toolchain/riscv-gcc/libgcc/soft-fp/subsf3.c:46 (discriminator 356)
80002a70:	197d                	addi	s2,s2,-1
80002a72:	0127f933          	and	s2,a5,s2
80002a76:	a0f1                	j	80002b42 <__subsf3+0x286>
/Local/xl_ci/toolchain/riscv-gnu-toolchain/riscv-gcc/libgcc/soft-fp/subsf3.c:46 (discriminator 197)
80002a78:	0ff00613          	li	a2,255
80002a7c:	f6c40ce3          	beq	s0,a2,800029f4 <__subsf3+0x138>
/Local/xl_ci/toolchain/riscv-gnu-toolchain/riscv-gcc/libgcc/soft-fp/subsf3.c:46 (discriminator 223)
80002a80:	04000637          	lui	a2,0x4000
80002a84:	8f51                	or	a4,a4,a2
80002a86:	8636                	mv	a2,a3
80002a88:	bf7d                	j	80002a46 <__subsf3+0x18a>
/Local/xl_ci/toolchain/riscv-gnu-toolchain/riscv-gcc/libgcc/soft-fp/subsf3.c:46 (discriminator 195)
80002a8a:	c2ad                	beqz	a3,80002aec <__subsf3+0x230>
/Local/xl_ci/toolchain/riscv-gnu-toolchain/riscv-gcc/libgcc/soft-fp/subsf3.c:46 (discriminator 246)
80002a8c:	408606b3          	sub	a3,a2,s0
80002a90:	e015                	bnez	s0,80002ab4 <__subsf3+0x1f8>
/Local/xl_ci/toolchain/riscv-gnu-toolchain/riscv-gcc/libgcc/soft-fp/subsf3.c:46 (discriminator 248)
80002a92:	14078963          	beqz	a5,80002be4 <__subsf3+0x328>
/Local/xl_ci/toolchain/riscv-gnu-toolchain/riscv-gcc/libgcc/soft-fp/subsf3.c:46 (discriminator 251)
80002a96:	fff68513          	addi	a0,a3,-1
80002a9a:	e509                	bnez	a0,80002aa4 <__subsf3+0x1e8>
/Local/xl_ci/toolchain/riscv-gnu-toolchain/riscv-gcc/libgcc/soft-fp/subsf3.c:46 (discriminator 260)
80002a9c:	40f707b3          	sub	a5,a4,a5
80002aa0:	84ae                	mv	s1,a1
80002aa2:	bf61                	j	80002a3a <__subsf3+0x17e>
/Local/xl_ci/toolchain/riscv-gnu-toolchain/riscv-gcc/libgcc/soft-fp/subsf3.c:46 (discriminator 261)
80002aa4:	0ff00813          	li	a6,255
80002aa8:	01069e63          	bne	a3,a6,80002ac4 <__subsf3+0x208>
/Local/xl_ci/toolchain/riscv-gnu-toolchain/riscv-gcc/libgcc/soft-fp/subsf3.c:45
80002aac:	87ba                	mv	a5,a4
/Local/xl_ci/toolchain/riscv-gnu-toolchain/riscv-gcc/libgcc/soft-fp/subsf3.c:46
80002aae:	0ff00413          	li	s0,255
80002ab2:	a0b9                	j	80002b00 <__subsf3+0x244>
/Local/xl_ci/toolchain/riscv-gnu-toolchain/riscv-gcc/libgcc/soft-fp/subsf3.c:46 (discriminator 249)
80002ab4:	0ff00513          	li	a0,255
80002ab8:	fea60ae3          	beq	a2,a0,80002aac <__subsf3+0x1f0>
/Local/xl_ci/toolchain/riscv-gnu-toolchain/riscv-gcc/libgcc/soft-fp/subsf3.c:46 (discriminator 275)
80002abc:	04000537          	lui	a0,0x4000
80002ac0:	8fc9                	or	a5,a5,a0
80002ac2:	8536                	mv	a0,a3
/Local/xl_ci/toolchain/riscv-gnu-toolchain/riscv-gcc/libgcc/soft-fp/subsf3.c:46 (discriminator 284)
80002ac4:	486d                	li	a6,27
80002ac6:	4685                	li	a3,1
80002ac8:	00a84d63          	blt	a6,a0,80002ae2 <__subsf3+0x226>
/Local/xl_ci/toolchain/riscv-gnu-toolchain/riscv-gcc/libgcc/soft-fp/subsf3.c:46 (discriminator 285)
80002acc:	02000693          	li	a3,32
80002ad0:	8e89                	sub	a3,a3,a0
80002ad2:	00a7d833          	srl	a6,a5,a0
80002ad6:	00d797b3          	sll	a5,a5,a3
80002ada:	00f037b3          	snez	a5,a5
80002ade:	00f866b3          	or	a3,a6,a5
/Local/xl_ci/toolchain/riscv-gnu-toolchain/riscv-gcc/libgcc/soft-fp/subsf3.c:46 (discriminator 296)
80002ae2:	40d707b3          	sub	a5,a4,a3
/Local/xl_ci/toolchain/riscv-gnu-toolchain/riscv-gcc/libgcc/soft-fp/subsf3.c:45 (discriminator 296)
80002ae6:	8432                	mv	s0,a2
80002ae8:	84ae                	mv	s1,a1
80002aea:	bfb5                	j	80002a66 <__subsf3+0x1aa>
/Local/xl_ci/toolchain/riscv-gnu-toolchain/riscv-gcc/libgcc/soft-fp/subsf3.c:46 (discriminator 247)
80002aec:	00140693          	addi	a3,s0,1
80002af0:	0fe6f693          	andi	a3,a3,254
80002af4:	ee8d                	bnez	a3,80002b2e <__subsf3+0x272>
/Local/xl_ci/toolchain/riscv-gnu-toolchain/riscv-gcc/libgcc/soft-fp/subsf3.c:46 (discriminator 298)
80002af6:	e40d                	bnez	s0,80002b20 <__subsf3+0x264>
/Local/xl_ci/toolchain/riscv-gnu-toolchain/riscv-gcc/libgcc/soft-fp/subsf3.c:46 (discriminator 300)
80002af8:	e791                	bnez	a5,80002b04 <__subsf3+0x248>
/Local/xl_ci/toolchain/riscv-gnu-toolchain/riscv-gcc/libgcc/soft-fp/subsf3.c:46 (discriminator 302)
80002afa:	4481                	li	s1,0
80002afc:	cf51                	beqz	a4,80002b98 <__subsf3+0x2dc>
/Local/xl_ci/toolchain/riscv-gnu-toolchain/riscv-gcc/libgcc/soft-fp/subsf3.c:46
80002afe:	87ba                	mv	a5,a4
80002b00:	84ae                	mv	s1,a1
80002b02:	bdcd                	j	800029f4 <__subsf3+0x138>
/Local/xl_ci/toolchain/riscv-gnu-toolchain/riscv-gcc/libgcc/soft-fp/subsf3.c:46 (discriminator 303)
80002b04:	ee0708e3          	beqz	a4,800029f4 <__subsf3+0x138>
/Local/xl_ci/toolchain/riscv-gnu-toolchain/riscv-gcc/libgcc/soft-fp/subsf3.c:46 (discriminator 310)
80002b08:	40e786b3          	sub	a3,a5,a4
80002b0c:	04000637          	lui	a2,0x4000
80002b10:	8e75                	and	a2,a2,a3
80002b12:	40f707b3          	sub	a5,a4,a5
80002b16:	f66d                	bnez	a2,80002b00 <__subsf3+0x244>
/Local/xl_ci/toolchain/riscv-gnu-toolchain/riscv-gcc/libgcc/soft-fp/subsf3.c:46 (discriminator 313)
80002b18:	4781                	li	a5,0
80002b1a:	ceb9                	beqz	a3,80002b78 <__subsf3+0x2bc>
80002b1c:	87b6                	mv	a5,a3
80002b1e:	bdd9                	j	800029f4 <__subsf3+0x138>
/Local/xl_ci/toolchain/riscv-gnu-toolchain/riscv-gcc/libgcc/soft-fp/subsf3.c:46 (discriminator 332)
80002b20:	ee0796e3          	bnez	a5,80002a0c <__subsf3+0x150>
/Local/xl_ci/toolchain/riscv-gnu-toolchain/riscv-gcc/libgcc/soft-fp/subsf3.c:46 (discriminator 333)
80002b24:	ee0705e3          	beqz	a4,80002a0e <__subsf3+0x152>
/Local/xl_ci/toolchain/riscv-gnu-toolchain/riscv-gcc/libgcc/soft-fp/subsf3.c:46
80002b28:	87ba                	mv	a5,a4
80002b2a:	84ae                	mv	s1,a1
80002b2c:	bbd5                	j	80002920 <__subsf3+0x64>
/Local/xl_ci/toolchain/riscv-gnu-toolchain/riscv-gcc/libgcc/soft-fp/subsf3.c:46 (discriminator 299)
80002b2e:	40e78933          	sub	s2,a5,a4
80002b32:	040006b7          	lui	a3,0x4000
80002b36:	00d976b3          	and	a3,s2,a3
80002b3a:	ca9d                	beqz	a3,80002b70 <__subsf3+0x2b4>
/Local/xl_ci/toolchain/riscv-gnu-toolchain/riscv-gcc/libgcc/soft-fp/subsf3.c:46 (discriminator 349)
80002b3c:	40f70933          	sub	s2,a4,a5
80002b40:	84ae                	mv	s1,a1
/Local/xl_ci/toolchain/riscv-gnu-toolchain/riscv-gcc/libgcc/soft-fp/subsf3.c:46 (discriminator 359)
80002b42:	854a                	mv	a0,s2
80002b44:	24fd                	jal	80002e32 <__clzsi2>
80002b46:	156d                	addi	a0,a0,-5
80002b48:	00a91933          	sll	s2,s2,a0
80002b4c:	02854863          	blt	a0,s0,80002b7c <__subsf3+0x2c0>
/Local/xl_ci/toolchain/riscv-gnu-toolchain/riscv-gcc/libgcc/soft-fp/subsf3.c:46 (discriminator 372)
80002b50:	8d01                	sub	a0,a0,s0
80002b52:	0505                	addi	a0,a0,1
80002b54:	02000413          	li	s0,32
80002b58:	00a957b3          	srl	a5,s2,a0
80002b5c:	40a40533          	sub	a0,s0,a0
80002b60:	00a91933          	sll	s2,s2,a0
80002b64:	01203933          	snez	s2,s2
80002b68:	0127e7b3          	or	a5,a5,s2
80002b6c:	4401                	li	s0,0
80002b6e:	b559                	j	800029f4 <__subsf3+0x138>
/Local/xl_ci/toolchain/riscv-gnu-toolchain/riscv-gcc/libgcc/soft-fp/subsf3.c:46 (discriminator 350)
80002b70:	fc0919e3          	bnez	s2,80002b42 <__subsf3+0x286>
/Local/xl_ci/toolchain/riscv-gnu-toolchain/riscv-gcc/libgcc/soft-fp/subsf3.c:46
80002b74:	4781                	li	a5,0
80002b76:	4401                	li	s0,0
80002b78:	4481                	li	s1,0
80002b7a:	a839                	j	80002b98 <__subsf3+0x2dc>
/Local/xl_ci/toolchain/riscv-gnu-toolchain/riscv-gcc/libgcc/soft-fp/subsf3.c:46 (discriminator 373)
80002b7c:	fc0007b7          	lui	a5,0xfc000
80002b80:	17fd                	addi	a5,a5,-1
80002b82:	8c09                	sub	s0,s0,a0
80002b84:	00f977b3          	and	a5,s2,a5
80002b88:	b5b5                	j	800029f4 <__subsf3+0x138>
/Local/xl_ci/toolchain/riscv-gnu-toolchain/riscv-gcc/libgcc/soft-fp/subsf3.c:45
80002b8a:	87ba                	mv	a5,a4
80002b8c:	bd69                	j	80002a26 <__subsf3+0x16a>
80002b8e:	87ba                	mv	a5,a4
80002b90:	b595                	j	800029f4 <__subsf3+0x138>
80002b92:	0ff00413          	li	s0,255
80002b96:	4781                	li	a5,0
/Local/xl_ci/toolchain/riscv-gnu-toolchain/riscv-gcc/libgcc/soft-fp/subsf3.c:47 (discriminator 47)
80002b98:	04000737          	lui	a4,0x4000
80002b9c:	8f7d                	and	a4,a4,a5
80002b9e:	cb11                	beqz	a4,80002bb2 <__subsf3+0x2f6>
/Local/xl_ci/toolchain/riscv-gnu-toolchain/riscv-gcc/libgcc/soft-fp/subsf3.c:47 (discriminator 63)
80002ba0:	0405                	addi	s0,s0,1
80002ba2:	0ff00713          	li	a4,255
80002ba6:	04e40263          	beq	s0,a4,80002bea <__subsf3+0x32e>
/Local/xl_ci/toolchain/riscv-gnu-toolchain/riscv-gcc/libgcc/soft-fp/subsf3.c:47
80002baa:	fc000737          	lui	a4,0xfc000
80002bae:	177d                	addi	a4,a4,-1
80002bb0:	8ff9                	and	a5,a5,a4
/Local/xl_ci/toolchain/riscv-gnu-toolchain/riscv-gcc/libgcc/soft-fp/subsf3.c:47 (discriminator 79)
80002bb2:	0ff00713          	li	a4,255
80002bb6:	838d                	srli	a5,a5,0x3
80002bb8:	00e41663          	bne	s0,a4,80002bc4 <__subsf3+0x308>
/Local/xl_ci/toolchain/riscv-gnu-toolchain/riscv-gcc/libgcc/soft-fp/subsf3.c:47 (discriminator 80)
80002bbc:	c781                	beqz	a5,80002bc4 <__subsf3+0x308>
/Local/xl_ci/toolchain/riscv-gnu-toolchain/riscv-gcc/libgcc/soft-fp/subsf3.c:47
80002bbe:	004007b7          	lui	a5,0x400
80002bc2:	4481                	li	s1,0
/Local/xl_ci/toolchain/riscv-gnu-toolchain/riscv-gcc/libgcc/soft-fp/subsf3.c:47 (discriminator 90)
80002bc4:	7f800537          	lui	a0,0x7f800
80002bc8:	045e                	slli	s0,s0,0x17
80002bca:	07a6                	slli	a5,a5,0x9
80002bcc:	8c69                	and	s0,s0,a0
80002bce:	83a5                	srli	a5,a5,0x9
/Local/xl_ci/toolchain/riscv-gnu-toolchain/riscv-gcc/libgcc/soft-fp/subsf3.c:51 (discriminator 90)
80002bd0:	40b2                	lw	ra,12(sp)
/Local/xl_ci/toolchain/riscv-gnu-toolchain/riscv-gcc/libgcc/soft-fp/subsf3.c:47 (discriminator 90)
80002bd2:	8fc1                	or	a5,a5,s0
/Local/xl_ci/toolchain/riscv-gnu-toolchain/riscv-gcc/libgcc/soft-fp/subsf3.c:51 (discriminator 90)
80002bd4:	4422                	lw	s0,8(sp)
/Local/xl_ci/toolchain/riscv-gnu-toolchain/riscv-gcc/libgcc/soft-fp/subsf3.c:47 (discriminator 90)
80002bd6:	01f49513          	slli	a0,s1,0x1f
/Local/xl_ci/toolchain/riscv-gnu-toolchain/riscv-gcc/libgcc/soft-fp/subsf3.c:51 (discriminator 90)
80002bda:	4902                	lw	s2,0(sp)
80002bdc:	4492                	lw	s1,4(sp)
80002bde:	8d5d                	or	a0,a0,a5
80002be0:	0141                	addi	sp,sp,16
80002be2:	8082                	ret
/Local/xl_ci/toolchain/riscv-gnu-toolchain/riscv-gcc/libgcc/soft-fp/subsf3.c:45
80002be4:	87ba                	mv	a5,a4
/Local/xl_ci/toolchain/riscv-gnu-toolchain/riscv-gcc/libgcc/soft-fp/subsf3.c:46
80002be6:	8436                	mv	s0,a3
80002be8:	bf21                	j	80002b00 <__subsf3+0x244>
80002bea:	4781                	li	a5,0
80002bec:	b7d9                	j	80002bb2 <__subsf3+0x2f6>

80002bee <__fixsfsi>:
__fixsfsi():
/Local/xl_ci/toolchain/riscv-gnu-toolchain/riscv-gcc/libgcc/soft-fp/fixsfsi.c:42
80002bee:	00800637          	lui	a2,0x800
80002bf2:	01755713          	srli	a4,a0,0x17
80002bf6:	fff60793          	addi	a5,a2,-1 # 7fffff <__stack_size+0x7ff7ff>
80002bfa:	0ff77713          	zext.b	a4,a4
/Local/xl_ci/toolchain/riscv-gnu-toolchain/riscv-gcc/libgcc/soft-fp/fixsfsi.c:43
80002bfe:	07e00593          	li	a1,126
/Local/xl_ci/toolchain/riscv-gnu-toolchain/riscv-gcc/libgcc/soft-fp/fixsfsi.c:42
80002c02:	8fe9                	and	a5,a5,a0
80002c04:	01f55693          	srli	a3,a0,0x1f
/Local/xl_ci/toolchain/riscv-gnu-toolchain/riscv-gcc/libgcc/soft-fp/fixsfsi.c:43
80002c08:	04e5d163          	bge	a1,a4,80002c4a <__fixsfsi+0x5c>
/Local/xl_ci/toolchain/riscv-gnu-toolchain/riscv-gcc/libgcc/soft-fp/fixsfsi.c:43 (discriminator 10)
80002c0c:	09d00593          	li	a1,157
80002c10:	00e5d863          	bge	a1,a4,80002c20 <__fixsfsi+0x32>
/Local/xl_ci/toolchain/riscv-gnu-toolchain/riscv-gcc/libgcc/soft-fp/fixsfsi.c:43 (discriminator 14)
80002c14:	80000537          	lui	a0,0x80000
80002c18:	fff54513          	not	a0,a0
80002c1c:	9536                	add	a0,a0,a3
80002c1e:	8082                	ret
/Local/xl_ci/toolchain/riscv-gnu-toolchain/riscv-gcc/libgcc/soft-fp/fixsfsi.c:43 (discriminator 13)
80002c20:	00c7e533          	or	a0,a5,a2
80002c24:	09500793          	li	a5,149
80002c28:	00e7da63          	bge	a5,a4,80002c3c <__fixsfsi+0x4e>
/Local/xl_ci/toolchain/riscv-gnu-toolchain/riscv-gcc/libgcc/soft-fp/fixsfsi.c:43 (discriminator 27)
80002c2c:	f6a70713          	addi	a4,a4,-150 # fbffff6a <_sp+0x6bff7f6a>
80002c30:	00e51533          	sll	a0,a0,a4
/Local/xl_ci/toolchain/riscv-gnu-toolchain/riscv-gcc/libgcc/soft-fp/fixsfsi.c:43 (discriminator 36)
80002c34:	ce81                	beqz	a3,80002c4c <__fixsfsi+0x5e>
/Local/xl_ci/toolchain/riscv-gnu-toolchain/riscv-gcc/libgcc/soft-fp/fixsfsi.c:43 (discriminator 37)
80002c36:	40a00533          	neg	a0,a0
80002c3a:	8082                	ret
/Local/xl_ci/toolchain/riscv-gnu-toolchain/riscv-gcc/libgcc/soft-fp/fixsfsi.c:43 (discriminator 28)
80002c3c:	09600793          	li	a5,150
80002c40:	40e78733          	sub	a4,a5,a4
80002c44:	00e55533          	srl	a0,a0,a4
80002c48:	b7f5                	j	80002c34 <__fixsfsi+0x46>
/Local/xl_ci/toolchain/riscv-gnu-toolchain/riscv-gcc/libgcc/soft-fp/fixsfsi.c:43
80002c4a:	4501                	li	a0,0
/Local/xl_ci/toolchain/riscv-gnu-toolchain/riscv-gcc/libgcc/soft-fp/fixsfsi.c:47 (discriminator 51)
80002c4c:	8082                	ret

80002c4e <__floatsisf>:
__floatsisf():
/Local/xl_ci/toolchain/riscv-gnu-toolchain/riscv-gcc/libgcc/soft-fp/floatsisf.c:36
80002c4e:	1141                	addi	sp,sp,-16
80002c50:	c606                	sw	ra,12(sp)
80002c52:	c422                	sw	s0,8(sp)
80002c54:	c226                	sw	s1,4(sp)
/Local/xl_ci/toolchain/riscv-gnu-toolchain/riscv-gcc/libgcc/soft-fp/floatsisf.c:42
80002c56:	c555                	beqz	a0,80002d02 <__floatsisf+0xb4>
/Local/xl_ci/toolchain/riscv-gnu-toolchain/riscv-gcc/libgcc/soft-fp/floatsisf.c:42 (discriminator 1)
80002c58:	41f55793          	srai	a5,a0,0x1f
80002c5c:	00a7c433          	xor	s0,a5,a0
80002c60:	8c1d                	sub	s0,s0,a5
80002c62:	01f55493          	srli	s1,a0,0x1f
80002c66:	8522                	mv	a0,s0
80002c68:	22e9                	jal	80002e32 <__clzsi2>
80002c6a:	09e00793          	li	a5,158
80002c6e:	872a                	mv	a4,a0
80002c70:	40a78533          	sub	a0,a5,a0
80002c74:	09600793          	li	a5,150
80002c78:	02a7c463          	blt	a5,a0,80002ca0 <__floatsisf+0x52>
/Local/xl_ci/toolchain/riscv-gnu-toolchain/riscv-gcc/libgcc/soft-fp/floatsisf.c:42 (discriminator 28)
80002c7c:	47a1                	li	a5,8
80002c7e:	00e7d563          	bge	a5,a4,80002c88 <__floatsisf+0x3a>
/Local/xl_ci/toolchain/riscv-gnu-toolchain/riscv-gcc/libgcc/soft-fp/floatsisf.c:42 (discriminator 35)
80002c82:	1761                	addi	a4,a4,-8
80002c84:	00e41433          	sll	s0,s0,a4
/Local/xl_ci/toolchain/riscv-gnu-toolchain/riscv-gcc/libgcc/soft-fp/floatsisf.c:43 (discriminator 140)
80002c88:	0426                	slli	s0,s0,0x9
80002c8a:	055e                	slli	a0,a0,0x17
80002c8c:	8025                	srli	s0,s0,0x9
80002c8e:	8c49                	or	s0,s0,a0
80002c90:	01f49513          	slli	a0,s1,0x1f
/Local/xl_ci/toolchain/riscv-gnu-toolchain/riscv-gcc/libgcc/soft-fp/floatsisf.c:47 (discriminator 140)
80002c94:	40b2                	lw	ra,12(sp)
80002c96:	8d41                	or	a0,a0,s0
80002c98:	4422                	lw	s0,8(sp)
80002c9a:	4492                	lw	s1,4(sp)
80002c9c:	0141                	addi	sp,sp,16
80002c9e:	8082                	ret
/Local/xl_ci/toolchain/riscv-gnu-toolchain/riscv-gcc/libgcc/soft-fp/floatsisf.c:42 (discriminator 29)
80002ca0:	09900793          	li	a5,153
80002ca4:	00a7dd63          	bge	a5,a0,80002cbe <__floatsisf+0x70>
/Local/xl_ci/toolchain/riscv-gnu-toolchain/riscv-gcc/libgcc/soft-fp/floatsisf.c:42 (discriminator 38)
80002ca8:	4795                	li	a5,5
80002caa:	8f99                	sub	a5,a5,a4
80002cac:	01b70693          	addi	a3,a4,27
80002cb0:	00f457b3          	srl	a5,s0,a5
80002cb4:	00d41433          	sll	s0,s0,a3
80002cb8:	00803433          	snez	s0,s0
80002cbc:	8c5d                	or	s0,s0,a5
/Local/xl_ci/toolchain/riscv-gnu-toolchain/riscv-gcc/libgcc/soft-fp/floatsisf.c:42 (discriminator 40)
80002cbe:	4795                	li	a5,5
80002cc0:	00e7d663          	bge	a5,a4,80002ccc <__floatsisf+0x7e>
/Local/xl_ci/toolchain/riscv-gnu-toolchain/riscv-gcc/libgcc/soft-fp/floatsisf.c:42 (discriminator 46)
80002cc4:	ffb70793          	addi	a5,a4,-5
80002cc8:	00f41433          	sll	s0,s0,a5
/Local/xl_ci/toolchain/riscv-gnu-toolchain/riscv-gcc/libgcc/soft-fp/floatsisf.c:42 (discriminator 48)
80002ccc:	fc0006b7          	lui	a3,0xfc000
80002cd0:	16fd                	addi	a3,a3,-1
80002cd2:	00747793          	andi	a5,s0,7
80002cd6:	8ee1                	and	a3,a3,s0
80002cd8:	c791                	beqz	a5,80002ce4 <__floatsisf+0x96>
/Local/xl_ci/toolchain/riscv-gnu-toolchain/riscv-gcc/libgcc/soft-fp/floatsisf.c:42 (discriminator 89)
80002cda:	883d                	andi	s0,s0,15
80002cdc:	4791                	li	a5,4
80002cde:	00f40363          	beq	s0,a5,80002ce4 <__floatsisf+0x96>
/Local/xl_ci/toolchain/riscv-gnu-toolchain/riscv-gcc/libgcc/soft-fp/floatsisf.c:42 (discriminator 93)
80002ce2:	0691                	addi	a3,a3,4
/Local/xl_ci/toolchain/riscv-gnu-toolchain/riscv-gcc/libgcc/soft-fp/floatsisf.c:42 (discriminator 96)
80002ce4:	040007b7          	lui	a5,0x4000
80002ce8:	8ff5                	and	a5,a5,a3
80002cea:	cb89                	beqz	a5,80002cfc <__floatsisf+0xae>
/Local/xl_ci/toolchain/riscv-gnu-toolchain/riscv-gcc/libgcc/soft-fp/floatsisf.c:42 (discriminator 112)
80002cec:	fc0007b7          	lui	a5,0xfc000
80002cf0:	17fd                	addi	a5,a5,-1
80002cf2:	8efd                	and	a3,a3,a5
80002cf4:	09f00793          	li	a5,159
80002cf8:	40e78533          	sub	a0,a5,a4
/Local/xl_ci/toolchain/riscv-gnu-toolchain/riscv-gcc/libgcc/soft-fp/floatsisf.c:42 (discriminator 128)
80002cfc:	0036d413          	srli	s0,a3,0x3
80002d00:	b761                	j	80002c88 <__floatsisf+0x3a>
/Local/xl_ci/toolchain/riscv-gnu-toolchain/riscv-gcc/libgcc/soft-fp/floatsisf.c:42
80002d02:	4481                	li	s1,0
80002d04:	4401                	li	s0,0
80002d06:	b749                	j	80002c88 <__floatsisf+0x3a>

80002d08 <__floatundisf>:
__floatundisf():
/Local/xl_ci/toolchain/riscv-gnu-toolchain/riscv-gcc/libgcc/soft-fp/floatundisf.c:36
80002d08:	1101                	addi	sp,sp,-32
80002d0a:	ce06                	sw	ra,28(sp)
80002d0c:	cc22                	sw	s0,24(sp)
80002d0e:	ca26                	sw	s1,20(sp)
80002d10:	c84a                	sw	s2,16(sp)
80002d12:	c64e                	sw	s3,12(sp)
80002d14:	c452                	sw	s4,8(sp)
/Local/xl_ci/toolchain/riscv-gnu-toolchain/riscv-gcc/libgcc/soft-fp/floatundisf.c:42
80002d16:	00b567b3          	or	a5,a0,a1
80002d1a:	cfdd                	beqz	a5,80002dd8 <__floatundisf+0xd0>
80002d1c:	842a                	mv	s0,a0
80002d1e:	89ae                	mv	s3,a1
80002d20:	c1a9                	beqz	a1,80002d62 <__floatundisf+0x5a>
/Local/xl_ci/toolchain/riscv-gnu-toolchain/riscv-gcc/libgcc/soft-fp/floatundisf.c:42 (discriminator 8)
80002d22:	852e                	mv	a0,a1
80002d24:	2239                	jal	80002e32 <__clzsi2>
80002d26:	84aa                	mv	s1,a0
/Local/xl_ci/toolchain/riscv-gnu-toolchain/riscv-gcc/libgcc/soft-fp/floatundisf.c:42 (discriminator 22)
80002d28:	0be00913          	li	s2,190
80002d2c:	40990933          	sub	s2,s2,s1
80002d30:	09600793          	li	a5,150
80002d34:	0327cb63          	blt	a5,s2,80002d6a <__floatundisf+0x62>
/Local/xl_ci/toolchain/riscv-gnu-toolchain/riscv-gcc/libgcc/soft-fp/floatundisf.c:42 (discriminator 38)
80002d38:	02800793          	li	a5,40
80002d3c:	0097d663          	bge	a5,s1,80002d48 <__floatundisf+0x40>
/Local/xl_ci/toolchain/riscv-gnu-toolchain/riscv-gcc/libgcc/soft-fp/floatundisf.c:42 (discriminator 45)
80002d40:	fd848493          	addi	s1,s1,-40
80002d44:	00941433          	sll	s0,s0,s1
/Local/xl_ci/toolchain/riscv-gnu-toolchain/riscv-gcc/libgcc/soft-fp/floatundisf.c:43 (discriminator 150)
80002d48:	0426                	slli	s0,s0,0x9
80002d4a:	01791513          	slli	a0,s2,0x17
80002d4e:	8025                	srli	s0,s0,0x9
/Local/xl_ci/toolchain/riscv-gnu-toolchain/riscv-gcc/libgcc/soft-fp/floatundisf.c:47 (discriminator 150)
80002d50:	40f2                	lw	ra,28(sp)
80002d52:	8d41                	or	a0,a0,s0
80002d54:	4462                	lw	s0,24(sp)
80002d56:	44d2                	lw	s1,20(sp)
80002d58:	4942                	lw	s2,16(sp)
80002d5a:	49b2                	lw	s3,12(sp)
80002d5c:	4a22                	lw	s4,8(sp)
80002d5e:	6105                	addi	sp,sp,32
80002d60:	8082                	ret
/Local/xl_ci/toolchain/riscv-gnu-toolchain/riscv-gcc/libgcc/soft-fp/floatundisf.c:42 (discriminator 15)
80002d62:	28c1                	jal	80002e32 <__clzsi2>
80002d64:	02050493          	addi	s1,a0,32 # 80000020 <_sp+0xefff8020>
80002d68:	b7c1                	j	80002d28 <__floatundisf+0x20>
/Local/xl_ci/toolchain/riscv-gnu-toolchain/riscv-gcc/libgcc/soft-fp/floatundisf.c:42 (discriminator 39)
80002d6a:	09900793          	li	a5,153
80002d6e:	0327d263          	bge	a5,s2,80002d92 <__floatundisf+0x8a>
/Local/xl_ci/toolchain/riscv-gnu-toolchain/riscv-gcc/libgcc/soft-fp/floatundisf.c:42 (discriminator 48)
80002d72:	01b48613          	addi	a2,s1,27
80002d76:	8522                	mv	a0,s0
80002d78:	85ce                	mv	a1,s3
80002d7a:	2079                	jal	80002e08 <__ashldi3>
80002d7c:	8d4d                	or	a0,a0,a1
80002d7e:	02500613          	li	a2,37
80002d82:	00a03a33          	snez	s4,a0
80002d86:	8e05                	sub	a2,a2,s1
80002d88:	8522                	mv	a0,s0
80002d8a:	85ce                	mv	a1,s3
80002d8c:	2889                	jal	80002dde <__lshrdi3>
80002d8e:	00aa6433          	or	s0,s4,a0
/Local/xl_ci/toolchain/riscv-gnu-toolchain/riscv-gcc/libgcc/soft-fp/floatundisf.c:42 (discriminator 50)
80002d92:	02500793          	li	a5,37
80002d96:	0097d663          	bge	a5,s1,80002da2 <__floatundisf+0x9a>
/Local/xl_ci/toolchain/riscv-gnu-toolchain/riscv-gcc/libgcc/soft-fp/floatundisf.c:42 (discriminator 56)
80002d9a:	fdb48793          	addi	a5,s1,-37
80002d9e:	00f41433          	sll	s0,s0,a5
/Local/xl_ci/toolchain/riscv-gnu-toolchain/riscv-gcc/libgcc/soft-fp/floatundisf.c:42 (discriminator 58)
80002da2:	fc000537          	lui	a0,0xfc000
80002da6:	157d                	addi	a0,a0,-1
80002da8:	00747793          	andi	a5,s0,7
80002dac:	8d61                	and	a0,a0,s0
80002dae:	c791                	beqz	a5,80002dba <__floatundisf+0xb2>
/Local/xl_ci/toolchain/riscv-gnu-toolchain/riscv-gcc/libgcc/soft-fp/floatundisf.c:42 (discriminator 99)
80002db0:	883d                	andi	s0,s0,15
80002db2:	4791                	li	a5,4
80002db4:	00f40363          	beq	s0,a5,80002dba <__floatundisf+0xb2>
/Local/xl_ci/toolchain/riscv-gnu-toolchain/riscv-gcc/libgcc/soft-fp/floatundisf.c:42 (discriminator 103)
80002db8:	0511                	addi	a0,a0,4
/Local/xl_ci/toolchain/riscv-gnu-toolchain/riscv-gcc/libgcc/soft-fp/floatundisf.c:42 (discriminator 106)
80002dba:	040007b7          	lui	a5,0x4000
80002dbe:	8fe9                	and	a5,a5,a0
80002dc0:	cb89                	beqz	a5,80002dd2 <__floatundisf+0xca>
/Local/xl_ci/toolchain/riscv-gnu-toolchain/riscv-gcc/libgcc/soft-fp/floatundisf.c:42 (discriminator 122)
80002dc2:	fc0007b7          	lui	a5,0xfc000
80002dc6:	17fd                	addi	a5,a5,-1
80002dc8:	0bf00913          	li	s2,191
80002dcc:	8d7d                	and	a0,a0,a5
80002dce:	40990933          	sub	s2,s2,s1
/Local/xl_ci/toolchain/riscv-gnu-toolchain/riscv-gcc/libgcc/soft-fp/floatundisf.c:42 (discriminator 138)
80002dd2:	00355413          	srli	s0,a0,0x3
80002dd6:	bf8d                	j	80002d48 <__floatundisf+0x40>
/Local/xl_ci/toolchain/riscv-gnu-toolchain/riscv-gcc/libgcc/soft-fp/floatundisf.c:42
80002dd8:	4401                	li	s0,0
80002dda:	4901                	li	s2,0
80002ddc:	b7b5                	j	80002d48 <__floatundisf+0x40>

80002dde <__lshrdi3>:
__lshrdi3():
/Local/xl_ci/toolchain/riscv-gnu-toolchain/riscv-gcc/libgcc/libgcc2.c:406
80002dde:	ce01                	beqz	a2,80002df6 <__lshrdi3+0x18>
/Local/xl_ci/toolchain/riscv-gnu-toolchain/riscv-gcc/libgcc/libgcc2.c:410
80002de0:	02000793          	li	a5,32
80002de4:	8f91                	sub	a5,a5,a2
/Local/xl_ci/toolchain/riscv-gnu-toolchain/riscv-gcc/libgcc/libgcc2.c:413
80002de6:	00f04963          	bgtz	a5,80002df8 <__lshrdi3+0x1a>
/Local/xl_ci/toolchain/riscv-gnu-toolchain/riscv-gcc/libgcc/libgcc2.c:416
80002dea:	fe060513          	addi	a0,a2,-32
/Local/xl_ci/toolchain/riscv-gnu-toolchain/riscv-gcc/libgcc/libgcc2.c:415
80002dee:	4701                	li	a4,0
/Local/xl_ci/toolchain/riscv-gnu-toolchain/riscv-gcc/libgcc/libgcc2.c:416
80002df0:	00a5d533          	srl	a0,a1,a0
/Local/xl_ci/toolchain/riscv-gnu-toolchain/riscv-gcc/libgcc/libgcc2.c:426
80002df4:	85ba                	mv	a1,a4
/Local/xl_ci/toolchain/riscv-gnu-toolchain/riscv-gcc/libgcc/libgcc2.c:427
80002df6:	8082                	ret
/Local/xl_ci/toolchain/riscv-gnu-toolchain/riscv-gcc/libgcc/libgcc2.c:422
80002df8:	00c5d733          	srl	a4,a1,a2
/Local/xl_ci/toolchain/riscv-gnu-toolchain/riscv-gcc/libgcc/libgcc2.c:423
80002dfc:	00c55533          	srl	a0,a0,a2
/Local/xl_ci/toolchain/riscv-gnu-toolchain/riscv-gcc/libgcc/libgcc2.c:420
80002e00:	00f595b3          	sll	a1,a1,a5
/Local/xl_ci/toolchain/riscv-gnu-toolchain/riscv-gcc/libgcc/libgcc2.c:423
80002e04:	8d4d                	or	a0,a0,a1
80002e06:	b7fd                	j	80002df4 <__lshrdi3+0x16>

80002e08 <__ashldi3>:
__ashldi3():
/Local/xl_ci/toolchain/riscv-gnu-toolchain/riscv-gcc/libgcc/libgcc2.c:434
80002e08:	ce01                	beqz	a2,80002e20 <__ashldi3+0x18>
/Local/xl_ci/toolchain/riscv-gnu-toolchain/riscv-gcc/libgcc/libgcc2.c:438
80002e0a:	02000793          	li	a5,32
80002e0e:	8f91                	sub	a5,a5,a2
/Local/xl_ci/toolchain/riscv-gnu-toolchain/riscv-gcc/libgcc/libgcc2.c:441
80002e10:	00f04963          	bgtz	a5,80002e22 <__ashldi3+0x1a>
/Local/xl_ci/toolchain/riscv-gnu-toolchain/riscv-gcc/libgcc/libgcc2.c:444
80002e14:	fe060593          	addi	a1,a2,-32
/Local/xl_ci/toolchain/riscv-gnu-toolchain/riscv-gcc/libgcc/libgcc2.c:443
80002e18:	4701                	li	a4,0
/Local/xl_ci/toolchain/riscv-gnu-toolchain/riscv-gcc/libgcc/libgcc2.c:444
80002e1a:	00b515b3          	sll	a1,a0,a1
/Local/xl_ci/toolchain/riscv-gnu-toolchain/riscv-gcc/libgcc/libgcc2.c:454
80002e1e:	853a                	mv	a0,a4
/Local/xl_ci/toolchain/riscv-gnu-toolchain/riscv-gcc/libgcc/libgcc2.c:455
80002e20:	8082                	ret
/Local/xl_ci/toolchain/riscv-gnu-toolchain/riscv-gcc/libgcc/libgcc2.c:450
80002e22:	00c51733          	sll	a4,a0,a2
/Local/xl_ci/toolchain/riscv-gnu-toolchain/riscv-gcc/libgcc/libgcc2.c:451
80002e26:	00c595b3          	sll	a1,a1,a2
/Local/xl_ci/toolchain/riscv-gnu-toolchain/riscv-gcc/libgcc/libgcc2.c:448
80002e2a:	00f55533          	srl	a0,a0,a5
/Local/xl_ci/toolchain/riscv-gnu-toolchain/riscv-gcc/libgcc/libgcc2.c:451
80002e2e:	8dc9                	or	a1,a1,a0
80002e30:	b7fd                	j	80002e1e <__ashldi3+0x16>

80002e32 <__clzsi2>:
__clzsi2():
/Local/xl_ci/toolchain/riscv-gnu-toolchain/riscv-gcc/libgcc/libgcc2.c:710
80002e32:	67c1                	lui	a5,0x10
80002e34:	02f57663          	bgeu	a0,a5,80002e60 <__clzsi2+0x2e>
/Local/xl_ci/toolchain/riscv-gnu-toolchain/riscv-gcc/libgcc/libgcc2.c:710 (discriminator 3)
80002e38:	0ff00793          	li	a5,255
80002e3c:	00a7b7b3          	sltu	a5,a5,a0
80002e40:	078e                	slli	a5,a5,0x3
/Local/xl_ci/toolchain/riscv-gnu-toolchain/riscv-gcc/libgcc/libgcc2.c:710 (discriminator 14)
80002e42:	02000713          	li	a4,32
80002e46:	8f1d                	sub	a4,a4,a5
80002e48:	00f55533          	srl	a0,a0,a5
80002e4c:	00003797          	auipc	a5,0x3
80002e50:	26478793          	addi	a5,a5,612 # 800060b0 <__clz_tab>
80002e54:	953e                	add	a0,a0,a5
80002e56:	00054503          	lbu	a0,0(a0) # fc000000 <_sp+0x6bff8000>
/Local/xl_ci/toolchain/riscv-gnu-toolchain/riscv-gcc/libgcc/libgcc2.c:713 (discriminator 14)
80002e5a:	40a70533          	sub	a0,a4,a0
80002e5e:	8082                	ret
/Local/xl_ci/toolchain/riscv-gnu-toolchain/riscv-gcc/libgcc/libgcc2.c:710 (discriminator 4)
80002e60:	01000737          	lui	a4,0x1000
80002e64:	47c1                	li	a5,16
80002e66:	fce56ee3          	bltu	a0,a4,80002e42 <__clzsi2+0x10>
/Local/xl_ci/toolchain/riscv-gnu-toolchain/riscv-gcc/libgcc/libgcc2.c:710
80002e6a:	47e1                	li	a5,24
80002e6c:	bfd9                	j	80002e42 <__clzsi2+0x10>

80002e6e <atexit>:
atexit():
80002e6e:	85aa                	mv	a1,a0
80002e70:	4681                	li	a3,0
80002e72:	4601                	li	a2,0
80002e74:	4501                	li	a0,0
80002e76:	a1d1                	j	8000333a <__register_exitproc>

80002e78 <__libc_fini_array>:
__libc_fini_array():
80002e78:	1141                	addi	sp,sp,-16
80002e7a:	c422                	sw	s0,8(sp)
80002e7c:	c226                	sw	s1,4(sp)
80002e7e:	00003417          	auipc	s0,0x3
80002e82:	4d240413          	addi	s0,s0,1234 # 80006350 <__fsymtab_end>
80002e86:	00003497          	auipc	s1,0x3
80002e8a:	4ca48493          	addi	s1,s1,1226 # 80006350 <__fsymtab_end>
80002e8e:	8c05                	sub	s0,s0,s1
80002e90:	c606                	sw	ra,12(sp)
80002e92:	8409                	srai	s0,s0,0x2
80002e94:	e411                	bnez	s0,80002ea0 <__libc_fini_array+0x28>
80002e96:	40b2                	lw	ra,12(sp)
80002e98:	4422                	lw	s0,8(sp)
80002e9a:	4492                	lw	s1,4(sp)
80002e9c:	0141                	addi	sp,sp,16
80002e9e:	8082                	ret
80002ea0:	147d                	addi	s0,s0,-1
80002ea2:	00241793          	slli	a5,s0,0x2
80002ea6:	97a6                	add	a5,a5,s1
80002ea8:	439c                	lw	a5,0(a5)
80002eaa:	9782                	jalr	a5
80002eac:	b7e5                	j	80002e94 <__libc_fini_array+0x1c>

80002eae <__libc_init_array>:
__libc_init_array():
80002eae:	1141                	addi	sp,sp,-16
80002eb0:	c422                	sw	s0,8(sp)
80002eb2:	c226                	sw	s1,4(sp)
80002eb4:	00003417          	auipc	s0,0x3
80002eb8:	49c40413          	addi	s0,s0,1180 # 80006350 <__fsymtab_end>
80002ebc:	00003497          	auipc	s1,0x3
80002ec0:	49448493          	addi	s1,s1,1172 # 80006350 <__fsymtab_end>
80002ec4:	8c81                	sub	s1,s1,s0
80002ec6:	c04a                	sw	s2,0(sp)
80002ec8:	c606                	sw	ra,12(sp)
80002eca:	8489                	srai	s1,s1,0x2
80002ecc:	4901                	li	s2,0
80002ece:	02991563          	bne	s2,s1,80002ef8 <__libc_init_array+0x4a>
80002ed2:	00003417          	auipc	s0,0x3
80002ed6:	47e40413          	addi	s0,s0,1150 # 80006350 <__fsymtab_end>
80002eda:	00003497          	auipc	s1,0x3
80002ede:	47648493          	addi	s1,s1,1142 # 80006350 <__fsymtab_end>
80002ee2:	8c81                	sub	s1,s1,s0
80002ee4:	8489                	srai	s1,s1,0x2
80002ee6:	4901                	li	s2,0
80002ee8:	00991d63          	bne	s2,s1,80002f02 <__libc_init_array+0x54>
80002eec:	40b2                	lw	ra,12(sp)
80002eee:	4422                	lw	s0,8(sp)
80002ef0:	4492                	lw	s1,4(sp)
80002ef2:	4902                	lw	s2,0(sp)
80002ef4:	0141                	addi	sp,sp,16
80002ef6:	8082                	ret
80002ef8:	401c                	lw	a5,0(s0)
80002efa:	0905                	addi	s2,s2,1
80002efc:	0411                	addi	s0,s0,4
80002efe:	9782                	jalr	a5
80002f00:	b7f9                	j	80002ece <__libc_init_array+0x20>
80002f02:	401c                	lw	a5,0(s0)
80002f04:	0905                	addi	s2,s2,1
80002f06:	0411                	addi	s0,s0,4
80002f08:	9782                	jalr	a5
80002f0a:	bff9                	j	80002ee8 <__libc_init_array+0x3a>

80002f0c <memset>:
memset():
80002f0c:	433d                	li	t1,15
80002f0e:	872a                	mv	a4,a0
80002f10:	02c37363          	bgeu	t1,a2,80002f36 <memset+0x2a>
80002f14:	00f77793          	andi	a5,a4,15
80002f18:	efbd                	bnez	a5,80002f96 <memset+0x8a>
80002f1a:	e5ad                	bnez	a1,80002f84 <memset+0x78>
80002f1c:	ff067693          	andi	a3,a2,-16
80002f20:	8a3d                	andi	a2,a2,15
80002f22:	96ba                	add	a3,a3,a4
80002f24:	c30c                	sw	a1,0(a4)
80002f26:	c34c                	sw	a1,4(a4)
80002f28:	c70c                	sw	a1,8(a4)
80002f2a:	c74c                	sw	a1,12(a4)
80002f2c:	0741                	addi	a4,a4,16
80002f2e:	fed76be3          	bltu	a4,a3,80002f24 <memset+0x18>
80002f32:	e211                	bnez	a2,80002f36 <memset+0x2a>
80002f34:	8082                	ret
80002f36:	40c306b3          	sub	a3,t1,a2
80002f3a:	068a                	slli	a3,a3,0x2
80002f3c:	00000297          	auipc	t0,0x0
80002f40:	9696                	add	a3,a3,t0
80002f42:	00a68067          	jr	10(a3) # fc00000a <_sp+0x6bff800a>
80002f46:	00b70723          	sb	a1,14(a4) # 100000e <__stack_size+0xfff80e>
80002f4a:	00b706a3          	sb	a1,13(a4)
80002f4e:	00b70623          	sb	a1,12(a4)
80002f52:	00b705a3          	sb	a1,11(a4)
80002f56:	00b70523          	sb	a1,10(a4)
80002f5a:	00b704a3          	sb	a1,9(a4)
80002f5e:	00b70423          	sb	a1,8(a4)
80002f62:	00b703a3          	sb	a1,7(a4)
80002f66:	00b70323          	sb	a1,6(a4)
80002f6a:	00b702a3          	sb	a1,5(a4)
80002f6e:	00b70223          	sb	a1,4(a4)
80002f72:	00b701a3          	sb	a1,3(a4)
80002f76:	00b70123          	sb	a1,2(a4)
80002f7a:	00b700a3          	sb	a1,1(a4)
80002f7e:	00b70023          	sb	a1,0(a4)
80002f82:	8082                	ret
80002f84:	0ff5f593          	zext.b	a1,a1
80002f88:	00859693          	slli	a3,a1,0x8
80002f8c:	8dd5                	or	a1,a1,a3
80002f8e:	01059693          	slli	a3,a1,0x10
80002f92:	8dd5                	or	a1,a1,a3
80002f94:	b761                	j	80002f1c <memset+0x10>
80002f96:	00279693          	slli	a3,a5,0x2
80002f9a:	00000297          	auipc	t0,0x0
80002f9e:	9696                	add	a3,a3,t0
80002fa0:	8286                	mv	t0,ra
80002fa2:	fa8680e7          	jalr	-88(a3)
80002fa6:	8096                	mv	ra,t0
80002fa8:	17c1                	addi	a5,a5,-16
80002faa:	8f1d                	sub	a4,a4,a5
80002fac:	963e                	add	a2,a2,a5
80002fae:	f8c374e3          	bgeu	t1,a2,80002f36 <memset+0x2a>
80002fb2:	b7a5                	j	80002f1a <memset+0xe>

80002fb4 <iprintf>:
printf():
80002fb4:	715d                	addi	sp,sp,-80
80002fb6:	d422                	sw	s0,40(sp)
80002fb8:	d606                	sw	ra,44(sp)
80002fba:	842a                	mv	s0,a0
80002fbc:	da2e                	sw	a1,52(sp)
80002fbe:	dc32                	sw	a2,56(sp)
80002fc0:	de36                	sw	a3,60(sp)
80002fc2:	c0ba                	sw	a4,64(sp)
80002fc4:	c2be                	sw	a5,68(sp)
80002fc6:	c4c2                	sw	a6,72(sp)
80002fc8:	c6c6                	sw	a7,76(sp)
80002fca:	8101a503          	lw	a0,-2032(gp) # 90000070 <_impure_ptr>
80002fce:	c511                	beqz	a0,80002fda <iprintf+0x26>
80002fd0:	4d1c                	lw	a5,24(a0)
80002fd2:	e781                	bnez	a5,80002fda <iprintf+0x26>
80002fd4:	c62a                	sw	a0,12(sp)
80002fd6:	2d95                	jal	8000364a <__sinit>
80002fd8:	4532                	lw	a0,12(sp)
80002fda:	450c                	lw	a1,8(a0)
80002fdc:	1854                	addi	a3,sp,52
80002fde:	8622                	mv	a2,s0
80002fe0:	ce36                	sw	a3,28(sp)
80002fe2:	2dd000ef          	jal	ra,80003abe <_vfiprintf_r>
80002fe6:	50b2                	lw	ra,44(sp)
80002fe8:	5422                	lw	s0,40(sp)
80002fea:	6161                	addi	sp,sp,80
80002fec:	8082                	ret

80002fee <_puts_r>:
_puts_r():
80002fee:	1101                	addi	sp,sp,-32
80002ff0:	ca26                	sw	s1,20(sp)
80002ff2:	c84a                	sw	s2,16(sp)
80002ff4:	ce06                	sw	ra,28(sp)
80002ff6:	cc22                	sw	s0,24(sp)
80002ff8:	c64e                	sw	s3,12(sp)
80002ffa:	c452                	sw	s4,8(sp)
80002ffc:	84aa                	mv	s1,a0
80002ffe:	892e                	mv	s2,a1
80003000:	c501                	beqz	a0,80003008 <_puts_r+0x1a>
80003002:	4d1c                	lw	a5,24(a0)
80003004:	e391                	bnez	a5,80003008 <_puts_r+0x1a>
80003006:	2591                	jal	8000364a <__sinit>
80003008:	4c9c                	lw	a5,24(s1)
8000300a:	4480                	lw	s0,8(s1)
8000300c:	e399                	bnez	a5,80003012 <_puts_r+0x24>
8000300e:	8526                	mv	a0,s1
80003010:	2d2d                	jal	8000364a <__sinit>
80003012:	00003797          	auipc	a5,0x3
80003016:	26a78793          	addi	a5,a5,618 # 8000627c <__sf_fake_stdin>
8000301a:	02f41c63          	bne	s0,a5,80003052 <_puts_r+0x64>
8000301e:	40c0                	lw	s0,4(s1)
80003020:	00c45783          	lhu	a5,12(s0)
80003024:	8ba1                	andi	a5,a5,8
80003026:	c7b1                	beqz	a5,80003072 <_puts_r+0x84>
80003028:	481c                	lw	a5,16(s0)
8000302a:	c7a1                	beqz	a5,80003072 <_puts_r+0x84>
8000302c:	59fd                	li	s3,-1
8000302e:	4a29                	li	s4,10
80003030:	441c                	lw	a5,8(s0)
80003032:	00094583          	lbu	a1,0(s2) # 4000000 <__stack_size+0x3fff800>
80003036:	17fd                	addi	a5,a5,-1
80003038:	e9b1                	bnez	a1,8000308c <_puts_r+0x9e>
8000303a:	c41c                	sw	a5,8(s0)
8000303c:	0607de63          	bgez	a5,800030b8 <_puts_r+0xca>
80003040:	8622                	mv	a2,s0
80003042:	45a9                	li	a1,10
80003044:	8526                	mv	a0,s1
80003046:	223d                	jal	80003174 <__swbuf_r>
80003048:	57fd                	li	a5,-1
8000304a:	02f50863          	beq	a0,a5,8000307a <_puts_r+0x8c>
8000304e:	4529                	li	a0,10
80003050:	a035                	j	8000307c <_puts_r+0x8e>
80003052:	00003797          	auipc	a5,0x3
80003056:	24a78793          	addi	a5,a5,586 # 8000629c <__sf_fake_stdout>
8000305a:	00f41463          	bne	s0,a5,80003062 <_puts_r+0x74>
8000305e:	4480                	lw	s0,8(s1)
80003060:	b7c1                	j	80003020 <_puts_r+0x32>
80003062:	00003797          	auipc	a5,0x3
80003066:	1fa78793          	addi	a5,a5,506 # 8000625c <__sf_fake_stderr>
8000306a:	faf41be3          	bne	s0,a5,80003020 <_puts_r+0x32>
8000306e:	44c0                	lw	s0,12(s1)
80003070:	bf45                	j	80003020 <_puts_r+0x32>
80003072:	85a2                	mv	a1,s0
80003074:	8526                	mv	a0,s1
80003076:	2a7d                	jal	80003234 <__swsetup_r>
80003078:	d955                	beqz	a0,8000302c <_puts_r+0x3e>
8000307a:	557d                	li	a0,-1
8000307c:	40f2                	lw	ra,28(sp)
8000307e:	4462                	lw	s0,24(sp)
80003080:	44d2                	lw	s1,20(sp)
80003082:	4942                	lw	s2,16(sp)
80003084:	49b2                	lw	s3,12(sp)
80003086:	4a22                	lw	s4,8(sp)
80003088:	6105                	addi	sp,sp,32
8000308a:	8082                	ret
8000308c:	c41c                	sw	a5,8(s0)
8000308e:	0905                	addi	s2,s2,1
80003090:	0007d763          	bgez	a5,8000309e <_puts_r+0xb0>
80003094:	4c18                	lw	a4,24(s0)
80003096:	00e7cb63          	blt	a5,a4,800030ac <_puts_r+0xbe>
8000309a:	01458963          	beq	a1,s4,800030ac <_puts_r+0xbe>
8000309e:	401c                	lw	a5,0(s0)
800030a0:	00178713          	addi	a4,a5,1
800030a4:	c018                	sw	a4,0(s0)
800030a6:	00b78023          	sb	a1,0(a5)
800030aa:	b759                	j	80003030 <_puts_r+0x42>
800030ac:	8622                	mv	a2,s0
800030ae:	8526                	mv	a0,s1
800030b0:	20d1                	jal	80003174 <__swbuf_r>
800030b2:	f7351fe3          	bne	a0,s3,80003030 <_puts_r+0x42>
800030b6:	b7d1                	j	8000307a <_puts_r+0x8c>
800030b8:	401c                	lw	a5,0(s0)
800030ba:	00178713          	addi	a4,a5,1
800030be:	c018                	sw	a4,0(s0)
800030c0:	4729                	li	a4,10
800030c2:	00e78023          	sb	a4,0(a5)
800030c6:	b761                	j	8000304e <_puts_r+0x60>

800030c8 <puts>:
puts():
800030c8:	85aa                	mv	a1,a0
800030ca:	8101a503          	lw	a0,-2032(gp) # 90000070 <_impure_ptr>
800030ce:	b705                	j	80002fee <_puts_r>

800030d0 <rand>:
rand():
800030d0:	1141                	addi	sp,sp,-16
800030d2:	c422                	sw	s0,8(sp)
800030d4:	8101a403          	lw	s0,-2032(gp) # 90000070 <_impure_ptr>
800030d8:	5c1c                	lw	a5,56(s0)
800030da:	c606                	sw	ra,12(sp)
800030dc:	eba1                	bnez	a5,8000312c <rand+0x5c>
800030de:	4561                	li	a0,24
800030e0:	7f2000ef          	jal	ra,800038d2 <malloc>
800030e4:	dc08                	sw	a0,56(s0)
800030e6:	ed09                	bnez	a0,80003100 <rand+0x30>
800030e8:	00003697          	auipc	a3,0x3
800030ec:	0c868693          	addi	a3,a3,200 # 800061b0 <__clz_tab+0x100>
800030f0:	4601                	li	a2,0
800030f2:	04e00593          	li	a1,78
800030f6:	00003517          	auipc	a0,0x3
800030fa:	0d250513          	addi	a0,a0,210 # 800061c8 <__clz_tab+0x118>
800030fe:	2c45                	jal	800033ae <__assert_func>
80003100:	abcd37b7          	lui	a5,0xabcd3
80003104:	30e78793          	addi	a5,a5,782 # abcd330e <_sp+0x1bccb30e>
80003108:	c11c                	sw	a5,0(a0)
8000310a:	e66d17b7          	lui	a5,0xe66d1
8000310e:	23478793          	addi	a5,a5,564 # e66d1234 <_sp+0x566c9234>
80003112:	c15c                	sw	a5,4(a0)
80003114:	0005e7b7          	lui	a5,0x5e
80003118:	eec78793          	addi	a5,a5,-276 # 5deec <__stack_size+0x5d6ec>
8000311c:	c51c                	sw	a5,8(a0)
8000311e:	47ad                	li	a5,11
80003120:	00f51623          	sh	a5,12(a0)
80003124:	4705                	li	a4,1
80003126:	4781                	li	a5,0
80003128:	c918                	sw	a4,16(a0)
8000312a:	c95c                	sw	a5,20(a0)
8000312c:	5c10                	lw	a2,56(s0)
8000312e:	4c958737          	lui	a4,0x4c958
80003132:	5851f7b7          	lui	a5,0x5851f
80003136:	4a14                	lw	a3,16(a2)
80003138:	4a48                	lw	a0,20(a2)
8000313a:	f2d70713          	addi	a4,a4,-211 # 4c957f2d <__stack_size+0x4c95772d>
8000313e:	42d78793          	addi	a5,a5,1069 # 5851f42d <__stack_size+0x5851ec2d>
80003142:	02f687b3          	mul	a5,a3,a5
80003146:	40b2                	lw	ra,12(sp)
80003148:	4422                	lw	s0,8(sp)
8000314a:	02e50533          	mul	a0,a0,a4
8000314e:	953e                	add	a0,a0,a5
80003150:	02e687b3          	mul	a5,a3,a4
80003154:	02e6b733          	mulhu	a4,a3,a4
80003158:	00178693          	addi	a3,a5,1
8000315c:	ca14                	sw	a3,16(a2)
8000315e:	972a                	add	a4,a4,a0
80003160:	00f6b533          	sltu	a0,a3,a5
80003164:	953a                	add	a0,a0,a4
80003166:	ca48                	sw	a0,20(a2)
80003168:	0506                	slli	a0,a0,0x1
8000316a:	8105                	srli	a0,a0,0x1
8000316c:	0141                	addi	sp,sp,16
8000316e:	8082                	ret

80003170 <isatty>:
isatty():
80003170:	f95fc06f          	j	80000104 <_isatty>

80003174 <__swbuf_r>:
__swbuf_r():
80003174:	1101                	addi	sp,sp,-32
80003176:	cc22                	sw	s0,24(sp)
80003178:	ca26                	sw	s1,20(sp)
8000317a:	c84a                	sw	s2,16(sp)
8000317c:	ce06                	sw	ra,28(sp)
8000317e:	c64e                	sw	s3,12(sp)
80003180:	84aa                	mv	s1,a0
80003182:	892e                	mv	s2,a1
80003184:	8432                	mv	s0,a2
80003186:	c501                	beqz	a0,8000318e <__swbuf_r+0x1a>
80003188:	4d1c                	lw	a5,24(a0)
8000318a:	e391                	bnez	a5,8000318e <__swbuf_r+0x1a>
8000318c:	297d                	jal	8000364a <__sinit>
8000318e:	00003797          	auipc	a5,0x3
80003192:	0ee78793          	addi	a5,a5,238 # 8000627c <__sf_fake_stdin>
80003196:	06f41963          	bne	s0,a5,80003208 <__swbuf_r+0x94>
8000319a:	40c0                	lw	s0,4(s1)
8000319c:	4c1c                	lw	a5,24(s0)
8000319e:	c41c                	sw	a5,8(s0)
800031a0:	00c45783          	lhu	a5,12(s0)
800031a4:	8ba1                	andi	a5,a5,8
800031a6:	c3c9                	beqz	a5,80003228 <__swbuf_r+0xb4>
800031a8:	481c                	lw	a5,16(s0)
800031aa:	cfbd                	beqz	a5,80003228 <__swbuf_r+0xb4>
800031ac:	481c                	lw	a5,16(s0)
800031ae:	4008                	lw	a0,0(s0)
800031b0:	0ff97993          	zext.b	s3,s2
800031b4:	0ff97913          	zext.b	s2,s2
800031b8:	8d1d                	sub	a0,a0,a5
800031ba:	485c                	lw	a5,20(s0)
800031bc:	00f54663          	blt	a0,a5,800031c8 <__swbuf_r+0x54>
800031c0:	85a2                	mv	a1,s0
800031c2:	8526                	mv	a0,s1
800031c4:	26a5                	jal	8000352c <_fflush_r>
800031c6:	e52d                	bnez	a0,80003230 <__swbuf_r+0xbc>
800031c8:	441c                	lw	a5,8(s0)
800031ca:	0505                	addi	a0,a0,1
800031cc:	17fd                	addi	a5,a5,-1
800031ce:	c41c                	sw	a5,8(s0)
800031d0:	401c                	lw	a5,0(s0)
800031d2:	00178713          	addi	a4,a5,1
800031d6:	c018                	sw	a4,0(s0)
800031d8:	01378023          	sb	s3,0(a5)
800031dc:	485c                	lw	a5,20(s0)
800031de:	00a78963          	beq	a5,a0,800031f0 <__swbuf_r+0x7c>
800031e2:	00c45783          	lhu	a5,12(s0)
800031e6:	8b85                	andi	a5,a5,1
800031e8:	cb81                	beqz	a5,800031f8 <__swbuf_r+0x84>
800031ea:	47a9                	li	a5,10
800031ec:	00f91663          	bne	s2,a5,800031f8 <__swbuf_r+0x84>
800031f0:	85a2                	mv	a1,s0
800031f2:	8526                	mv	a0,s1
800031f4:	2e25                	jal	8000352c <_fflush_r>
800031f6:	ed0d                	bnez	a0,80003230 <__swbuf_r+0xbc>
800031f8:	40f2                	lw	ra,28(sp)
800031fa:	4462                	lw	s0,24(sp)
800031fc:	44d2                	lw	s1,20(sp)
800031fe:	49b2                	lw	s3,12(sp)
80003200:	854a                	mv	a0,s2
80003202:	4942                	lw	s2,16(sp)
80003204:	6105                	addi	sp,sp,32
80003206:	8082                	ret
80003208:	00003797          	auipc	a5,0x3
8000320c:	09478793          	addi	a5,a5,148 # 8000629c <__sf_fake_stdout>
80003210:	00f41463          	bne	s0,a5,80003218 <__swbuf_r+0xa4>
80003214:	4480                	lw	s0,8(s1)
80003216:	b759                	j	8000319c <__swbuf_r+0x28>
80003218:	00003797          	auipc	a5,0x3
8000321c:	04478793          	addi	a5,a5,68 # 8000625c <__sf_fake_stderr>
80003220:	f6f41ee3          	bne	s0,a5,8000319c <__swbuf_r+0x28>
80003224:	44c0                	lw	s0,12(s1)
80003226:	bf9d                	j	8000319c <__swbuf_r+0x28>
80003228:	85a2                	mv	a1,s0
8000322a:	8526                	mv	a0,s1
8000322c:	2021                	jal	80003234 <__swsetup_r>
8000322e:	dd3d                	beqz	a0,800031ac <__swbuf_r+0x38>
80003230:	597d                	li	s2,-1
80003232:	b7d9                	j	800031f8 <__swbuf_r+0x84>

80003234 <__swsetup_r>:
__swsetup_r():
80003234:	1141                	addi	sp,sp,-16
80003236:	c422                	sw	s0,8(sp)
80003238:	c226                	sw	s1,4(sp)
8000323a:	c04a                	sw	s2,0(sp)
8000323c:	c606                	sw	ra,12(sp)
8000323e:	8101a483          	lw	s1,-2032(gp) # 90000070 <_impure_ptr>
80003242:	892a                	mv	s2,a0
80003244:	842e                	mv	s0,a1
80003246:	c489                	beqz	s1,80003250 <__swsetup_r+0x1c>
80003248:	4c9c                	lw	a5,24(s1)
8000324a:	e399                	bnez	a5,80003250 <__swsetup_r+0x1c>
8000324c:	8526                	mv	a0,s1
8000324e:	2ef5                	jal	8000364a <__sinit>
80003250:	00003797          	auipc	a5,0x3
80003254:	02c78793          	addi	a5,a5,44 # 8000627c <__sf_fake_stdin>
80003258:	02f41763          	bne	s0,a5,80003286 <__swsetup_r+0x52>
8000325c:	40c0                	lw	s0,4(s1)
8000325e:	00c41783          	lh	a5,12(s0)
80003262:	01079713          	slli	a4,a5,0x10
80003266:	0087f693          	andi	a3,a5,8
8000326a:	8341                	srli	a4,a4,0x10
8000326c:	eaad                	bnez	a3,800032de <__swsetup_r+0xaa>
8000326e:	01077693          	andi	a3,a4,16
80003272:	ea95                	bnez	a3,800032a6 <__swsetup_r+0x72>
80003274:	4725                	li	a4,9
80003276:	00e92023          	sw	a4,0(s2)
8000327a:	0407e793          	ori	a5,a5,64
8000327e:	00f41623          	sh	a5,12(s0)
80003282:	557d                	li	a0,-1
80003284:	a871                	j	80003320 <__swsetup_r+0xec>
80003286:	00003797          	auipc	a5,0x3
8000328a:	01678793          	addi	a5,a5,22 # 8000629c <__sf_fake_stdout>
8000328e:	00f41463          	bne	s0,a5,80003296 <__swsetup_r+0x62>
80003292:	4480                	lw	s0,8(s1)
80003294:	b7e9                	j	8000325e <__swsetup_r+0x2a>
80003296:	00003797          	auipc	a5,0x3
8000329a:	fc678793          	addi	a5,a5,-58 # 8000625c <__sf_fake_stderr>
8000329e:	fcf410e3          	bne	s0,a5,8000325e <__swsetup_r+0x2a>
800032a2:	44c0                	lw	s0,12(s1)
800032a4:	bf6d                	j	8000325e <__swsetup_r+0x2a>
800032a6:	8b11                	andi	a4,a4,4
800032a8:	c70d                	beqz	a4,800032d2 <__swsetup_r+0x9e>
800032aa:	584c                	lw	a1,52(s0)
800032ac:	c989                	beqz	a1,800032be <__swsetup_r+0x8a>
800032ae:	04440793          	addi	a5,s0,68
800032b2:	00f58463          	beq	a1,a5,800032ba <__swsetup_r+0x86>
800032b6:	854a                	mv	a0,s2
800032b8:	250d                	jal	800038da <_free_r>
800032ba:	02042a23          	sw	zero,52(s0)
800032be:	00c45783          	lhu	a5,12(s0)
800032c2:	00042223          	sw	zero,4(s0)
800032c6:	fdb7f793          	andi	a5,a5,-37
800032ca:	00f41623          	sh	a5,12(s0)
800032ce:	481c                	lw	a5,16(s0)
800032d0:	c01c                	sw	a5,0(s0)
800032d2:	00c45783          	lhu	a5,12(s0)
800032d6:	0087e793          	ori	a5,a5,8
800032da:	00f41623          	sh	a5,12(s0)
800032de:	481c                	lw	a5,16(s0)
800032e0:	ef81                	bnez	a5,800032f8 <__swsetup_r+0xc4>
800032e2:	00c45783          	lhu	a5,12(s0)
800032e6:	20000713          	li	a4,512
800032ea:	2807f793          	andi	a5,a5,640
800032ee:	00e78563          	beq	a5,a4,800032f8 <__swsetup_r+0xc4>
800032f2:	85a2                	mv	a1,s0
800032f4:	854a                	mv	a0,s2
800032f6:	2b3d                	jal	80003834 <__smakebuf_r>
800032f8:	00c41783          	lh	a5,12(s0)
800032fc:	01079713          	slli	a4,a5,0x10
80003300:	0017f693          	andi	a3,a5,1
80003304:	8341                	srli	a4,a4,0x10
80003306:	c29d                	beqz	a3,8000332c <__swsetup_r+0xf8>
80003308:	4854                	lw	a3,20(s0)
8000330a:	00042423          	sw	zero,8(s0)
8000330e:	40d006b3          	neg	a3,a3
80003312:	cc14                	sw	a3,24(s0)
80003314:	4814                	lw	a3,16(s0)
80003316:	4501                	li	a0,0
80003318:	e681                	bnez	a3,80003320 <__swsetup_r+0xec>
8000331a:	08077713          	andi	a4,a4,128
8000331e:	ff31                	bnez	a4,8000327a <__swsetup_r+0x46>
80003320:	40b2                	lw	ra,12(sp)
80003322:	4422                	lw	s0,8(sp)
80003324:	4492                	lw	s1,4(sp)
80003326:	4902                	lw	s2,0(sp)
80003328:	0141                	addi	sp,sp,16
8000332a:	8082                	ret
8000332c:	00277693          	andi	a3,a4,2
80003330:	4601                	li	a2,0
80003332:	e291                	bnez	a3,80003336 <__swsetup_r+0x102>
80003334:	4850                	lw	a2,20(s0)
80003336:	c410                	sw	a2,8(s0)
80003338:	bff1                	j	80003314 <__swsetup_r+0xe0>

8000333a <__register_exitproc>:
__register_exitproc():
8000333a:	88aa                	mv	a7,a0
8000333c:	83418513          	addi	a0,gp,-1996 # 90000094 <_global_atexit>
80003340:	411c                	lw	a5,0(a0)
80003342:	ef81                	bnez	a5,8000335a <__register_exitproc+0x20>
80003344:	a7818713          	addi	a4,gp,-1416 # 900002d8 <_global_atexit0>
80003348:	c118                	sw	a4,0(a0)
8000334a:	00000513          	li	a0,0
8000334e:	87ba                	mv	a5,a4
80003350:	c509                	beqz	a0,8000335a <__register_exitproc+0x20>
80003352:	411c                	lw	a5,0(a0)
80003354:	08f72423          	sw	a5,136(a4)
80003358:	87ba                	mv	a5,a4
8000335a:	43d8                	lw	a4,4(a5)
8000335c:	487d                	li	a6,31
8000335e:	557d                	li	a0,-1
80003360:	04e84663          	blt	a6,a4,800033ac <__register_exitproc+0x72>
80003364:	02088d63          	beqz	a7,8000339e <__register_exitproc+0x64>
80003368:	0887a803          	lw	a6,136(a5)
8000336c:	04080063          	beqz	a6,800033ac <__register_exitproc+0x72>
80003370:	00271513          	slli	a0,a4,0x2
80003374:	9542                	add	a0,a0,a6
80003376:	c110                	sw	a2,0(a0)
80003378:	10082303          	lw	t1,256(a6)
8000337c:	4605                	li	a2,1
8000337e:	00e61633          	sll	a2,a2,a4
80003382:	00c36333          	or	t1,t1,a2
80003386:	10682023          	sw	t1,256(a6)
8000338a:	08d52023          	sw	a3,128(a0)
8000338e:	4689                	li	a3,2
80003390:	00d89763          	bne	a7,a3,8000339e <__register_exitproc+0x64>
80003394:	10482683          	lw	a3,260(a6)
80003398:	8e55                	or	a2,a2,a3
8000339a:	10c82223          	sw	a2,260(a6)
8000339e:	00170693          	addi	a3,a4,1
800033a2:	070a                	slli	a4,a4,0x2
800033a4:	c3d4                	sw	a3,4(a5)
800033a6:	97ba                	add	a5,a5,a4
800033a8:	c78c                	sw	a1,8(a5)
800033aa:	4501                	li	a0,0
800033ac:	8082                	ret

800033ae <__assert_func>:
__assert_func():
800033ae:	1141                	addi	sp,sp,-16
800033b0:	8101a783          	lw	a5,-2032(gp) # 90000070 <_impure_ptr>
800033b4:	8832                	mv	a6,a2
800033b6:	c606                	sw	ra,12(sp)
800033b8:	88aa                	mv	a7,a0
800033ba:	872e                	mv	a4,a1
800033bc:	47c8                	lw	a0,12(a5)
800033be:	8636                	mv	a2,a3
800033c0:	00003797          	auipc	a5,0x3
800033c4:	e5c78793          	addi	a5,a5,-420 # 8000621c <__clz_tab+0x16c>
800033c8:	00081763          	bnez	a6,800033d6 <__assert_func+0x28>
800033cc:	00001797          	auipc	a5,0x1
800033d0:	03c78793          	addi	a5,a5,60 # 80004408 <_getpid_r+0x98>
800033d4:	883e                	mv	a6,a5
800033d6:	86c6                	mv	a3,a7
800033d8:	00003597          	auipc	a1,0x3
800033dc:	e5458593          	addi	a1,a1,-428 # 8000622c <__clz_tab+0x17c>
800033e0:	26ad                	jal	8000374a <fiprintf>
800033e2:	5fd000ef          	jal	ra,800041de <abort>

800033e6 <__sflush_r>:
__sflush_r():
800033e6:	00c5d783          	lhu	a5,12(a1)
800033ea:	1101                	addi	sp,sp,-32
800033ec:	cc22                	sw	s0,24(sp)
800033ee:	ca26                	sw	s1,20(sp)
800033f0:	ce06                	sw	ra,28(sp)
800033f2:	c84a                	sw	s2,16(sp)
800033f4:	c64e                	sw	s3,12(sp)
800033f6:	0087f713          	andi	a4,a5,8
800033fa:	84aa                	mv	s1,a0
800033fc:	842e                	mv	s0,a1
800033fe:	e375                	bnez	a4,800034e2 <__sflush_r+0xfc>
80003400:	41d8                	lw	a4,4(a1)
80003402:	00e04763          	bgtz	a4,80003410 <__sflush_r+0x2a>
80003406:	41b8                	lw	a4,64(a1)
80003408:	00e04463          	bgtz	a4,80003410 <__sflush_r+0x2a>
8000340c:	4501                	li	a0,0
8000340e:	a875                	j	800034ca <__sflush_r+0xe4>
80003410:	5458                	lw	a4,44(s0)
80003412:	df6d                	beqz	a4,8000340c <__sflush_r+0x26>
80003414:	6685                	lui	a3,0x1
80003416:	0004a903          	lw	s2,0(s1)
8000341a:	8ff5                	and	a5,a5,a3
8000341c:	0004a023          	sw	zero,0(s1)
80003420:	cfa5                	beqz	a5,80003498 <__sflush_r+0xb2>
80003422:	4868                	lw	a0,84(s0)
80003424:	00c45783          	lhu	a5,12(s0)
80003428:	8b91                	andi	a5,a5,4
8000342a:	c799                	beqz	a5,80003438 <__sflush_r+0x52>
8000342c:	405c                	lw	a5,4(s0)
8000342e:	8d1d                	sub	a0,a0,a5
80003430:	585c                	lw	a5,52(s0)
80003432:	c399                	beqz	a5,80003438 <__sflush_r+0x52>
80003434:	403c                	lw	a5,64(s0)
80003436:	8d1d                	sub	a0,a0,a5
80003438:	545c                	lw	a5,44(s0)
8000343a:	500c                	lw	a1,32(s0)
8000343c:	862a                	mv	a2,a0
8000343e:	4681                	li	a3,0
80003440:	8526                	mv	a0,s1
80003442:	9782                	jalr	a5
80003444:	57fd                	li	a5,-1
80003446:	00c45703          	lhu	a4,12(s0)
8000344a:	00f51d63          	bne	a0,a5,80003464 <__sflush_r+0x7e>
8000344e:	4094                	lw	a3,0(s1)
80003450:	47f5                	li	a5,29
80003452:	08d7e363          	bltu	a5,a3,800034d8 <__sflush_r+0xf2>
80003456:	204007b7          	lui	a5,0x20400
8000345a:	0785                	addi	a5,a5,1
8000345c:	00d7d7b3          	srl	a5,a5,a3
80003460:	8b85                	andi	a5,a5,1
80003462:	cbbd                	beqz	a5,800034d8 <__sflush_r+0xf2>
80003464:	481c                	lw	a5,16(s0)
80003466:	00042223          	sw	zero,4(s0)
8000346a:	c01c                	sw	a5,0(s0)
8000346c:	6785                	lui	a5,0x1
8000346e:	8f7d                	and	a4,a4,a5
80003470:	c719                	beqz	a4,8000347e <__sflush_r+0x98>
80003472:	57fd                	li	a5,-1
80003474:	00f51463          	bne	a0,a5,8000347c <__sflush_r+0x96>
80003478:	409c                	lw	a5,0(s1)
8000347a:	e391                	bnez	a5,8000347e <__sflush_r+0x98>
8000347c:	c868                	sw	a0,84(s0)
8000347e:	584c                	lw	a1,52(s0)
80003480:	0124a023          	sw	s2,0(s1)
80003484:	d5c1                	beqz	a1,8000340c <__sflush_r+0x26>
80003486:	04440793          	addi	a5,s0,68
8000348a:	00f58463          	beq	a1,a5,80003492 <__sflush_r+0xac>
8000348e:	8526                	mv	a0,s1
80003490:	21a9                	jal	800038da <_free_r>
80003492:	02042a23          	sw	zero,52(s0)
80003496:	bf9d                	j	8000340c <__sflush_r+0x26>
80003498:	500c                	lw	a1,32(s0)
8000349a:	4685                	li	a3,1
8000349c:	4601                	li	a2,0
8000349e:	8526                	mv	a0,s1
800034a0:	9702                	jalr	a4
800034a2:	57fd                	li	a5,-1
800034a4:	f8f510e3          	bne	a0,a5,80003424 <__sflush_r+0x3e>
800034a8:	409c                	lw	a5,0(s1)
800034aa:	dfad                	beqz	a5,80003424 <__sflush_r+0x3e>
800034ac:	4775                	li	a4,29
800034ae:	00e78563          	beq	a5,a4,800034b8 <__sflush_r+0xd2>
800034b2:	4759                	li	a4,22
800034b4:	00e79563          	bne	a5,a4,800034be <__sflush_r+0xd8>
800034b8:	0124a023          	sw	s2,0(s1)
800034bc:	bf81                	j	8000340c <__sflush_r+0x26>
800034be:	00c45783          	lhu	a5,12(s0)
800034c2:	0407e793          	ori	a5,a5,64
800034c6:	00f41623          	sh	a5,12(s0)
800034ca:	40f2                	lw	ra,28(sp)
800034cc:	4462                	lw	s0,24(sp)
800034ce:	44d2                	lw	s1,20(sp)
800034d0:	4942                	lw	s2,16(sp)
800034d2:	49b2                	lw	s3,12(sp)
800034d4:	6105                	addi	sp,sp,32
800034d6:	8082                	ret
800034d8:	04076713          	ori	a4,a4,64
800034dc:	00e41623          	sh	a4,12(s0)
800034e0:	b7ed                	j	800034ca <__sflush_r+0xe4>
800034e2:	0105a983          	lw	s3,16(a1)
800034e6:	f20983e3          	beqz	s3,8000340c <__sflush_r+0x26>
800034ea:	0005a903          	lw	s2,0(a1)
800034ee:	8b8d                	andi	a5,a5,3
800034f0:	0135a023          	sw	s3,0(a1)
800034f4:	41390933          	sub	s2,s2,s3
800034f8:	4701                	li	a4,0
800034fa:	e391                	bnez	a5,800034fe <__sflush_r+0x118>
800034fc:	49d8                	lw	a4,20(a1)
800034fe:	c418                	sw	a4,8(s0)
80003500:	f12056e3          	blez	s2,8000340c <__sflush_r+0x26>
80003504:	541c                	lw	a5,40(s0)
80003506:	500c                	lw	a1,32(s0)
80003508:	86ca                	mv	a3,s2
8000350a:	864e                	mv	a2,s3
8000350c:	8526                	mv	a0,s1
8000350e:	9782                	jalr	a5
80003510:	00a04a63          	bgtz	a0,80003524 <__sflush_r+0x13e>
80003514:	00c45783          	lhu	a5,12(s0)
80003518:	557d                	li	a0,-1
8000351a:	0407e793          	ori	a5,a5,64
8000351e:	00f41623          	sh	a5,12(s0)
80003522:	b765                	j	800034ca <__sflush_r+0xe4>
80003524:	99aa                	add	s3,s3,a0
80003526:	40a90933          	sub	s2,s2,a0
8000352a:	bfd9                	j	80003500 <__sflush_r+0x11a>

8000352c <_fflush_r>:
_fflush_r():
8000352c:	499c                	lw	a5,16(a1)
8000352e:	cfb9                	beqz	a5,8000358c <_fflush_r+0x60>
80003530:	1101                	addi	sp,sp,-32
80003532:	cc22                	sw	s0,24(sp)
80003534:	ce06                	sw	ra,28(sp)
80003536:	842a                	mv	s0,a0
80003538:	c511                	beqz	a0,80003544 <_fflush_r+0x18>
8000353a:	4d1c                	lw	a5,24(a0)
8000353c:	e781                	bnez	a5,80003544 <_fflush_r+0x18>
8000353e:	c62e                	sw	a1,12(sp)
80003540:	2229                	jal	8000364a <__sinit>
80003542:	45b2                	lw	a1,12(sp)
80003544:	00003797          	auipc	a5,0x3
80003548:	d3878793          	addi	a5,a5,-712 # 8000627c <__sf_fake_stdin>
8000354c:	00f59b63          	bne	a1,a5,80003562 <_fflush_r+0x36>
80003550:	404c                	lw	a1,4(s0)
80003552:	00c59783          	lh	a5,12(a1)
80003556:	c795                	beqz	a5,80003582 <_fflush_r+0x56>
80003558:	8522                	mv	a0,s0
8000355a:	4462                	lw	s0,24(sp)
8000355c:	40f2                	lw	ra,28(sp)
8000355e:	6105                	addi	sp,sp,32
80003560:	b559                	j	800033e6 <__sflush_r>
80003562:	00003797          	auipc	a5,0x3
80003566:	d3a78793          	addi	a5,a5,-710 # 8000629c <__sf_fake_stdout>
8000356a:	00f59463          	bne	a1,a5,80003572 <_fflush_r+0x46>
8000356e:	440c                	lw	a1,8(s0)
80003570:	b7cd                	j	80003552 <_fflush_r+0x26>
80003572:	00003797          	auipc	a5,0x3
80003576:	cea78793          	addi	a5,a5,-790 # 8000625c <__sf_fake_stderr>
8000357a:	fcf59ce3          	bne	a1,a5,80003552 <_fflush_r+0x26>
8000357e:	444c                	lw	a1,12(s0)
80003580:	bfc9                	j	80003552 <_fflush_r+0x26>
80003582:	40f2                	lw	ra,28(sp)
80003584:	4462                	lw	s0,24(sp)
80003586:	4501                	li	a0,0
80003588:	6105                	addi	sp,sp,32
8000358a:	8082                	ret
8000358c:	4501                	li	a0,0
8000358e:	8082                	ret

80003590 <std>:
std():
80003590:	1141                	addi	sp,sp,-16
80003592:	c422                	sw	s0,8(sp)
80003594:	c606                	sw	ra,12(sp)
80003596:	842a                	mv	s0,a0
80003598:	00b51623          	sh	a1,12(a0)
8000359c:	00c51723          	sh	a2,14(a0)
800035a0:	00052023          	sw	zero,0(a0)
800035a4:	00052223          	sw	zero,4(a0)
800035a8:	00052423          	sw	zero,8(a0)
800035ac:	06052223          	sw	zero,100(a0)
800035b0:	00052823          	sw	zero,16(a0)
800035b4:	00052a23          	sw	zero,20(a0)
800035b8:	00052c23          	sw	zero,24(a0)
800035bc:	4621                	li	a2,8
800035be:	4581                	li	a1,0
800035c0:	05c50513          	addi	a0,a0,92
800035c4:	949ff0ef          	jal	ra,80002f0c <memset>
800035c8:	00001797          	auipc	a5,0x1
800035cc:	b3078793          	addi	a5,a5,-1232 # 800040f8 <__sread>
800035d0:	d05c                	sw	a5,36(s0)
800035d2:	00001797          	auipc	a5,0x1
800035d6:	b5678793          	addi	a5,a5,-1194 # 80004128 <__swrite>
800035da:	d41c                	sw	a5,40(s0)
800035dc:	00001797          	auipc	a5,0x1
800035e0:	b9a78793          	addi	a5,a5,-1126 # 80004176 <__sseek>
800035e4:	d45c                	sw	a5,44(s0)
800035e6:	00001797          	auipc	a5,0x1
800035ea:	bc678793          	addi	a5,a5,-1082 # 800041ac <__sclose>
800035ee:	40b2                	lw	ra,12(sp)
800035f0:	d000                	sw	s0,32(s0)
800035f2:	d81c                	sw	a5,48(s0)
800035f4:	4422                	lw	s0,8(sp)
800035f6:	0141                	addi	sp,sp,16
800035f8:	8082                	ret

800035fa <_cleanup_r>:
_cleanup_r():
800035fa:	00000597          	auipc	a1,0x0
800035fe:	f3258593          	addi	a1,a1,-206 # 8000352c <_fflush_r>
80003602:	a2b5                	j	8000376e <_fwalk_reent>

80003604 <__sfmoreglue>:
__sfmoreglue():
80003604:	1141                	addi	sp,sp,-16
80003606:	c226                	sw	s1,4(sp)
80003608:	06800613          	li	a2,104
8000360c:	fff58493          	addi	s1,a1,-1
80003610:	02c484b3          	mul	s1,s1,a2
80003614:	c04a                	sw	s2,0(sp)
80003616:	892e                	mv	s2,a1
80003618:	c422                	sw	s0,8(sp)
8000361a:	c606                	sw	ra,12(sp)
8000361c:	07448593          	addi	a1,s1,116
80003620:	2eb1                	jal	8000397c <_malloc_r>
80003622:	842a                	mv	s0,a0
80003624:	cd01                	beqz	a0,8000363c <__sfmoreglue+0x38>
80003626:	00052023          	sw	zero,0(a0)
8000362a:	01252223          	sw	s2,4(a0)
8000362e:	0531                	addi	a0,a0,12
80003630:	c408                	sw	a0,8(s0)
80003632:	06848613          	addi	a2,s1,104
80003636:	4581                	li	a1,0
80003638:	8d5ff0ef          	jal	ra,80002f0c <memset>
8000363c:	40b2                	lw	ra,12(sp)
8000363e:	8522                	mv	a0,s0
80003640:	4422                	lw	s0,8(sp)
80003642:	4492                	lw	s1,4(sp)
80003644:	4902                	lw	s2,0(sp)
80003646:	0141                	addi	sp,sp,16
80003648:	8082                	ret

8000364a <__sinit>:
__sinit():
8000364a:	4d1c                	lw	a5,24(a0)
8000364c:	e3ad                	bnez	a5,800036ae <__sinit+0x64>
8000364e:	1141                	addi	sp,sp,-16
80003650:	c422                	sw	s0,8(sp)
80003652:	c606                	sw	ra,12(sp)
80003654:	00000797          	auipc	a5,0x0
80003658:	fa678793          	addi	a5,a5,-90 # 800035fa <_cleanup_r>
8000365c:	d51c                	sw	a5,40(a0)
8000365e:	04052423          	sw	zero,72(a0)
80003662:	04052623          	sw	zero,76(a0)
80003666:	04052823          	sw	zero,80(a0)
8000366a:	8241a783          	lw	a5,-2012(gp) # 90000084 <_global_impure_ptr>
8000366e:	842a                	mv	s0,a0
80003670:	00f51463          	bne	a0,a5,80003678 <__sinit+0x2e>
80003674:	4785                	li	a5,1
80003676:	cd1c                	sw	a5,24(a0)
80003678:	8522                	mv	a0,s0
8000367a:	281d                	jal	800036b0 <__sfp>
8000367c:	c048                	sw	a0,4(s0)
8000367e:	8522                	mv	a0,s0
80003680:	2805                	jal	800036b0 <__sfp>
80003682:	c408                	sw	a0,8(s0)
80003684:	8522                	mv	a0,s0
80003686:	202d                	jal	800036b0 <__sfp>
80003688:	c448                	sw	a0,12(s0)
8000368a:	4048                	lw	a0,4(s0)
8000368c:	4601                	li	a2,0
8000368e:	4591                	li	a1,4
80003690:	3701                	jal	80003590 <std>
80003692:	4408                	lw	a0,8(s0)
80003694:	4605                	li	a2,1
80003696:	45a5                	li	a1,9
80003698:	3de5                	jal	80003590 <std>
8000369a:	4448                	lw	a0,12(s0)
8000369c:	4609                	li	a2,2
8000369e:	45c9                	li	a1,18
800036a0:	3dc5                	jal	80003590 <std>
800036a2:	4785                	li	a5,1
800036a4:	40b2                	lw	ra,12(sp)
800036a6:	cc1c                	sw	a5,24(s0)
800036a8:	4422                	lw	s0,8(sp)
800036aa:	0141                	addi	sp,sp,16
800036ac:	8082                	ret
800036ae:	8082                	ret

800036b0 <__sfp>:
__sfp():
800036b0:	1141                	addi	sp,sp,-16
800036b2:	c226                	sw	s1,4(sp)
800036b4:	8241a483          	lw	s1,-2012(gp) # 90000084 <_global_impure_ptr>
800036b8:	4c9c                	lw	a5,24(s1)
800036ba:	c04a                	sw	s2,0(sp)
800036bc:	c606                	sw	ra,12(sp)
800036be:	c422                	sw	s0,8(sp)
800036c0:	892a                	mv	s2,a0
800036c2:	e399                	bnez	a5,800036c8 <__sfp+0x18>
800036c4:	8526                	mv	a0,s1
800036c6:	3751                	jal	8000364a <__sinit>
800036c8:	04848493          	addi	s1,s1,72
800036cc:	4480                	lw	s0,8(s1)
800036ce:	40dc                	lw	a5,4(s1)
800036d0:	17fd                	addi	a5,a5,-1
800036d2:	0007d663          	bgez	a5,800036de <__sfp+0x2e>
800036d6:	409c                	lw	a5,0(s1)
800036d8:	cfb9                	beqz	a5,80003736 <__sfp+0x86>
800036da:	4084                	lw	s1,0(s1)
800036dc:	bfc5                	j	800036cc <__sfp+0x1c>
800036de:	00c41703          	lh	a4,12(s0)
800036e2:	e739                	bnez	a4,80003730 <__sfp+0x80>
800036e4:	77c1                	lui	a5,0xffff0
800036e6:	0785                	addi	a5,a5,1
800036e8:	06042223          	sw	zero,100(s0)
800036ec:	00042023          	sw	zero,0(s0)
800036f0:	00042223          	sw	zero,4(s0)
800036f4:	00042423          	sw	zero,8(s0)
800036f8:	c45c                	sw	a5,12(s0)
800036fa:	00042823          	sw	zero,16(s0)
800036fe:	00042a23          	sw	zero,20(s0)
80003702:	00042c23          	sw	zero,24(s0)
80003706:	4621                	li	a2,8
80003708:	4581                	li	a1,0
8000370a:	05c40513          	addi	a0,s0,92
8000370e:	ffeff0ef          	jal	ra,80002f0c <memset>
80003712:	02042a23          	sw	zero,52(s0)
80003716:	02042c23          	sw	zero,56(s0)
8000371a:	04042423          	sw	zero,72(s0)
8000371e:	04042623          	sw	zero,76(s0)
80003722:	40b2                	lw	ra,12(sp)
80003724:	8522                	mv	a0,s0
80003726:	4422                	lw	s0,8(sp)
80003728:	4492                	lw	s1,4(sp)
8000372a:	4902                	lw	s2,0(sp)
8000372c:	0141                	addi	sp,sp,16
8000372e:	8082                	ret
80003730:	06840413          	addi	s0,s0,104
80003734:	bf71                	j	800036d0 <__sfp+0x20>
80003736:	4591                	li	a1,4
80003738:	854a                	mv	a0,s2
8000373a:	35e9                	jal	80003604 <__sfmoreglue>
8000373c:	c088                	sw	a0,0(s1)
8000373e:	842a                	mv	s0,a0
80003740:	fd49                	bnez	a0,800036da <__sfp+0x2a>
80003742:	47b1                	li	a5,12
80003744:	00f92023          	sw	a5,0(s2)
80003748:	bfe9                	j	80003722 <__sfp+0x72>

8000374a <fiprintf>:
fprintf():
8000374a:	7139                	addi	sp,sp,-64
8000374c:	d432                	sw	a2,40(sp)
8000374e:	d636                	sw	a3,44(sp)
80003750:	862e                	mv	a2,a1
80003752:	1034                	addi	a3,sp,40
80003754:	85aa                	mv	a1,a0
80003756:	8101a503          	lw	a0,-2032(gp) # 90000070 <_impure_ptr>
8000375a:	ce06                	sw	ra,28(sp)
8000375c:	d83a                	sw	a4,48(sp)
8000375e:	da3e                	sw	a5,52(sp)
80003760:	dc42                	sw	a6,56(sp)
80003762:	de46                	sw	a7,60(sp)
80003764:	c636                	sw	a3,12(sp)
80003766:	2ea1                	jal	80003abe <_vfiprintf_r>
80003768:	40f2                	lw	ra,28(sp)
8000376a:	6121                	addi	sp,sp,64
8000376c:	8082                	ret

8000376e <_fwalk_reent>:
_fwalk_reent():
8000376e:	7179                	addi	sp,sp,-48
80003770:	d422                	sw	s0,40(sp)
80003772:	d04a                	sw	s2,32(sp)
80003774:	ce4e                	sw	s3,28(sp)
80003776:	cc52                	sw	s4,24(sp)
80003778:	c85a                	sw	s6,16(sp)
8000377a:	c65e                	sw	s7,12(sp)
8000377c:	d606                	sw	ra,44(sp)
8000377e:	d226                	sw	s1,36(sp)
80003780:	ca56                	sw	s5,20(sp)
80003782:	892a                	mv	s2,a0
80003784:	8a2e                	mv	s4,a1
80003786:	04850413          	addi	s0,a0,72
8000378a:	4981                	li	s3,0
8000378c:	4b05                	li	s6,1
8000378e:	5bfd                	li	s7,-1
80003790:	4404                	lw	s1,8(s0)
80003792:	00442a83          	lw	s5,4(s0)
80003796:	1afd                	addi	s5,s5,-1
80003798:	020ad063          	bgez	s5,800037b8 <_fwalk_reent+0x4a>
8000379c:	4000                	lw	s0,0(s0)
8000379e:	f86d                	bnez	s0,80003790 <_fwalk_reent+0x22>
800037a0:	50b2                	lw	ra,44(sp)
800037a2:	5422                	lw	s0,40(sp)
800037a4:	5492                	lw	s1,36(sp)
800037a6:	5902                	lw	s2,32(sp)
800037a8:	4a62                	lw	s4,24(sp)
800037aa:	4ad2                	lw	s5,20(sp)
800037ac:	4b42                	lw	s6,16(sp)
800037ae:	4bb2                	lw	s7,12(sp)
800037b0:	854e                	mv	a0,s3
800037b2:	49f2                	lw	s3,28(sp)
800037b4:	6145                	addi	sp,sp,48
800037b6:	8082                	ret
800037b8:	00c4d783          	lhu	a5,12(s1)
800037bc:	00fb7b63          	bgeu	s6,a5,800037d2 <_fwalk_reent+0x64>
800037c0:	00e49783          	lh	a5,14(s1)
800037c4:	01778763          	beq	a5,s7,800037d2 <_fwalk_reent+0x64>
800037c8:	85a6                	mv	a1,s1
800037ca:	854a                	mv	a0,s2
800037cc:	9a02                	jalr	s4
800037ce:	00a9e9b3          	or	s3,s3,a0
800037d2:	06848493          	addi	s1,s1,104
800037d6:	b7c1                	j	80003796 <_fwalk_reent+0x28>

800037d8 <__swhatbuf_r>:
__swhatbuf_r():
800037d8:	7159                	addi	sp,sp,-112
800037da:	d0ca                	sw	s2,96(sp)
800037dc:	892e                	mv	s2,a1
800037de:	00e59583          	lh	a1,14(a1)
800037e2:	d4a2                	sw	s0,104(sp)
800037e4:	d2a6                	sw	s1,100(sp)
800037e6:	d686                	sw	ra,108(sp)
800037e8:	8432                	mv	s0,a2
800037ea:	84b6                	mv	s1,a3
800037ec:	0005dc63          	bgez	a1,80003804 <__swhatbuf_r+0x2c>
800037f0:	00c91783          	lh	a5,12(s2)
800037f4:	0004a023          	sw	zero,0(s1)
800037f8:	0807f793          	andi	a5,a5,128
800037fc:	e395                	bnez	a5,80003820 <__swhatbuf_r+0x48>
800037fe:	40000793          	li	a5,1024
80003802:	a00d                	j	80003824 <__swhatbuf_r+0x4c>
80003804:	0030                	addi	a2,sp,8
80003806:	20f000ef          	jal	ra,80004214 <_fstat_r>
8000380a:	fe0543e3          	bltz	a0,800037f0 <__swhatbuf_r+0x18>
8000380e:	4732                	lw	a4,12(sp)
80003810:	67bd                	lui	a5,0xf
80003812:	8ff9                	and	a5,a5,a4
80003814:	7779                	lui	a4,0xffffe
80003816:	97ba                	add	a5,a5,a4
80003818:	0017b793          	seqz	a5,a5
8000381c:	c09c                	sw	a5,0(s1)
8000381e:	b7c5                	j	800037fe <__swhatbuf_r+0x26>
80003820:	04000793          	li	a5,64
80003824:	50b6                	lw	ra,108(sp)
80003826:	c01c                	sw	a5,0(s0)
80003828:	5426                	lw	s0,104(sp)
8000382a:	5496                	lw	s1,100(sp)
8000382c:	5906                	lw	s2,96(sp)
8000382e:	4501                	li	a0,0
80003830:	6165                	addi	sp,sp,112
80003832:	8082                	ret

80003834 <__smakebuf_r>:
__smakebuf_r():
80003834:	00c5d783          	lhu	a5,12(a1)
80003838:	1101                	addi	sp,sp,-32
8000383a:	cc22                	sw	s0,24(sp)
8000383c:	ce06                	sw	ra,28(sp)
8000383e:	ca26                	sw	s1,20(sp)
80003840:	c84a                	sw	s2,16(sp)
80003842:	8b89                	andi	a5,a5,2
80003844:	842e                	mv	s0,a1
80003846:	cf89                	beqz	a5,80003860 <__smakebuf_r+0x2c>
80003848:	04740793          	addi	a5,s0,71
8000384c:	c01c                	sw	a5,0(s0)
8000384e:	c81c                	sw	a5,16(s0)
80003850:	4785                	li	a5,1
80003852:	c85c                	sw	a5,20(s0)
80003854:	40f2                	lw	ra,28(sp)
80003856:	4462                	lw	s0,24(sp)
80003858:	44d2                	lw	s1,20(sp)
8000385a:	4942                	lw	s2,16(sp)
8000385c:	6105                	addi	sp,sp,32
8000385e:	8082                	ret
80003860:	0074                	addi	a3,sp,12
80003862:	0030                	addi	a2,sp,8
80003864:	892a                	mv	s2,a0
80003866:	3f8d                	jal	800037d8 <__swhatbuf_r>
80003868:	45a2                	lw	a1,8(sp)
8000386a:	84aa                	mv	s1,a0
8000386c:	854a                	mv	a0,s2
8000386e:	2239                	jal	8000397c <_malloc_r>
80003870:	ed01                	bnez	a0,80003888 <__smakebuf_r+0x54>
80003872:	00c41783          	lh	a5,12(s0)
80003876:	2007f713          	andi	a4,a5,512
8000387a:	ff69                	bnez	a4,80003854 <__smakebuf_r+0x20>
8000387c:	9bf1                	andi	a5,a5,-4
8000387e:	0027e793          	ori	a5,a5,2
80003882:	00f41623          	sh	a5,12(s0)
80003886:	b7c9                	j	80003848 <__smakebuf_r+0x14>
80003888:	00000797          	auipc	a5,0x0
8000388c:	d7278793          	addi	a5,a5,-654 # 800035fa <_cleanup_r>
80003890:	02f92423          	sw	a5,40(s2)
80003894:	00c45783          	lhu	a5,12(s0)
80003898:	c008                	sw	a0,0(s0)
8000389a:	c808                	sw	a0,16(s0)
8000389c:	0807e793          	ori	a5,a5,128
800038a0:	00f41623          	sh	a5,12(s0)
800038a4:	47a2                	lw	a5,8(sp)
800038a6:	c85c                	sw	a5,20(s0)
800038a8:	47b2                	lw	a5,12(sp)
800038aa:	cf91                	beqz	a5,800038c6 <__smakebuf_r+0x92>
800038ac:	00e41583          	lh	a1,14(s0)
800038b0:	854a                	mv	a0,s2
800038b2:	18d000ef          	jal	ra,8000423e <_isatty_r>
800038b6:	c901                	beqz	a0,800038c6 <__smakebuf_r+0x92>
800038b8:	00c45783          	lhu	a5,12(s0)
800038bc:	9bf1                	andi	a5,a5,-4
800038be:	0017e793          	ori	a5,a5,1
800038c2:	00f41623          	sh	a5,12(s0)
800038c6:	00c45503          	lhu	a0,12(s0)
800038ca:	8cc9                	or	s1,s1,a0
800038cc:	00941623          	sh	s1,12(s0)
800038d0:	b751                	j	80003854 <__smakebuf_r+0x20>

800038d2 <malloc>:
malloc():
800038d2:	85aa                	mv	a1,a0
800038d4:	8101a503          	lw	a0,-2032(gp) # 90000070 <_impure_ptr>
800038d8:	a055                	j	8000397c <_malloc_r>

800038da <_free_r>:
_free_r():
800038da:	c1c5                	beqz	a1,8000397a <_free_r+0xa0>
800038dc:	ffc5a783          	lw	a5,-4(a1)
800038e0:	1101                	addi	sp,sp,-32
800038e2:	cc22                	sw	s0,24(sp)
800038e4:	ce06                	sw	ra,28(sp)
800038e6:	ffc58413          	addi	s0,a1,-4
800038ea:	0007d363          	bgez	a5,800038f0 <_free_r+0x16>
800038ee:	943e                	add	s0,s0,a5
800038f0:	c62a                	sw	a0,12(sp)
800038f2:	1bb000ef          	jal	ra,800042ac <__malloc_lock>
800038f6:	83818713          	addi	a4,gp,-1992 # 90000098 <__malloc_free_list>
800038fa:	431c                	lw	a5,0(a4)
800038fc:	4532                	lw	a0,12(sp)
800038fe:	eb89                	bnez	a5,80003910 <_free_r+0x36>
80003900:	00042223          	sw	zero,4(s0)
80003904:	c300                	sw	s0,0(a4)
80003906:	4462                	lw	s0,24(sp)
80003908:	40f2                	lw	ra,28(sp)
8000390a:	6105                	addi	sp,sp,32
8000390c:	1a30006f          	j	800042ae <__malloc_unlock>
80003910:	00f47d63          	bgeu	s0,a5,8000392a <_free_r+0x50>
80003914:	4010                	lw	a2,0(s0)
80003916:	00c406b3          	add	a3,s0,a2
8000391a:	00d79663          	bne	a5,a3,80003926 <_free_r+0x4c>
8000391e:	4394                	lw	a3,0(a5)
80003920:	43dc                	lw	a5,4(a5)
80003922:	96b2                	add	a3,a3,a2
80003924:	c014                	sw	a3,0(s0)
80003926:	c05c                	sw	a5,4(s0)
80003928:	bff1                	j	80003904 <_free_r+0x2a>
8000392a:	873e                	mv	a4,a5
8000392c:	43dc                	lw	a5,4(a5)
8000392e:	c399                	beqz	a5,80003934 <_free_r+0x5a>
80003930:	fef47de3          	bgeu	s0,a5,8000392a <_free_r+0x50>
80003934:	4314                	lw	a3,0(a4)
80003936:	00d70633          	add	a2,a4,a3
8000393a:	00861f63          	bne	a2,s0,80003958 <_free_r+0x7e>
8000393e:	4010                	lw	a2,0(s0)
80003940:	96b2                	add	a3,a3,a2
80003942:	c314                	sw	a3,0(a4)
80003944:	00d70633          	add	a2,a4,a3
80003948:	fac79fe3          	bne	a5,a2,80003906 <_free_r+0x2c>
8000394c:	4390                	lw	a2,0(a5)
8000394e:	43dc                	lw	a5,4(a5)
80003950:	96b2                	add	a3,a3,a2
80003952:	c314                	sw	a3,0(a4)
80003954:	c35c                	sw	a5,4(a4)
80003956:	bf45                	j	80003906 <_free_r+0x2c>
80003958:	00c47563          	bgeu	s0,a2,80003962 <_free_r+0x88>
8000395c:	47b1                	li	a5,12
8000395e:	c11c                	sw	a5,0(a0)
80003960:	b75d                	j	80003906 <_free_r+0x2c>
80003962:	4010                	lw	a2,0(s0)
80003964:	00c406b3          	add	a3,s0,a2
80003968:	00d79663          	bne	a5,a3,80003974 <_free_r+0x9a>
8000396c:	4394                	lw	a3,0(a5)
8000396e:	43dc                	lw	a5,4(a5)
80003970:	96b2                	add	a3,a3,a2
80003972:	c014                	sw	a3,0(s0)
80003974:	c05c                	sw	a5,4(s0)
80003976:	c340                	sw	s0,4(a4)
80003978:	b779                	j	80003906 <_free_r+0x2c>
8000397a:	8082                	ret

8000397c <_malloc_r>:
_malloc_r():
8000397c:	1101                	addi	sp,sp,-32
8000397e:	ca26                	sw	s1,20(sp)
80003980:	00358493          	addi	s1,a1,3
80003984:	98f1                	andi	s1,s1,-4
80003986:	c84a                	sw	s2,16(sp)
80003988:	ce06                	sw	ra,28(sp)
8000398a:	cc22                	sw	s0,24(sp)
8000398c:	c64e                	sw	s3,12(sp)
8000398e:	04a1                	addi	s1,s1,8
80003990:	47b1                	li	a5,12
80003992:	892a                	mv	s2,a0
80003994:	04f4f263          	bgeu	s1,a5,800039d8 <_malloc_r+0x5c>
80003998:	44b1                	li	s1,12
8000399a:	04b4e163          	bltu	s1,a1,800039dc <_malloc_r+0x60>
8000399e:	854a                	mv	a0,s2
800039a0:	10d000ef          	jal	ra,800042ac <__malloc_lock>
800039a4:	83818693          	addi	a3,gp,-1992 # 90000098 <__malloc_free_list>
800039a8:	4298                	lw	a4,0(a3)
800039aa:	843a                	mv	s0,a4
800039ac:	e039                	bnez	s0,800039f2 <_malloc_r+0x76>
800039ae:	83c18413          	addi	s0,gp,-1988 # 9000009c <__malloc_sbrk_start>
800039b2:	401c                	lw	a5,0(s0)
800039b4:	e789                	bnez	a5,800039be <_malloc_r+0x42>
800039b6:	4581                	li	a1,0
800039b8:	854a                	mv	a0,s2
800039ba:	2f19                	jal	800040d0 <_sbrk_r>
800039bc:	c008                	sw	a0,0(s0)
800039be:	85a6                	mv	a1,s1
800039c0:	854a                	mv	a0,s2
800039c2:	2739                	jal	800040d0 <_sbrk_r>
800039c4:	59fd                	li	s3,-1
800039c6:	07351a63          	bne	a0,s3,80003a3a <_malloc_r+0xbe>
800039ca:	47b1                	li	a5,12
800039cc:	00f92023          	sw	a5,0(s2)
800039d0:	854a                	mv	a0,s2
800039d2:	0dd000ef          	jal	ra,800042ae <__malloc_unlock>
800039d6:	a031                	j	800039e2 <_malloc_r+0x66>
800039d8:	fc04d1e3          	bgez	s1,8000399a <_malloc_r+0x1e>
800039dc:	47b1                	li	a5,12
800039de:	00f92023          	sw	a5,0(s2)
800039e2:	4501                	li	a0,0
800039e4:	40f2                	lw	ra,28(sp)
800039e6:	4462                	lw	s0,24(sp)
800039e8:	44d2                	lw	s1,20(sp)
800039ea:	4942                	lw	s2,16(sp)
800039ec:	49b2                	lw	s3,12(sp)
800039ee:	6105                	addi	sp,sp,32
800039f0:	8082                	ret
800039f2:	401c                	lw	a5,0(s0)
800039f4:	8f85                	sub	a5,a5,s1
800039f6:	0207cf63          	bltz	a5,80003a34 <_malloc_r+0xb8>
800039fa:	462d                	li	a2,11
800039fc:	00f67663          	bgeu	a2,a5,80003a08 <_malloc_r+0x8c>
80003a00:	c01c                	sw	a5,0(s0)
80003a02:	943e                	add	s0,s0,a5
80003a04:	c004                	sw	s1,0(s0)
80003a06:	a029                	j	80003a10 <_malloc_r+0x94>
80003a08:	405c                	lw	a5,4(s0)
80003a0a:	02871363          	bne	a4,s0,80003a30 <_malloc_r+0xb4>
80003a0e:	c29c                	sw	a5,0(a3)
80003a10:	854a                	mv	a0,s2
80003a12:	09d000ef          	jal	ra,800042ae <__malloc_unlock>
80003a16:	00b40513          	addi	a0,s0,11
80003a1a:	00440793          	addi	a5,s0,4
80003a1e:	9961                	andi	a0,a0,-8
80003a20:	40f50733          	sub	a4,a0,a5
80003a24:	fcf500e3          	beq	a0,a5,800039e4 <_malloc_r+0x68>
80003a28:	943a                	add	s0,s0,a4
80003a2a:	8f89                	sub	a5,a5,a0
80003a2c:	c01c                	sw	a5,0(s0)
80003a2e:	bf5d                	j	800039e4 <_malloc_r+0x68>
80003a30:	c35c                	sw	a5,4(a4)
80003a32:	bff9                	j	80003a10 <_malloc_r+0x94>
80003a34:	8722                	mv	a4,s0
80003a36:	4040                	lw	s0,4(s0)
80003a38:	bf95                	j	800039ac <_malloc_r+0x30>
80003a3a:	00350413          	addi	s0,a0,3
80003a3e:	9871                	andi	s0,s0,-4
80003a40:	fc8502e3          	beq	a0,s0,80003a04 <_malloc_r+0x88>
80003a44:	40a405b3          	sub	a1,s0,a0
80003a48:	854a                	mv	a0,s2
80003a4a:	2559                	jal	800040d0 <_sbrk_r>
80003a4c:	fb351ce3          	bne	a0,s3,80003a04 <_malloc_r+0x88>
80003a50:	bfad                	j	800039ca <_malloc_r+0x4e>

80003a52 <__sfputc_r>:
__sfputc_r():
80003a52:	461c                	lw	a5,8(a2)
80003a54:	17fd                	addi	a5,a5,-1
80003a56:	c61c                	sw	a5,8(a2)
80003a58:	0007da63          	bgez	a5,80003a6c <__sfputc_r+0x1a>
80003a5c:	4e18                	lw	a4,24(a2)
80003a5e:	00e7c563          	blt	a5,a4,80003a68 <__sfputc_r+0x16>
80003a62:	47a9                	li	a5,10
80003a64:	00f59463          	bne	a1,a5,80003a6c <__sfputc_r+0x1a>
80003a68:	f0cff06f          	j	80003174 <__swbuf_r>
80003a6c:	421c                	lw	a5,0(a2)
80003a6e:	852e                	mv	a0,a1
80003a70:	00178713          	addi	a4,a5,1
80003a74:	c218                	sw	a4,0(a2)
80003a76:	00b78023          	sb	a1,0(a5)
80003a7a:	8082                	ret

80003a7c <__sfputs_r>:
__sfputs_r():
80003a7c:	1101                	addi	sp,sp,-32
80003a7e:	cc22                	sw	s0,24(sp)
80003a80:	ca26                	sw	s1,20(sp)
80003a82:	c84a                	sw	s2,16(sp)
80003a84:	c64e                	sw	s3,12(sp)
80003a86:	c452                	sw	s4,8(sp)
80003a88:	ce06                	sw	ra,28(sp)
80003a8a:	892a                	mv	s2,a0
80003a8c:	89ae                	mv	s3,a1
80003a8e:	8432                	mv	s0,a2
80003a90:	00d604b3          	add	s1,a2,a3
80003a94:	5a7d                	li	s4,-1
80003a96:	00941463          	bne	s0,s1,80003a9e <__sfputs_r+0x22>
80003a9a:	4501                	li	a0,0
80003a9c:	a809                	j	80003aae <__sfputs_r+0x32>
80003a9e:	00044583          	lbu	a1,0(s0)
80003aa2:	864e                	mv	a2,s3
80003aa4:	854a                	mv	a0,s2
80003aa6:	3775                	jal	80003a52 <__sfputc_r>
80003aa8:	0405                	addi	s0,s0,1
80003aaa:	ff4516e3          	bne	a0,s4,80003a96 <__sfputs_r+0x1a>
80003aae:	40f2                	lw	ra,28(sp)
80003ab0:	4462                	lw	s0,24(sp)
80003ab2:	44d2                	lw	s1,20(sp)
80003ab4:	4942                	lw	s2,16(sp)
80003ab6:	49b2                	lw	s3,12(sp)
80003ab8:	4a22                	lw	s4,8(sp)
80003aba:	6105                	addi	sp,sp,32
80003abc:	8082                	ret

80003abe <_vfiprintf_r>:
_vfiprintf_r():
80003abe:	7135                	addi	sp,sp,-160
80003ac0:	cd22                	sw	s0,152(sp)
80003ac2:	cb26                	sw	s1,148(sp)
80003ac4:	c94a                	sw	s2,144(sp)
80003ac6:	c74e                	sw	s3,140(sp)
80003ac8:	cf06                	sw	ra,156(sp)
80003aca:	c552                	sw	s4,136(sp)
80003acc:	c356                	sw	s5,132(sp)
80003ace:	c15a                	sw	s6,128(sp)
80003ad0:	dede                	sw	s7,124(sp)
80003ad2:	dce2                	sw	s8,120(sp)
80003ad4:	dae6                	sw	s9,116(sp)
80003ad6:	89aa                	mv	s3,a0
80003ad8:	84ae                	mv	s1,a1
80003ada:	8932                	mv	s2,a2
80003adc:	8436                	mv	s0,a3
80003ade:	c509                	beqz	a0,80003ae8 <_vfiprintf_r+0x2a>
80003ae0:	4d1c                	lw	a5,24(a0)
80003ae2:	e399                	bnez	a5,80003ae8 <_vfiprintf_r+0x2a>
80003ae4:	b67ff0ef          	jal	ra,8000364a <__sinit>
80003ae8:	00002797          	auipc	a5,0x2
80003aec:	79478793          	addi	a5,a5,1940 # 8000627c <__sf_fake_stdin>
80003af0:	0cf49b63          	bne	s1,a5,80003bc6 <_vfiprintf_r+0x108>
80003af4:	0049a483          	lw	s1,4(s3)
80003af8:	00c4d783          	lhu	a5,12(s1)
80003afc:	8ba1                	andi	a5,a5,8
80003afe:	c7f5                	beqz	a5,80003bea <_vfiprintf_r+0x12c>
80003b00:	489c                	lw	a5,16(s1)
80003b02:	c7e5                	beqz	a5,80003bea <_vfiprintf_r+0x12c>
80003b04:	02000793          	li	a5,32
80003b08:	02f104a3          	sb	a5,41(sp)
80003b0c:	03000793          	li	a5,48
80003b10:	d202                	sw	zero,36(sp)
80003b12:	02f10523          	sb	a5,42(sp)
80003b16:	c622                	sw	s0,12(sp)
80003b18:	02500b93          	li	s7,37
80003b1c:	00002a97          	auipc	s5,0x2
80003b20:	7a0a8a93          	addi	s5,s5,1952 # 800062bc <__sf_fake_stdout+0x20>
80003b24:	4c05                	li	s8,1
80003b26:	4b29                	li	s6,10
80003b28:	844a                	mv	s0,s2
80003b2a:	00044783          	lbu	a5,0(s0)
80003b2e:	c399                	beqz	a5,80003b34 <_vfiprintf_r+0x76>
80003b30:	0f779063          	bne	a5,s7,80003c10 <_vfiprintf_r+0x152>
80003b34:	41240cb3          	sub	s9,s0,s2
80003b38:	01240d63          	beq	s0,s2,80003b52 <_vfiprintf_r+0x94>
80003b3c:	86e6                	mv	a3,s9
80003b3e:	864a                	mv	a2,s2
80003b40:	85a6                	mv	a1,s1
80003b42:	854e                	mv	a0,s3
80003b44:	3f25                	jal	80003a7c <__sfputs_r>
80003b46:	57fd                	li	a5,-1
80003b48:	1ef50463          	beq	a0,a5,80003d30 <_vfiprintf_r+0x272>
80003b4c:	5792                	lw	a5,36(sp)
80003b4e:	97e6                	add	a5,a5,s9
80003b50:	d23e                	sw	a5,36(sp)
80003b52:	00044783          	lbu	a5,0(s0)
80003b56:	1c078d63          	beqz	a5,80003d30 <_vfiprintf_r+0x272>
80003b5a:	57fd                	li	a5,-1
80003b5c:	00140913          	addi	s2,s0,1
80003b60:	c802                	sw	zero,16(sp)
80003b62:	ce02                	sw	zero,28(sp)
80003b64:	ca3e                	sw	a5,20(sp)
80003b66:	cc02                	sw	zero,24(sp)
80003b68:	040109a3          	sb	zero,83(sp)
80003b6c:	d482                	sw	zero,104(sp)
80003b6e:	00094583          	lbu	a1,0(s2)
80003b72:	4615                	li	a2,5
80003b74:	8556                	mv	a0,s5
80003b76:	2f31                	jal	80004292 <memchr>
80003b78:	47c2                	lw	a5,16(sp)
80003b7a:	00190413          	addi	s0,s2,1
80003b7e:	e959                	bnez	a0,80003c14 <_vfiprintf_r+0x156>
80003b80:	0107f713          	andi	a4,a5,16
80003b84:	c709                	beqz	a4,80003b8e <_vfiprintf_r+0xd0>
80003b86:	02000713          	li	a4,32
80003b8a:	04e109a3          	sb	a4,83(sp)
80003b8e:	0087f713          	andi	a4,a5,8
80003b92:	c709                	beqz	a4,80003b9c <_vfiprintf_r+0xde>
80003b94:	02b00713          	li	a4,43
80003b98:	04e109a3          	sb	a4,83(sp)
80003b9c:	00094683          	lbu	a3,0(s2)
80003ba0:	02a00713          	li	a4,42
80003ba4:	08e68063          	beq	a3,a4,80003c24 <_vfiprintf_r+0x166>
80003ba8:	47f2                	lw	a5,28(sp)
80003baa:	844a                	mv	s0,s2
80003bac:	4681                	li	a3,0
80003bae:	4625                	li	a2,9
80003bb0:	00044703          	lbu	a4,0(s0)
80003bb4:	00140593          	addi	a1,s0,1
80003bb8:	fd070713          	addi	a4,a4,-48 # ffffdfd0 <_sp+0x6fff5fd0>
80003bbc:	0ae67963          	bgeu	a2,a4,80003c6e <_vfiprintf_r+0x1b0>
80003bc0:	cab5                	beqz	a3,80003c34 <_vfiprintf_r+0x176>
80003bc2:	ce3e                	sw	a5,28(sp)
80003bc4:	a885                	j	80003c34 <_vfiprintf_r+0x176>
80003bc6:	00002797          	auipc	a5,0x2
80003bca:	6d678793          	addi	a5,a5,1750 # 8000629c <__sf_fake_stdout>
80003bce:	00f49563          	bne	s1,a5,80003bd8 <_vfiprintf_r+0x11a>
80003bd2:	0089a483          	lw	s1,8(s3)
80003bd6:	b70d                	j	80003af8 <_vfiprintf_r+0x3a>
80003bd8:	00002797          	auipc	a5,0x2
80003bdc:	68478793          	addi	a5,a5,1668 # 8000625c <__sf_fake_stderr>
80003be0:	f0f49ce3          	bne	s1,a5,80003af8 <_vfiprintf_r+0x3a>
80003be4:	00c9a483          	lw	s1,12(s3)
80003be8:	bf01                	j	80003af8 <_vfiprintf_r+0x3a>
80003bea:	85a6                	mv	a1,s1
80003bec:	854e                	mv	a0,s3
80003bee:	e46ff0ef          	jal	ra,80003234 <__swsetup_r>
80003bf2:	d909                	beqz	a0,80003b04 <_vfiprintf_r+0x46>
80003bf4:	557d                	li	a0,-1
80003bf6:	40fa                	lw	ra,156(sp)
80003bf8:	446a                	lw	s0,152(sp)
80003bfa:	44da                	lw	s1,148(sp)
80003bfc:	494a                	lw	s2,144(sp)
80003bfe:	49ba                	lw	s3,140(sp)
80003c00:	4a2a                	lw	s4,136(sp)
80003c02:	4a9a                	lw	s5,132(sp)
80003c04:	4b0a                	lw	s6,128(sp)
80003c06:	5bf6                	lw	s7,124(sp)
80003c08:	5c66                	lw	s8,120(sp)
80003c0a:	5cd6                	lw	s9,116(sp)
80003c0c:	610d                	addi	sp,sp,160
80003c0e:	8082                	ret
80003c10:	0405                	addi	s0,s0,1
80003c12:	bf21                	j	80003b2a <_vfiprintf_r+0x6c>
80003c14:	41550533          	sub	a0,a0,s5
80003c18:	00ac1533          	sll	a0,s8,a0
80003c1c:	8fc9                	or	a5,a5,a0
80003c1e:	c83e                	sw	a5,16(sp)
80003c20:	8922                	mv	s2,s0
80003c22:	b7b1                	j	80003b6e <_vfiprintf_r+0xb0>
80003c24:	4732                	lw	a4,12(sp)
80003c26:	00470693          	addi	a3,a4,4
80003c2a:	4318                	lw	a4,0(a4)
80003c2c:	c636                	sw	a3,12(sp)
80003c2e:	02074963          	bltz	a4,80003c60 <_vfiprintf_r+0x1a2>
80003c32:	ce3a                	sw	a4,28(sp)
80003c34:	00044703          	lbu	a4,0(s0)
80003c38:	02e00793          	li	a5,46
80003c3c:	04f71f63          	bne	a4,a5,80003c9a <_vfiprintf_r+0x1dc>
80003c40:	00144703          	lbu	a4,1(s0)
80003c44:	02a00793          	li	a5,42
80003c48:	02f71b63          	bne	a4,a5,80003c7e <_vfiprintf_r+0x1c0>
80003c4c:	47b2                	lw	a5,12(sp)
80003c4e:	0409                	addi	s0,s0,2
80003c50:	00478713          	addi	a4,a5,4
80003c54:	439c                	lw	a5,0(a5)
80003c56:	c63a                	sw	a4,12(sp)
80003c58:	0207c163          	bltz	a5,80003c7a <_vfiprintf_r+0x1bc>
80003c5c:	ca3e                	sw	a5,20(sp)
80003c5e:	a835                	j	80003c9a <_vfiprintf_r+0x1dc>
80003c60:	40e00733          	neg	a4,a4
80003c64:	0027e793          	ori	a5,a5,2
80003c68:	ce3a                	sw	a4,28(sp)
80003c6a:	c83e                	sw	a5,16(sp)
80003c6c:	b7e1                	j	80003c34 <_vfiprintf_r+0x176>
80003c6e:	036787b3          	mul	a5,a5,s6
80003c72:	842e                	mv	s0,a1
80003c74:	4685                	li	a3,1
80003c76:	97ba                	add	a5,a5,a4
80003c78:	bf25                	j	80003bb0 <_vfiprintf_r+0xf2>
80003c7a:	57fd                	li	a5,-1
80003c7c:	b7c5                	j	80003c5c <_vfiprintf_r+0x19e>
80003c7e:	0405                	addi	s0,s0,1
80003c80:	ca02                	sw	zero,20(sp)
80003c82:	4681                	li	a3,0
80003c84:	4781                	li	a5,0
80003c86:	4625                	li	a2,9
80003c88:	00044703          	lbu	a4,0(s0)
80003c8c:	00140593          	addi	a1,s0,1
80003c90:	fd070713          	addi	a4,a4,-48
80003c94:	06e67463          	bgeu	a2,a4,80003cfc <_vfiprintf_r+0x23e>
80003c98:	f2f1                	bnez	a3,80003c5c <_vfiprintf_r+0x19e>
80003c9a:	00044583          	lbu	a1,0(s0)
80003c9e:	460d                	li	a2,3
80003ca0:	00002517          	auipc	a0,0x2
80003ca4:	62450513          	addi	a0,a0,1572 # 800062c4 <__sf_fake_stdout+0x28>
80003ca8:	23ed                	jal	80004292 <memchr>
80003caa:	cd11                	beqz	a0,80003cc6 <_vfiprintf_r+0x208>
80003cac:	00002797          	auipc	a5,0x2
80003cb0:	61878793          	addi	a5,a5,1560 # 800062c4 <__sf_fake_stdout+0x28>
80003cb4:	8d1d                	sub	a0,a0,a5
80003cb6:	04000793          	li	a5,64
80003cba:	00a797b3          	sll	a5,a5,a0
80003cbe:	4542                	lw	a0,16(sp)
80003cc0:	0405                	addi	s0,s0,1
80003cc2:	8d5d                	or	a0,a0,a5
80003cc4:	c82a                	sw	a0,16(sp)
80003cc6:	00044583          	lbu	a1,0(s0)
80003cca:	4619                	li	a2,6
80003ccc:	00002517          	auipc	a0,0x2
80003cd0:	5fc50513          	addi	a0,a0,1532 # 800062c8 <__sf_fake_stdout+0x2c>
80003cd4:	00140913          	addi	s2,s0,1
80003cd8:	02b10423          	sb	a1,40(sp)
80003cdc:	2b5d                	jal	80004292 <memchr>
80003cde:	c12d                	beqz	a0,80003d40 <_vfiprintf_r+0x282>
80003ce0:	00000793          	li	a5,0
80003ce4:	e795                	bnez	a5,80003d10 <_vfiprintf_r+0x252>
80003ce6:	4742                	lw	a4,16(sp)
80003ce8:	47b2                	lw	a5,12(sp)
80003cea:	10077713          	andi	a4,a4,256
80003cee:	cf09                	beqz	a4,80003d08 <_vfiprintf_r+0x24a>
80003cf0:	0791                	addi	a5,a5,4
80003cf2:	c63e                	sw	a5,12(sp)
80003cf4:	5792                	lw	a5,36(sp)
80003cf6:	97d2                	add	a5,a5,s4
80003cf8:	d23e                	sw	a5,36(sp)
80003cfa:	b53d                	j	80003b28 <_vfiprintf_r+0x6a>
80003cfc:	036787b3          	mul	a5,a5,s6
80003d00:	842e                	mv	s0,a1
80003d02:	4685                	li	a3,1
80003d04:	97ba                	add	a5,a5,a4
80003d06:	b749                	j	80003c88 <_vfiprintf_r+0x1ca>
80003d08:	079d                	addi	a5,a5,7
80003d0a:	9be1                	andi	a5,a5,-8
80003d0c:	07a1                	addi	a5,a5,8
80003d0e:	b7d5                	j	80003cf2 <_vfiprintf_r+0x234>
80003d10:	0078                	addi	a4,sp,12
80003d12:	00000697          	auipc	a3,0x0
80003d16:	d6a68693          	addi	a3,a3,-662 # 80003a7c <__sfputs_r>
80003d1a:	8626                	mv	a2,s1
80003d1c:	080c                	addi	a1,sp,16
80003d1e:	854e                	mv	a0,s3
80003d20:	00000097          	auipc	ra,0x0
80003d24:	000000e7          	jalr	zero # 0 <__stack_size-0x800>
80003d28:	57fd                	li	a5,-1
80003d2a:	8a2a                	mv	s4,a0
80003d2c:	fcf514e3          	bne	a0,a5,80003cf4 <_vfiprintf_r+0x236>
80003d30:	00c4d783          	lhu	a5,12(s1)
80003d34:	0407f793          	andi	a5,a5,64
80003d38:	ea079ee3          	bnez	a5,80003bf4 <_vfiprintf_r+0x136>
80003d3c:	5512                	lw	a0,36(sp)
80003d3e:	bd65                	j	80003bf6 <_vfiprintf_r+0x138>
80003d40:	0078                	addi	a4,sp,12
80003d42:	00000697          	auipc	a3,0x0
80003d46:	d3a68693          	addi	a3,a3,-710 # 80003a7c <__sfputs_r>
80003d4a:	8626                	mv	a2,s1
80003d4c:	080c                	addi	a1,sp,16
80003d4e:	854e                	mv	a0,s3
80003d50:	2a01                	jal	80003e60 <_printf_i>
80003d52:	bfd9                	j	80003d28 <_vfiprintf_r+0x26a>

80003d54 <_printf_common>:
_printf_common():
80003d54:	7179                	addi	sp,sp,-48
80003d56:	cc52                	sw	s4,24(sp)
80003d58:	499c                	lw	a5,16(a1)
80003d5a:	8a3a                	mv	s4,a4
80003d5c:	4598                	lw	a4,8(a1)
80003d5e:	d422                	sw	s0,40(sp)
80003d60:	d226                	sw	s1,36(sp)
80003d62:	ce4e                	sw	s3,28(sp)
80003d64:	ca56                	sw	s5,20(sp)
80003d66:	d606                	sw	ra,44(sp)
80003d68:	d04a                	sw	s2,32(sp)
80003d6a:	c85a                	sw	s6,16(sp)
80003d6c:	c65e                	sw	s7,12(sp)
80003d6e:	89aa                	mv	s3,a0
80003d70:	842e                	mv	s0,a1
80003d72:	84b2                	mv	s1,a2
80003d74:	8ab6                	mv	s5,a3
80003d76:	00e7d363          	bge	a5,a4,80003d7c <_printf_common+0x28>
80003d7a:	87ba                	mv	a5,a4
80003d7c:	c09c                	sw	a5,0(s1)
80003d7e:	04344703          	lbu	a4,67(s0)
80003d82:	c319                	beqz	a4,80003d88 <_printf_common+0x34>
80003d84:	0785                	addi	a5,a5,1
80003d86:	c09c                	sw	a5,0(s1)
80003d88:	401c                	lw	a5,0(s0)
80003d8a:	0207f793          	andi	a5,a5,32
80003d8e:	c781                	beqz	a5,80003d96 <_printf_common+0x42>
80003d90:	409c                	lw	a5,0(s1)
80003d92:	0789                	addi	a5,a5,2
80003d94:	c09c                	sw	a5,0(s1)
80003d96:	00042903          	lw	s2,0(s0)
80003d9a:	00697913          	andi	s2,s2,6
80003d9e:	00091a63          	bnez	s2,80003db2 <_printf_common+0x5e>
80003da2:	01940b13          	addi	s6,s0,25
80003da6:	5bfd                	li	s7,-1
80003da8:	445c                	lw	a5,12(s0)
80003daa:	4098                	lw	a4,0(s1)
80003dac:	8f99                	sub	a5,a5,a4
80003dae:	04f94c63          	blt	s2,a5,80003e06 <_printf_common+0xb2>
80003db2:	04344783          	lbu	a5,67(s0)
80003db6:	00f036b3          	snez	a3,a5
80003dba:	401c                	lw	a5,0(s0)
80003dbc:	0207f793          	andi	a5,a5,32
80003dc0:	eba5                	bnez	a5,80003e30 <_printf_common+0xdc>
80003dc2:	04340613          	addi	a2,s0,67
80003dc6:	85d6                	mv	a1,s5
80003dc8:	854e                	mv	a0,s3
80003dca:	9a02                	jalr	s4
80003dcc:	57fd                	li	a5,-1
80003dce:	04f50363          	beq	a0,a5,80003e14 <_printf_common+0xc0>
80003dd2:	401c                	lw	a5,0(s0)
80003dd4:	4611                	li	a2,4
80003dd6:	4098                	lw	a4,0(s1)
80003dd8:	8b99                	andi	a5,a5,6
80003dda:	4454                	lw	a3,12(s0)
80003ddc:	4481                	li	s1,0
80003dde:	00c79763          	bne	a5,a2,80003dec <_printf_common+0x98>
80003de2:	40e684b3          	sub	s1,a3,a4
80003de6:	0004d363          	bgez	s1,80003dec <_printf_common+0x98>
80003dea:	4481                	li	s1,0
80003dec:	441c                	lw	a5,8(s0)
80003dee:	4818                	lw	a4,16(s0)
80003df0:	00f75463          	bge	a4,a5,80003df8 <_printf_common+0xa4>
80003df4:	8f99                	sub	a5,a5,a4
80003df6:	94be                	add	s1,s1,a5
80003df8:	4901                	li	s2,0
80003dfa:	0469                	addi	s0,s0,26
80003dfc:	5b7d                	li	s6,-1
80003dfe:	05249863          	bne	s1,s2,80003e4e <_printf_common+0xfa>
80003e02:	4501                	li	a0,0
80003e04:	a809                	j	80003e16 <_printf_common+0xc2>
80003e06:	4685                	li	a3,1
80003e08:	865a                	mv	a2,s6
80003e0a:	85d6                	mv	a1,s5
80003e0c:	854e                	mv	a0,s3
80003e0e:	9a02                	jalr	s4
80003e10:	01751e63          	bne	a0,s7,80003e2c <_printf_common+0xd8>
80003e14:	557d                	li	a0,-1
80003e16:	50b2                	lw	ra,44(sp)
80003e18:	5422                	lw	s0,40(sp)
80003e1a:	5492                	lw	s1,36(sp)
80003e1c:	5902                	lw	s2,32(sp)
80003e1e:	49f2                	lw	s3,28(sp)
80003e20:	4a62                	lw	s4,24(sp)
80003e22:	4ad2                	lw	s5,20(sp)
80003e24:	4b42                	lw	s6,16(sp)
80003e26:	4bb2                	lw	s7,12(sp)
80003e28:	6145                	addi	sp,sp,48
80003e2a:	8082                	ret
80003e2c:	0905                	addi	s2,s2,1
80003e2e:	bfad                	j	80003da8 <_printf_common+0x54>
80003e30:	00d40733          	add	a4,s0,a3
80003e34:	03000613          	li	a2,48
80003e38:	04c701a3          	sb	a2,67(a4)
80003e3c:	04544703          	lbu	a4,69(s0)
80003e40:	00168793          	addi	a5,a3,1
80003e44:	97a2                	add	a5,a5,s0
80003e46:	0689                	addi	a3,a3,2
80003e48:	04e781a3          	sb	a4,67(a5)
80003e4c:	bf9d                	j	80003dc2 <_printf_common+0x6e>
80003e4e:	4685                	li	a3,1
80003e50:	8622                	mv	a2,s0
80003e52:	85d6                	mv	a1,s5
80003e54:	854e                	mv	a0,s3
80003e56:	9a02                	jalr	s4
80003e58:	fb650ee3          	beq	a0,s6,80003e14 <_printf_common+0xc0>
80003e5c:	0905                	addi	s2,s2,1
80003e5e:	b745                	j	80003dfe <_printf_common+0xaa>

80003e60 <_printf_i>:
_printf_i():
80003e60:	7179                	addi	sp,sp,-48
80003e62:	d422                	sw	s0,40(sp)
80003e64:	d226                	sw	s1,36(sp)
80003e66:	d04a                	sw	s2,32(sp)
80003e68:	ce4e                	sw	s3,28(sp)
80003e6a:	d606                	sw	ra,44(sp)
80003e6c:	cc52                	sw	s4,24(sp)
80003e6e:	ca56                	sw	s5,20(sp)
80003e70:	c85a                	sw	s6,16(sp)
80003e72:	0185c803          	lbu	a6,24(a1)
80003e76:	07800793          	li	a5,120
80003e7a:	84aa                	mv	s1,a0
80003e7c:	842e                	mv	s0,a1
80003e7e:	8932                	mv	s2,a2
80003e80:	89b6                	mv	s3,a3
80003e82:	0107ee63          	bltu	a5,a6,80003e9e <_printf_i+0x3e>
80003e86:	06200793          	li	a5,98
80003e8a:	04358693          	addi	a3,a1,67
80003e8e:	0107ed63          	bltu	a5,a6,80003ea8 <_printf_i+0x48>
80003e92:	1c080563          	beqz	a6,8000405c <_printf_i+0x1fc>
80003e96:	05800793          	li	a5,88
80003e9a:	12f80a63          	beq	a6,a5,80003fce <_printf_i+0x16e>
80003e9e:	04240a93          	addi	s5,s0,66
80003ea2:	05040123          	sb	a6,66(s0)
80003ea6:	a815                	j	80003eda <_printf_i+0x7a>
80003ea8:	f9d80793          	addi	a5,a6,-99
80003eac:	0ff7f793          	zext.b	a5,a5
80003eb0:	4655                	li	a2,21
80003eb2:	fef666e3          	bltu	a2,a5,80003e9e <_printf_i+0x3e>
80003eb6:	00002617          	auipc	a2,0x2
80003eba:	44260613          	addi	a2,a2,1090 # 800062f8 <__sf_fake_stdout+0x5c>
80003ebe:	078a                	slli	a5,a5,0x2
80003ec0:	97b2                	add	a5,a5,a2
80003ec2:	439c                	lw	a5,0(a5)
80003ec4:	97b2                	add	a5,a5,a2
80003ec6:	8782                	jr	a5
80003ec8:	431c                	lw	a5,0(a4)
80003eca:	04258a93          	addi	s5,a1,66
80003ece:	00478693          	addi	a3,a5,4
80003ed2:	439c                	lw	a5,0(a5)
80003ed4:	c314                	sw	a3,0(a4)
80003ed6:	04f58123          	sb	a5,66(a1)
80003eda:	4785                	li	a5,1
80003edc:	a25d                	j	80004082 <_printf_i+0x222>
80003ede:	419c                	lw	a5,0(a1)
80003ee0:	4308                	lw	a0,0(a4)
80003ee2:	0807f613          	andi	a2,a5,128
80003ee6:	00450593          	addi	a1,a0,4
80003eea:	c20d                	beqz	a2,80003f0c <_printf_i+0xac>
80003eec:	411c                	lw	a5,0(a0)
80003eee:	c30c                	sw	a1,0(a4)
80003ef0:	0007d863          	bgez	a5,80003f00 <_printf_i+0xa0>
80003ef4:	02d00713          	li	a4,45
80003ef8:	40f007b3          	neg	a5,a5
80003efc:	04e401a3          	sb	a4,67(s0)
80003f00:	00002617          	auipc	a2,0x2
80003f04:	3d060613          	addi	a2,a2,976 # 800062d0 <__sf_fake_stdout+0x34>
80003f08:	4829                	li	a6,10
80003f0a:	a0a1                	j	80003f52 <_printf_i+0xf2>
80003f0c:	0407f613          	andi	a2,a5,64
80003f10:	411c                	lw	a5,0(a0)
80003f12:	c30c                	sw	a1,0(a4)
80003f14:	de71                	beqz	a2,80003ef0 <_printf_i+0x90>
80003f16:	07c2                	slli	a5,a5,0x10
80003f18:	87c1                	srai	a5,a5,0x10
80003f1a:	bfd9                	j	80003ef0 <_printf_i+0x90>
80003f1c:	4190                	lw	a2,0(a1)
80003f1e:	431c                	lw	a5,0(a4)
80003f20:	08067513          	andi	a0,a2,128
80003f24:	00478593          	addi	a1,a5,4
80003f28:	c501                	beqz	a0,80003f30 <_printf_i+0xd0>
80003f2a:	c30c                	sw	a1,0(a4)
80003f2c:	439c                	lw	a5,0(a5)
80003f2e:	a039                	j	80003f3c <_printf_i+0xdc>
80003f30:	04067613          	andi	a2,a2,64
80003f34:	c30c                	sw	a1,0(a4)
80003f36:	da7d                	beqz	a2,80003f2c <_printf_i+0xcc>
80003f38:	0007d783          	lhu	a5,0(a5)
80003f3c:	06f00713          	li	a4,111
80003f40:	00002617          	auipc	a2,0x2
80003f44:	39060613          	addi	a2,a2,912 # 800062d0 <__sf_fake_stdout+0x34>
80003f48:	0ee80463          	beq	a6,a4,80004030 <_printf_i+0x1d0>
80003f4c:	4829                	li	a6,10
80003f4e:	040401a3          	sb	zero,67(s0)
80003f52:	4058                	lw	a4,4(s0)
80003f54:	c418                	sw	a4,8(s0)
80003f56:	00074563          	bltz	a4,80003f60 <_printf_i+0x100>
80003f5a:	400c                	lw	a1,0(s0)
80003f5c:	99ed                	andi	a1,a1,-5
80003f5e:	c00c                	sw	a1,0(s0)
80003f60:	e399                	bnez	a5,80003f66 <_printf_i+0x106>
80003f62:	8ab6                	mv	s5,a3
80003f64:	cf19                	beqz	a4,80003f82 <_printf_i+0x122>
80003f66:	8ab6                	mv	s5,a3
80003f68:	0307f733          	remu	a4,a5,a6
80003f6c:	1afd                	addi	s5,s5,-1
80003f6e:	9732                	add	a4,a4,a2
80003f70:	00074703          	lbu	a4,0(a4)
80003f74:	00ea8023          	sb	a4,0(s5)
80003f78:	873e                	mv	a4,a5
80003f7a:	0307d7b3          	divu	a5,a5,a6
80003f7e:	ff0775e3          	bgeu	a4,a6,80003f68 <_printf_i+0x108>
80003f82:	47a1                	li	a5,8
80003f84:	00f81e63          	bne	a6,a5,80003fa0 <_printf_i+0x140>
80003f88:	401c                	lw	a5,0(s0)
80003f8a:	8b85                	andi	a5,a5,1
80003f8c:	cb91                	beqz	a5,80003fa0 <_printf_i+0x140>
80003f8e:	4058                	lw	a4,4(s0)
80003f90:	481c                	lw	a5,16(s0)
80003f92:	00e7c763          	blt	a5,a4,80003fa0 <_printf_i+0x140>
80003f96:	03000793          	li	a5,48
80003f9a:	fefa8fa3          	sb	a5,-1(s5)
80003f9e:	1afd                	addi	s5,s5,-1
80003fa0:	415686b3          	sub	a3,a3,s5
80003fa4:	c814                	sw	a3,16(s0)
80003fa6:	874e                	mv	a4,s3
80003fa8:	86ca                	mv	a3,s2
80003faa:	0070                	addi	a2,sp,12
80003fac:	85a2                	mv	a1,s0
80003fae:	8526                	mv	a0,s1
80003fb0:	3355                	jal	80003d54 <_printf_common>
80003fb2:	5a7d                	li	s4,-1
80003fb4:	0d451b63          	bne	a0,s4,8000408a <_printf_i+0x22a>
80003fb8:	557d                	li	a0,-1
80003fba:	50b2                	lw	ra,44(sp)
80003fbc:	5422                	lw	s0,40(sp)
80003fbe:	5492                	lw	s1,36(sp)
80003fc0:	5902                	lw	s2,32(sp)
80003fc2:	49f2                	lw	s3,28(sp)
80003fc4:	4a62                	lw	s4,24(sp)
80003fc6:	4ad2                	lw	s5,20(sp)
80003fc8:	4b42                	lw	s6,16(sp)
80003fca:	6145                	addi	sp,sp,48
80003fcc:	8082                	ret
80003fce:	050582a3          	sb	a6,69(a1)
80003fd2:	00002617          	auipc	a2,0x2
80003fd6:	2fe60613          	addi	a2,a2,766 # 800062d0 <__sf_fake_stdout+0x34>
80003fda:	400c                	lw	a1,0(s0)
80003fdc:	4308                	lw	a0,0(a4)
80003fde:	0805f813          	andi	a6,a1,128
80003fe2:	411c                	lw	a5,0(a0)
80003fe4:	0511                	addi	a0,a0,4
80003fe6:	02080d63          	beqz	a6,80004020 <_printf_i+0x1c0>
80003fea:	c308                	sw	a0,0(a4)
80003fec:	0015f713          	andi	a4,a1,1
80003ff0:	c701                	beqz	a4,80003ff8 <_printf_i+0x198>
80003ff2:	0205e593          	ori	a1,a1,32
80003ff6:	c00c                	sw	a1,0(s0)
80003ff8:	4841                	li	a6,16
80003ffa:	fbb1                	bnez	a5,80003f4e <_printf_i+0xee>
80003ffc:	4018                	lw	a4,0(s0)
80003ffe:	fdf77713          	andi	a4,a4,-33
80004002:	c018                	sw	a4,0(s0)
80004004:	b7a9                	j	80003f4e <_printf_i+0xee>
80004006:	419c                	lw	a5,0(a1)
80004008:	0207e793          	ori	a5,a5,32
8000400c:	c19c                	sw	a5,0(a1)
8000400e:	07800793          	li	a5,120
80004012:	04f402a3          	sb	a5,69(s0)
80004016:	00002617          	auipc	a2,0x2
8000401a:	2ce60613          	addi	a2,a2,718 # 800062e4 <__sf_fake_stdout+0x48>
8000401e:	bf75                	j	80003fda <_printf_i+0x17a>
80004020:	0405f813          	andi	a6,a1,64
80004024:	c308                	sw	a0,0(a4)
80004026:	fc0803e3          	beqz	a6,80003fec <_printf_i+0x18c>
8000402a:	07c2                	slli	a5,a5,0x10
8000402c:	83c1                	srli	a5,a5,0x10
8000402e:	bf7d                	j	80003fec <_printf_i+0x18c>
80004030:	4821                	li	a6,8
80004032:	bf31                	j	80003f4e <_printf_i+0xee>
80004034:	4190                	lw	a2,0(a1)
80004036:	431c                	lw	a5,0(a4)
80004038:	49cc                	lw	a1,20(a1)
8000403a:	08067813          	andi	a6,a2,128
8000403e:	00478513          	addi	a0,a5,4
80004042:	00080663          	beqz	a6,8000404e <_printf_i+0x1ee>
80004046:	c308                	sw	a0,0(a4)
80004048:	439c                	lw	a5,0(a5)
8000404a:	c38c                	sw	a1,0(a5)
8000404c:	a801                	j	8000405c <_printf_i+0x1fc>
8000404e:	c308                	sw	a0,0(a4)
80004050:	04067613          	andi	a2,a2,64
80004054:	439c                	lw	a5,0(a5)
80004056:	da75                	beqz	a2,8000404a <_printf_i+0x1ea>
80004058:	00b79023          	sh	a1,0(a5)
8000405c:	00042823          	sw	zero,16(s0)
80004060:	8ab6                	mv	s5,a3
80004062:	b791                	j	80003fa6 <_printf_i+0x146>
80004064:	431c                	lw	a5,0(a4)
80004066:	41d0                	lw	a2,4(a1)
80004068:	4581                	li	a1,0
8000406a:	00478693          	addi	a3,a5,4
8000406e:	c314                	sw	a3,0(a4)
80004070:	0007aa83          	lw	s5,0(a5)
80004074:	8556                	mv	a0,s5
80004076:	2c31                	jal	80004292 <memchr>
80004078:	c501                	beqz	a0,80004080 <_printf_i+0x220>
8000407a:	41550533          	sub	a0,a0,s5
8000407e:	c048                	sw	a0,4(s0)
80004080:	405c                	lw	a5,4(s0)
80004082:	c81c                	sw	a5,16(s0)
80004084:	040401a3          	sb	zero,67(s0)
80004088:	bf39                	j	80003fa6 <_printf_i+0x146>
8000408a:	4814                	lw	a3,16(s0)
8000408c:	8656                	mv	a2,s5
8000408e:	85ca                	mv	a1,s2
80004090:	8526                	mv	a0,s1
80004092:	9982                	jalr	s3
80004094:	f34502e3          	beq	a0,s4,80003fb8 <_printf_i+0x158>
80004098:	401c                	lw	a5,0(s0)
8000409a:	8b89                	andi	a5,a5,2
8000409c:	e78d                	bnez	a5,800040c6 <_printf_i+0x266>
8000409e:	47b2                	lw	a5,12(sp)
800040a0:	4448                	lw	a0,12(s0)
800040a2:	f0f55ce3          	bge	a0,a5,80003fba <_printf_i+0x15a>
800040a6:	853e                	mv	a0,a5
800040a8:	bf09                	j	80003fba <_printf_i+0x15a>
800040aa:	4685                	li	a3,1
800040ac:	8656                	mv	a2,s5
800040ae:	85ca                	mv	a1,s2
800040b0:	8526                	mv	a0,s1
800040b2:	9982                	jalr	s3
800040b4:	f16502e3          	beq	a0,s6,80003fb8 <_printf_i+0x158>
800040b8:	0a05                	addi	s4,s4,1
800040ba:	445c                	lw	a5,12(s0)
800040bc:	4732                	lw	a4,12(sp)
800040be:	8f99                	sub	a5,a5,a4
800040c0:	fefa45e3          	blt	s4,a5,800040aa <_printf_i+0x24a>
800040c4:	bfe9                	j	8000409e <_printf_i+0x23e>
800040c6:	4a01                	li	s4,0
800040c8:	01940a93          	addi	s5,s0,25
800040cc:	5b7d                	li	s6,-1
800040ce:	b7f5                	j	800040ba <_printf_i+0x25a>

800040d0 <_sbrk_r>:
_sbrk_r():
800040d0:	1141                	addi	sp,sp,-16
800040d2:	c422                	sw	s0,8(sp)
800040d4:	842a                	mv	s0,a0
800040d6:	852e                	mv	a0,a1
800040d8:	8201a823          	sw	zero,-2000(gp) # 90000090 <errno>
800040dc:	c606                	sw	ra,12(sp)
800040de:	85afc0ef          	jal	ra,80000138 <_sbrk>
800040e2:	57fd                	li	a5,-1
800040e4:	00f51663          	bne	a0,a5,800040f0 <_sbrk_r+0x20>
800040e8:	8301a783          	lw	a5,-2000(gp) # 90000090 <errno>
800040ec:	c391                	beqz	a5,800040f0 <_sbrk_r+0x20>
800040ee:	c01c                	sw	a5,0(s0)
800040f0:	40b2                	lw	ra,12(sp)
800040f2:	4422                	lw	s0,8(sp)
800040f4:	0141                	addi	sp,sp,16
800040f6:	8082                	ret

800040f8 <__sread>:
__sread():
800040f8:	1141                	addi	sp,sp,-16
800040fa:	c422                	sw	s0,8(sp)
800040fc:	842e                	mv	s0,a1
800040fe:	00e59583          	lh	a1,14(a1)
80004102:	c606                	sw	ra,12(sp)
80004104:	2275                	jal	800042b0 <_read_r>
80004106:	00054963          	bltz	a0,80004118 <__sread+0x20>
8000410a:	487c                	lw	a5,84(s0)
8000410c:	97aa                	add	a5,a5,a0
8000410e:	c87c                	sw	a5,84(s0)
80004110:	40b2                	lw	ra,12(sp)
80004112:	4422                	lw	s0,8(sp)
80004114:	0141                	addi	sp,sp,16
80004116:	8082                	ret
80004118:	00c45783          	lhu	a5,12(s0)
8000411c:	777d                	lui	a4,0xfffff
8000411e:	177d                	addi	a4,a4,-1
80004120:	8ff9                	and	a5,a5,a4
80004122:	00f41623          	sh	a5,12(s0)
80004126:	b7ed                	j	80004110 <__sread+0x18>

80004128 <__swrite>:
__swrite():
80004128:	00c5d783          	lhu	a5,12(a1)
8000412c:	1101                	addi	sp,sp,-32
8000412e:	cc22                	sw	s0,24(sp)
80004130:	ca26                	sw	s1,20(sp)
80004132:	c84a                	sw	s2,16(sp)
80004134:	c64e                	sw	s3,12(sp)
80004136:	ce06                	sw	ra,28(sp)
80004138:	1007f793          	andi	a5,a5,256
8000413c:	84aa                	mv	s1,a0
8000413e:	842e                	mv	s0,a1
80004140:	8932                	mv	s2,a2
80004142:	89b6                	mv	s3,a3
80004144:	c791                	beqz	a5,80004150 <__swrite+0x28>
80004146:	00e59583          	lh	a1,14(a1)
8000414a:	4689                	li	a3,2
8000414c:	4601                	li	a2,0
8000414e:	2a21                	jal	80004266 <_lseek_r>
80004150:	00c45783          	lhu	a5,12(s0)
80004154:	777d                	lui	a4,0xfffff
80004156:	177d                	addi	a4,a4,-1
80004158:	8ff9                	and	a5,a5,a4
8000415a:	00e41583          	lh	a1,14(s0)
8000415e:	00f41623          	sh	a5,12(s0)
80004162:	4462                	lw	s0,24(sp)
80004164:	40f2                	lw	ra,28(sp)
80004166:	86ce                	mv	a3,s3
80004168:	864a                	mv	a2,s2
8000416a:	49b2                	lw	s3,12(sp)
8000416c:	4942                	lw	s2,16(sp)
8000416e:	8526                	mv	a0,s1
80004170:	44d2                	lw	s1,20(sp)
80004172:	6105                	addi	sp,sp,32
80004174:	a83d                	j	800041b2 <_write_r>

80004176 <__sseek>:
__sseek():
80004176:	1141                	addi	sp,sp,-16
80004178:	c422                	sw	s0,8(sp)
8000417a:	842e                	mv	s0,a1
8000417c:	00e59583          	lh	a1,14(a1)
80004180:	c606                	sw	ra,12(sp)
80004182:	20d5                	jal	80004266 <_lseek_r>
80004184:	57fd                	li	a5,-1
80004186:	00c45703          	lhu	a4,12(s0)
8000418a:	00f51b63          	bne	a0,a5,800041a0 <__sseek+0x2a>
8000418e:	77fd                	lui	a5,0xfffff
80004190:	17fd                	addi	a5,a5,-1
80004192:	8ff9                	and	a5,a5,a4
80004194:	00f41623          	sh	a5,12(s0)
80004198:	40b2                	lw	ra,12(sp)
8000419a:	4422                	lw	s0,8(sp)
8000419c:	0141                	addi	sp,sp,16
8000419e:	8082                	ret
800041a0:	6785                	lui	a5,0x1
800041a2:	8fd9                	or	a5,a5,a4
800041a4:	00f41623          	sh	a5,12(s0)
800041a8:	c868                	sw	a0,84(s0)
800041aa:	b7fd                	j	80004198 <__sseek+0x22>

800041ac <__sclose>:
__sclose():
800041ac:	00e59583          	lh	a1,14(a1)
800041b0:	a835                	j	800041ec <_close_r>

800041b2 <_write_r>:
_write_r():
800041b2:	1141                	addi	sp,sp,-16
800041b4:	c422                	sw	s0,8(sp)
800041b6:	842a                	mv	s0,a0
800041b8:	852e                	mv	a0,a1
800041ba:	85b2                	mv	a1,a2
800041bc:	8636                	mv	a2,a3
800041be:	8201a823          	sw	zero,-2000(gp) # 90000090 <errno>
800041c2:	c606                	sw	ra,12(sp)
800041c4:	fa1fb0ef          	jal	ra,80000164 <_write>
800041c8:	57fd                	li	a5,-1
800041ca:	00f51663          	bne	a0,a5,800041d6 <_write_r+0x24>
800041ce:	8301a783          	lw	a5,-2000(gp) # 90000090 <errno>
800041d2:	c391                	beqz	a5,800041d6 <_write_r+0x24>
800041d4:	c01c                	sw	a5,0(s0)
800041d6:	40b2                	lw	ra,12(sp)
800041d8:	4422                	lw	s0,8(sp)
800041da:	0141                	addi	sp,sp,16
800041dc:	8082                	ret

800041de <abort>:
abort():
800041de:	1141                	addi	sp,sp,-16
800041e0:	4519                	li	a0,6
800041e2:	c606                	sw	ra,12(sp)
800041e4:	2aa9                	jal	8000433e <raise>
800041e6:	4505                	li	a0,1
800041e8:	ef9fb0ef          	jal	ra,800000e0 <_exit>

800041ec <_close_r>:
_close_r():
800041ec:	1141                	addi	sp,sp,-16
800041ee:	c422                	sw	s0,8(sp)
800041f0:	842a                	mv	s0,a0
800041f2:	852e                	mv	a0,a1
800041f4:	8201a823          	sw	zero,-2000(gp) # 90000090 <errno>
800041f8:	c606                	sw	ra,12(sp)
800041fa:	eddfb0ef          	jal	ra,800000d6 <_close>
800041fe:	57fd                	li	a5,-1
80004200:	00f51663          	bne	a0,a5,8000420c <_close_r+0x20>
80004204:	8301a783          	lw	a5,-2000(gp) # 90000090 <errno>
80004208:	c391                	beqz	a5,8000420c <_close_r+0x20>
8000420a:	c01c                	sw	a5,0(s0)
8000420c:	40b2                	lw	ra,12(sp)
8000420e:	4422                	lw	s0,8(sp)
80004210:	0141                	addi	sp,sp,16
80004212:	8082                	ret

80004214 <_fstat_r>:
_fstat_r():
80004214:	1141                	addi	sp,sp,-16
80004216:	c422                	sw	s0,8(sp)
80004218:	842a                	mv	s0,a0
8000421a:	852e                	mv	a0,a1
8000421c:	85b2                	mv	a1,a2
8000421e:	8201a823          	sw	zero,-2000(gp) # 90000090 <errno>
80004222:	c606                	sw	ra,12(sp)
80004224:	ec3fb0ef          	jal	ra,800000e6 <_fstat>
80004228:	57fd                	li	a5,-1
8000422a:	00f51663          	bne	a0,a5,80004236 <_fstat_r+0x22>
8000422e:	8301a783          	lw	a5,-2000(gp) # 90000090 <errno>
80004232:	c391                	beqz	a5,80004236 <_fstat_r+0x22>
80004234:	c01c                	sw	a5,0(s0)
80004236:	40b2                	lw	ra,12(sp)
80004238:	4422                	lw	s0,8(sp)
8000423a:	0141                	addi	sp,sp,16
8000423c:	8082                	ret

8000423e <_isatty_r>:
_isatty_r():
8000423e:	1141                	addi	sp,sp,-16
80004240:	c422                	sw	s0,8(sp)
80004242:	842a                	mv	s0,a0
80004244:	852e                	mv	a0,a1
80004246:	8201a823          	sw	zero,-2000(gp) # 90000090 <errno>
8000424a:	c606                	sw	ra,12(sp)
8000424c:	eb9fb0ef          	jal	ra,80000104 <_isatty>
80004250:	57fd                	li	a5,-1
80004252:	00f51663          	bne	a0,a5,8000425e <_isatty_r+0x20>
80004256:	8301a783          	lw	a5,-2000(gp) # 90000090 <errno>
8000425a:	c391                	beqz	a5,8000425e <_isatty_r+0x20>
8000425c:	c01c                	sw	a5,0(s0)
8000425e:	40b2                	lw	ra,12(sp)
80004260:	4422                	lw	s0,8(sp)
80004262:	0141                	addi	sp,sp,16
80004264:	8082                	ret

80004266 <_lseek_r>:
_lseek_r():
80004266:	1141                	addi	sp,sp,-16
80004268:	c422                	sw	s0,8(sp)
8000426a:	842a                	mv	s0,a0
8000426c:	852e                	mv	a0,a1
8000426e:	85b2                	mv	a1,a2
80004270:	8636                	mv	a2,a3
80004272:	8201a823          	sw	zero,-2000(gp) # 90000090 <errno>
80004276:	c606                	sw	ra,12(sp)
80004278:	e9bfb0ef          	jal	ra,80000112 <_lseek>
8000427c:	57fd                	li	a5,-1
8000427e:	00f51663          	bne	a0,a5,8000428a <_lseek_r+0x24>
80004282:	8301a783          	lw	a5,-2000(gp) # 90000090 <errno>
80004286:	c391                	beqz	a5,8000428a <_lseek_r+0x24>
80004288:	c01c                	sw	a5,0(s0)
8000428a:	40b2                	lw	ra,12(sp)
8000428c:	4422                	lw	s0,8(sp)
8000428e:	0141                	addi	sp,sp,16
80004290:	8082                	ret

80004292 <memchr>:
memchr():
80004292:	0ff5f593          	zext.b	a1,a1
80004296:	962a                	add	a2,a2,a0
80004298:	00c51463          	bne	a0,a2,800042a0 <memchr+0xe>
8000429c:	4501                	li	a0,0
8000429e:	8082                	ret
800042a0:	00054783          	lbu	a5,0(a0)
800042a4:	feb78de3          	beq	a5,a1,8000429e <memchr+0xc>
800042a8:	0505                	addi	a0,a0,1
800042aa:	b7fd                	j	80004298 <memchr+0x6>

800042ac <__malloc_lock>:
__malloc_lock():
800042ac:	8082                	ret

800042ae <__malloc_unlock>:
__malloc_unlock():
800042ae:	8082                	ret

800042b0 <_read_r>:
_read_r():
800042b0:	1141                	addi	sp,sp,-16
800042b2:	c422                	sw	s0,8(sp)
800042b4:	842a                	mv	s0,a0
800042b6:	852e                	mv	a0,a1
800042b8:	85b2                	mv	a1,a2
800042ba:	8636                	mv	a2,a3
800042bc:	8201a823          	sw	zero,-2000(gp) # 90000090 <errno>
800042c0:	c606                	sw	ra,12(sp)
800042c2:	e55fb0ef          	jal	ra,80000116 <_read>
800042c6:	57fd                	li	a5,-1
800042c8:	00f51663          	bne	a0,a5,800042d4 <_read_r+0x24>
800042cc:	8301a783          	lw	a5,-2000(gp) # 90000090 <errno>
800042d0:	c391                	beqz	a5,800042d4 <_read_r+0x24>
800042d2:	c01c                	sw	a5,0(s0)
800042d4:	40b2                	lw	ra,12(sp)
800042d6:	4422                	lw	s0,8(sp)
800042d8:	0141                	addi	sp,sp,16
800042da:	8082                	ret

800042dc <_raise_r>:
_raise_r():
800042dc:	1101                	addi	sp,sp,-32
800042de:	cc22                	sw	s0,24(sp)
800042e0:	ce06                	sw	ra,28(sp)
800042e2:	47fd                	li	a5,31
800042e4:	842a                	mv	s0,a0
800042e6:	00b7f963          	bgeu	a5,a1,800042f8 <_raise_r+0x1c>
800042ea:	47d9                	li	a5,22
800042ec:	c11c                	sw	a5,0(a0)
800042ee:	557d                	li	a0,-1
800042f0:	40f2                	lw	ra,28(sp)
800042f2:	4462                	lw	s0,24(sp)
800042f4:	6105                	addi	sp,sp,32
800042f6:	8082                	ret
800042f8:	417c                	lw	a5,68(a0)
800042fa:	862e                	mv	a2,a1
800042fc:	c791                	beqz	a5,80004308 <_raise_r+0x2c>
800042fe:	00259713          	slli	a4,a1,0x2
80004302:	97ba                	add	a5,a5,a4
80004304:	4398                	lw	a4,0(a5)
80004306:	eb19                	bnez	a4,8000431c <_raise_r+0x40>
80004308:	8522                	mv	a0,s0
8000430a:	c632                	sw	a2,12(sp)
8000430c:	2095                	jal	80004370 <_getpid_r>
8000430e:	85aa                	mv	a1,a0
80004310:	8522                	mv	a0,s0
80004312:	4462                	lw	s0,24(sp)
80004314:	4632                	lw	a2,12(sp)
80004316:	40f2                	lw	ra,28(sp)
80004318:	6105                	addi	sp,sp,32
8000431a:	a035                	j	80004346 <_kill_r>
8000431c:	4685                	li	a3,1
8000431e:	4501                	li	a0,0
80004320:	fcd708e3          	beq	a4,a3,800042f0 <_raise_r+0x14>
80004324:	56fd                	li	a3,-1
80004326:	00d71663          	bne	a4,a3,80004332 <_raise_r+0x56>
8000432a:	47d9                	li	a5,22
8000432c:	c01c                	sw	a5,0(s0)
8000432e:	4505                	li	a0,1
80004330:	b7c1                	j	800042f0 <_raise_r+0x14>
80004332:	852e                	mv	a0,a1
80004334:	0007a023          	sw	zero,0(a5) # 1000 <__stack_size+0x800>
80004338:	9702                	jalr	a4
8000433a:	4501                	li	a0,0
8000433c:	bf55                	j	800042f0 <_raise_r+0x14>

8000433e <raise>:
raise():
8000433e:	85aa                	mv	a1,a0
80004340:	8101a503          	lw	a0,-2032(gp) # 90000070 <_impure_ptr>
80004344:	bf61                	j	800042dc <_raise_r>

80004346 <_kill_r>:
_kill_r():
80004346:	1141                	addi	sp,sp,-16
80004348:	c422                	sw	s0,8(sp)
8000434a:	842a                	mv	s0,a0
8000434c:	852e                	mv	a0,a1
8000434e:	85b2                	mv	a1,a2
80004350:	8201a823          	sw	zero,-2000(gp) # 90000090 <errno>
80004354:	c606                	sw	ra,12(sp)
80004356:	db3fb0ef          	jal	ra,80000108 <_kill>
8000435a:	57fd                	li	a5,-1
8000435c:	00f51663          	bne	a0,a5,80004368 <_kill_r+0x22>
80004360:	8301a783          	lw	a5,-2000(gp) # 90000090 <errno>
80004364:	c391                	beqz	a5,80004368 <_kill_r+0x22>
80004366:	c01c                	sw	a5,0(s0)
80004368:	40b2                	lw	ra,12(sp)
8000436a:	4422                	lw	s0,8(sp)
8000436c:	0141                	addi	sp,sp,16
8000436e:	8082                	ret

80004370 <_getpid_r>:
_getpid_r():
80004370:	d91fb06f          	j	80000100 <_getpid>
