Archive member included to satisfy reference by file (symbol)

c:/microdownload/nucleistudio/toolchain/gcc/bin/../lib/gcc/riscv-nuclei-elf/10.2.0/rv32imac/ilp32\libgcc.a(_divdi3.o)
                              ./hbird_sdk/SoC/hbirdv2/Common/Source/Stubs/gettimeofday.o (__divdi3)
c:/microdownload/nucleistudio/toolchain/gcc/bin/../lib/gcc/riscv-nuclei-elf/10.2.0/rv32imac/ilp32\libgcc.a(_udivdi3.o)
                              ./hbird_sdk/SoC/hbirdv2/Common/Source/Stubs/gettimeofday.o (__udivdi3)
c:/microdownload/nucleistudio/toolchain/gcc/bin/../lib/gcc/riscv-nuclei-elf/10.2.0/rv32imac/ilp32\libgcc.a(_umoddi3.o)
                              ./hbird_sdk/SoC/hbirdv2/Common/Source/Stubs/gettimeofday.o (__umoddi3)
c:/microdownload/nucleistudio/toolchain/gcc/bin/../lib/gcc/riscv-nuclei-elf/10.2.0/rv32imac/ilp32\libgcc.a(_clz.o)
                              c:/microdownload/nucleistudio/toolchain/gcc/bin/../lib/gcc/riscv-nuclei-elf/10.2.0/rv32imac/ilp32\libgcc.a(_divdi3.o) (__clz_tab)
c:/microdownload/nucleistudio/toolchain/gcc/bin/../lib/gcc/riscv-nuclei-elf/10.2.0/../../../../riscv-nuclei-elf/lib/rv32imac/ilp32\libg_nano.a(lib_a-atexit.o)
                              ./hbird_sdk/SoC/hbirdv2/Common/Source/GCC/startup_hbirdv2.o (atexit)
c:/microdownload/nucleistudio/toolchain/gcc/bin/../lib/gcc/riscv-nuclei-elf/10.2.0/../../../../riscv-nuclei-elf/lib/rv32imac/ilp32\libg_nano.a(lib_a-fini.o)
                              ./hbird_sdk/SoC/hbirdv2/Common/Source/GCC/startup_hbirdv2.o (__libc_fini_array)
c:/microdownload/nucleistudio/toolchain/gcc/bin/../lib/gcc/riscv-nuclei-elf/10.2.0/../../../../riscv-nuclei-elf/lib/rv32imac/ilp32\libg_nano.a(lib_a-init.o)
                              ./hbird_sdk/SoC/hbirdv2/Common/Source/GCC/startup_hbirdv2.o (__libc_init_array)
c:/microdownload/nucleistudio/toolchain/gcc/bin/../lib/gcc/riscv-nuclei-elf/10.2.0/../../../../riscv-nuclei-elf/lib/rv32imac/ilp32\libg_nano.a(lib_a-memcpy.o)
                              ./application/InfoNES_System.o (memcpy)
c:/microdownload/nucleistudio/toolchain/gcc/bin/../lib/gcc/riscv-nuclei-elf/10.2.0/../../../../riscv-nuclei-elf/lib/rv32imac/ilp32\libg_nano.a(lib_a-memset.o)
                              ./application/ILI93xx.o (memset)
c:/microdownload/nucleistudio/toolchain/gcc/bin/../lib/gcc/riscv-nuclei-elf/10.2.0/../../../../riscv-nuclei-elf/lib/rv32imac/ilp32\libg_nano.a(lib_a-printf.o)
                              ./hbird_sdk/SoC/hbirdv2/Common/Source/system_hbirdv2.o (printf)
c:/microdownload/nucleistudio/toolchain/gcc/bin/../lib/gcc/riscv-nuclei-elf/10.2.0/../../../../riscv-nuclei-elf/lib/rv32imac/ilp32\libg_nano.a(lib_a-puts.o)
                              ./hbird_sdk/SoC/hbirdv2/Common/Source/system_hbirdv2.o (puts)
c:/microdownload/nucleistudio/toolchain/gcc/bin/../lib/gcc/riscv-nuclei-elf/10.2.0/../../../../riscv-nuclei-elf/lib/rv32imac/ilp32\libg_nano.a(lib_a-reent.o)
                              ./hbird_sdk/SoC/hbirdv2/Common/Source/Stubs/close.o (errno)
c:/microdownload/nucleistudio/toolchain/gcc/bin/../lib/gcc/riscv-nuclei-elf/10.2.0/../../../../riscv-nuclei-elf/lib/rv32imac/ilp32\libg_nano.a(lib_a-sysisatty.o)
                              ./hbird_sdk/SoC/hbirdv2/Common/Source/Stubs/write.o (isatty)
c:/microdownload/nucleistudio/toolchain/gcc/bin/../lib/gcc/riscv-nuclei-elf/10.2.0/../../../../riscv-nuclei-elf/lib/rv32imac/ilp32\libg_nano.a(lib_a-wbuf.o)
                              c:/microdownload/nucleistudio/toolchain/gcc/bin/../lib/gcc/riscv-nuclei-elf/10.2.0/../../../../riscv-nuclei-elf/lib/rv32imac/ilp32\libg_nano.a(lib_a-puts.o) (__swbuf_r)
c:/microdownload/nucleistudio/toolchain/gcc/bin/../lib/gcc/riscv-nuclei-elf/10.2.0/../../../../riscv-nuclei-elf/lib/rv32imac/ilp32\libg_nano.a(lib_a-wsetup.o)
                              c:/microdownload/nucleistudio/toolchain/gcc/bin/../lib/gcc/riscv-nuclei-elf/10.2.0/../../../../riscv-nuclei-elf/lib/rv32imac/ilp32\libg_nano.a(lib_a-puts.o) (__swsetup_r)
c:/microdownload/nucleistudio/toolchain/gcc/bin/../lib/gcc/riscv-nuclei-elf/10.2.0/../../../../riscv-nuclei-elf/lib/rv32imac/ilp32\libg_nano.a(lib_a-__atexit.o)
                              c:/microdownload/nucleistudio/toolchain/gcc/bin/../lib/gcc/riscv-nuclei-elf/10.2.0/../../../../riscv-nuclei-elf/lib/rv32imac/ilp32\libg_nano.a(lib_a-atexit.o) (__register_exitproc)
c:/microdownload/nucleistudio/toolchain/gcc/bin/../lib/gcc/riscv-nuclei-elf/10.2.0/../../../../riscv-nuclei-elf/lib/rv32imac/ilp32\libg_nano.a(lib_a-__call_atexit.o)
                              c:/microdownload/nucleistudio/toolchain/gcc/bin/../lib/gcc/riscv-nuclei-elf/10.2.0/../../../../riscv-nuclei-elf/lib/rv32imac/ilp32\libg_nano.a(lib_a-__atexit.o) (__call_exitprocs)
c:/microdownload/nucleistudio/toolchain/gcc/bin/../lib/gcc/riscv-nuclei-elf/10.2.0/../../../../riscv-nuclei-elf/lib/rv32imac/ilp32\libg_nano.a(lib_a-fflush.o)
                              c:/microdownload/nucleistudio/toolchain/gcc/bin/../lib/gcc/riscv-nuclei-elf/10.2.0/../../../../riscv-nuclei-elf/lib/rv32imac/ilp32\libg_nano.a(lib_a-wbuf.o) (_fflush_r)
c:/microdownload/nucleistudio/toolchain/gcc/bin/../lib/gcc/riscv-nuclei-elf/10.2.0/../../../../riscv-nuclei-elf/lib/rv32imac/ilp32\libg_nano.a(lib_a-findfp.o)
                              c:/microdownload/nucleistudio/toolchain/gcc/bin/../lib/gcc/riscv-nuclei-elf/10.2.0/../../../../riscv-nuclei-elf/lib/rv32imac/ilp32\libg_nano.a(lib_a-printf.o) (__sinit)
c:/microdownload/nucleistudio/toolchain/gcc/bin/../lib/gcc/riscv-nuclei-elf/10.2.0/../../../../riscv-nuclei-elf/lib/rv32imac/ilp32\libg_nano.a(lib_a-fwalk.o)
                              c:/microdownload/nucleistudio/toolchain/gcc/bin/../lib/gcc/riscv-nuclei-elf/10.2.0/../../../../riscv-nuclei-elf/lib/rv32imac/ilp32\libg_nano.a(lib_a-findfp.o) (_fwalk)
c:/microdownload/nucleistudio/toolchain/gcc/bin/../lib/gcc/riscv-nuclei-elf/10.2.0/../../../../riscv-nuclei-elf/lib/rv32imac/ilp32\libg_nano.a(lib_a-impure.o)
                              c:/microdownload/nucleistudio/toolchain/gcc/bin/../lib/gcc/riscv-nuclei-elf/10.2.0/../../../../riscv-nuclei-elf/lib/rv32imac/ilp32\libg_nano.a(lib_a-fflush.o) (_global_impure_ptr)
c:/microdownload/nucleistudio/toolchain/gcc/bin/../lib/gcc/riscv-nuclei-elf/10.2.0/../../../../riscv-nuclei-elf/lib/rv32imac/ilp32\libg_nano.a(lib_a-makebuf.o)
                              c:/microdownload/nucleistudio/toolchain/gcc/bin/../lib/gcc/riscv-nuclei-elf/10.2.0/../../../../riscv-nuclei-elf/lib/rv32imac/ilp32\libg_nano.a(lib_a-wsetup.o) (__smakebuf_r)
c:/microdownload/nucleistudio/toolchain/gcc/bin/../lib/gcc/riscv-nuclei-elf/10.2.0/../../../../riscv-nuclei-elf/lib/rv32imac/ilp32\libg_nano.a(lib_a-nano-freer.o)
                              c:/microdownload/nucleistudio/toolchain/gcc/bin/../lib/gcc/riscv-nuclei-elf/10.2.0/../../../../riscv-nuclei-elf/lib/rv32imac/ilp32\libg_nano.a(lib_a-reent.o) (_free_r)
c:/microdownload/nucleistudio/toolchain/gcc/bin/../lib/gcc/riscv-nuclei-elf/10.2.0/../../../../riscv-nuclei-elf/lib/rv32imac/ilp32\libg_nano.a(lib_a-nano-mallocr.o)
                              c:/microdownload/nucleistudio/toolchain/gcc/bin/../lib/gcc/riscv-nuclei-elf/10.2.0/../../../../riscv-nuclei-elf/lib/rv32imac/ilp32\libg_nano.a(lib_a-findfp.o) (_malloc_r)
c:/microdownload/nucleistudio/toolchain/gcc/bin/../lib/gcc/riscv-nuclei-elf/10.2.0/../../../../riscv-nuclei-elf/lib/rv32imac/ilp32\libg_nano.a(lib_a-nano-vfprintf.o)
                              c:/microdownload/nucleistudio/toolchain/gcc/bin/../lib/gcc/riscv-nuclei-elf/10.2.0/../../../../riscv-nuclei-elf/lib/rv32imac/ilp32\libg_nano.a(lib_a-printf.o) (_vfprintf_r)
c:/microdownload/nucleistudio/toolchain/gcc/bin/../lib/gcc/riscv-nuclei-elf/10.2.0/../../../../riscv-nuclei-elf/lib/rv32imac/ilp32\libg_nano.a(lib_a-nano-vfprintf_i.o)
                              c:/microdownload/nucleistudio/toolchain/gcc/bin/../lib/gcc/riscv-nuclei-elf/10.2.0/../../../../riscv-nuclei-elf/lib/rv32imac/ilp32\libg_nano.a(lib_a-nano-vfprintf.o) (_printf_i)
c:/microdownload/nucleistudio/toolchain/gcc/bin/../lib/gcc/riscv-nuclei-elf/10.2.0/../../../../riscv-nuclei-elf/lib/rv32imac/ilp32\libg_nano.a(lib_a-sbrkr.o)
                              c:/microdownload/nucleistudio/toolchain/gcc/bin/../lib/gcc/riscv-nuclei-elf/10.2.0/../../../../riscv-nuclei-elf/lib/rv32imac/ilp32\libg_nano.a(lib_a-nano-mallocr.o) (_sbrk_r)
c:/microdownload/nucleistudio/toolchain/gcc/bin/../lib/gcc/riscv-nuclei-elf/10.2.0/../../../../riscv-nuclei-elf/lib/rv32imac/ilp32\libg_nano.a(lib_a-stdio.o)
                              c:/microdownload/nucleistudio/toolchain/gcc/bin/../lib/gcc/riscv-nuclei-elf/10.2.0/../../../../riscv-nuclei-elf/lib/rv32imac/ilp32\libg_nano.a(lib_a-findfp.o) (__sread)
c:/microdownload/nucleistudio/toolchain/gcc/bin/../lib/gcc/riscv-nuclei-elf/10.2.0/../../../../riscv-nuclei-elf/lib/rv32imac/ilp32\libg_nano.a(lib_a-writer.o)
                              c:/microdownload/nucleistudio/toolchain/gcc/bin/../lib/gcc/riscv-nuclei-elf/10.2.0/../../../../riscv-nuclei-elf/lib/rv32imac/ilp32\libg_nano.a(lib_a-stdio.o) (_write_r)
c:/microdownload/nucleistudio/toolchain/gcc/bin/../lib/gcc/riscv-nuclei-elf/10.2.0/../../../../riscv-nuclei-elf/lib/rv32imac/ilp32\libg_nano.a(lib_a-closer.o)
                              c:/microdownload/nucleistudio/toolchain/gcc/bin/../lib/gcc/riscv-nuclei-elf/10.2.0/../../../../riscv-nuclei-elf/lib/rv32imac/ilp32\libg_nano.a(lib_a-stdio.o) (_close_r)
c:/microdownload/nucleistudio/toolchain/gcc/bin/../lib/gcc/riscv-nuclei-elf/10.2.0/../../../../riscv-nuclei-elf/lib/rv32imac/ilp32\libg_nano.a(lib_a-fstatr.o)
                              c:/microdownload/nucleistudio/toolchain/gcc/bin/../lib/gcc/riscv-nuclei-elf/10.2.0/../../../../riscv-nuclei-elf/lib/rv32imac/ilp32\libg_nano.a(lib_a-makebuf.o) (_fstat_r)
c:/microdownload/nucleistudio/toolchain/gcc/bin/../lib/gcc/riscv-nuclei-elf/10.2.0/../../../../riscv-nuclei-elf/lib/rv32imac/ilp32\libg_nano.a(lib_a-fvwrite.o)
                              c:/microdownload/nucleistudio/toolchain/gcc/bin/../lib/gcc/riscv-nuclei-elf/10.2.0/../../../../riscv-nuclei-elf/lib/rv32imac/ilp32\libg_nano.a(lib_a-nano-vfprintf.o) (__sfvwrite_r)
c:/microdownload/nucleistudio/toolchain/gcc/bin/../lib/gcc/riscv-nuclei-elf/10.2.0/../../../../riscv-nuclei-elf/lib/rv32imac/ilp32\libg_nano.a(lib_a-isattyr.o)
                              c:/microdownload/nucleistudio/toolchain/gcc/bin/../lib/gcc/riscv-nuclei-elf/10.2.0/../../../../riscv-nuclei-elf/lib/rv32imac/ilp32\libg_nano.a(lib_a-makebuf.o) (_isatty_r)
c:/microdownload/nucleistudio/toolchain/gcc/bin/../lib/gcc/riscv-nuclei-elf/10.2.0/../../../../riscv-nuclei-elf/lib/rv32imac/ilp32\libg_nano.a(lib_a-lseekr.o)
                              c:/microdownload/nucleistudio/toolchain/gcc/bin/../lib/gcc/riscv-nuclei-elf/10.2.0/../../../../riscv-nuclei-elf/lib/rv32imac/ilp32\libg_nano.a(lib_a-stdio.o) (_lseek_r)
c:/microdownload/nucleistudio/toolchain/gcc/bin/../lib/gcc/riscv-nuclei-elf/10.2.0/../../../../riscv-nuclei-elf/lib/rv32imac/ilp32\libg_nano.a(lib_a-memchr.o)
                              c:/microdownload/nucleistudio/toolchain/gcc/bin/../lib/gcc/riscv-nuclei-elf/10.2.0/../../../../riscv-nuclei-elf/lib/rv32imac/ilp32\libg_nano.a(lib_a-nano-vfprintf.o) (memchr)
c:/microdownload/nucleistudio/toolchain/gcc/bin/../lib/gcc/riscv-nuclei-elf/10.2.0/../../../../riscv-nuclei-elf/lib/rv32imac/ilp32\libg_nano.a(lib_a-memmove-stub.o)
                              c:/microdownload/nucleistudio/toolchain/gcc/bin/../lib/gcc/riscv-nuclei-elf/10.2.0/../../../../riscv-nuclei-elf/lib/rv32imac/ilp32\libg_nano.a(lib_a-fvwrite.o) (memmove)
c:/microdownload/nucleistudio/toolchain/gcc/bin/../lib/gcc/riscv-nuclei-elf/10.2.0/../../../../riscv-nuclei-elf/lib/rv32imac/ilp32\libg_nano.a(lib_a-mlock.o)
                              c:/microdownload/nucleistudio/toolchain/gcc/bin/../lib/gcc/riscv-nuclei-elf/10.2.0/../../../../riscv-nuclei-elf/lib/rv32imac/ilp32\libg_nano.a(lib_a-nano-freer.o) (__malloc_lock)
c:/microdownload/nucleistudio/toolchain/gcc/bin/../lib/gcc/riscv-nuclei-elf/10.2.0/../../../../riscv-nuclei-elf/lib/rv32imac/ilp32\libg_nano.a(lib_a-nano-reallocr.o)
                              c:/microdownload/nucleistudio/toolchain/gcc/bin/../lib/gcc/riscv-nuclei-elf/10.2.0/../../../../riscv-nuclei-elf/lib/rv32imac/ilp32\libg_nano.a(lib_a-fvwrite.o) (_realloc_r)
c:/microdownload/nucleistudio/toolchain/gcc/bin/../lib/gcc/riscv-nuclei-elf/10.2.0/../../../../riscv-nuclei-elf/lib/rv32imac/ilp32\libg_nano.a(lib_a-readr.o)
                              c:/microdownload/nucleistudio/toolchain/gcc/bin/../lib/gcc/riscv-nuclei-elf/10.2.0/../../../../riscv-nuclei-elf/lib/rv32imac/ilp32\libg_nano.a(lib_a-stdio.o) (_read_r)
c:/microdownload/nucleistudio/toolchain/gcc/bin/../lib/gcc/riscv-nuclei-elf/10.2.0/../../../../riscv-nuclei-elf/lib/rv32imac/ilp32\libg_nano.a(lib_a-nano-msizer.o)
                              c:/microdownload/nucleistudio/toolchain/gcc/bin/../lib/gcc/riscv-nuclei-elf/10.2.0/../../../../riscv-nuclei-elf/lib/rv32imac/ilp32\libg_nano.a(lib_a-nano-reallocr.o) (_malloc_usable_size_r)

Discarded input sections

 .text          0x0000000000000000        0x0 ./hbird_sdk/SoC/hbirdv2/Common/Source/Stubs/clock_getres.o
 .data          0x0000000000000000        0x0 ./hbird_sdk/SoC/hbirdv2/Common/Source/Stubs/clock_getres.o
 .bss           0x0000000000000000        0x0 ./hbird_sdk/SoC/hbirdv2/Common/Source/Stubs/clock_getres.o
 .text.clock_getres
                0x0000000000000000       0x22 ./hbird_sdk/SoC/hbirdv2/Common/Source/Stubs/clock_getres.o
 .debug_info    0x0000000000000000      0x135 ./hbird_sdk/SoC/hbirdv2/Common/Source/Stubs/clock_getres.o
 .debug_abbrev  0x0000000000000000       0xb7 ./hbird_sdk/SoC/hbirdv2/Common/Source/Stubs/clock_getres.o
 .debug_loc     0x0000000000000000       0x21 ./hbird_sdk/SoC/hbirdv2/Common/Source/Stubs/clock_getres.o
 .debug_aranges
                0x0000000000000000       0x20 ./hbird_sdk/SoC/hbirdv2/Common/Source/Stubs/clock_getres.o
 .debug_ranges  0x0000000000000000       0x10 ./hbird_sdk/SoC/hbirdv2/Common/Source/Stubs/clock_getres.o
 .debug_line    0x0000000000000000      0x204 ./hbird_sdk/SoC/hbirdv2/Common/Source/Stubs/clock_getres.o
 .debug_str     0x0000000000000000      0x232 ./hbird_sdk/SoC/hbirdv2/Common/Source/Stubs/clock_getres.o
 .comment       0x0000000000000000       0x13 ./hbird_sdk/SoC/hbirdv2/Common/Source/Stubs/clock_getres.o
 .debug_frame   0x0000000000000000       0x20 ./hbird_sdk/SoC/hbirdv2/Common/Source/Stubs/clock_getres.o
 .riscv.attributes
                0x0000000000000000       0x2b ./hbird_sdk/SoC/hbirdv2/Common/Source/Stubs/clock_getres.o
 .text          0x0000000000000000        0x0 ./hbird_sdk/SoC/hbirdv2/Common/Source/Stubs/clock_gettime.o
 .data          0x0000000000000000        0x0 ./hbird_sdk/SoC/hbirdv2/Common/Source/Stubs/clock_gettime.o
 .bss           0x0000000000000000        0x0 ./hbird_sdk/SoC/hbirdv2/Common/Source/Stubs/clock_gettime.o
 .text.clock_gettime
                0x0000000000000000       0x32 ./hbird_sdk/SoC/hbirdv2/Common/Source/Stubs/clock_gettime.o
 .debug_info    0x0000000000000000      0x191 ./hbird_sdk/SoC/hbirdv2/Common/Source/Stubs/clock_gettime.o
 .debug_abbrev  0x0000000000000000       0xf0 ./hbird_sdk/SoC/hbirdv2/Common/Source/Stubs/clock_gettime.o
 .debug_loc     0x0000000000000000       0x6d ./hbird_sdk/SoC/hbirdv2/Common/Source/Stubs/clock_gettime.o
 .debug_aranges
                0x0000000000000000       0x20 ./hbird_sdk/SoC/hbirdv2/Common/Source/Stubs/clock_gettime.o
 .debug_ranges  0x0000000000000000       0x10 ./hbird_sdk/SoC/hbirdv2/Common/Source/Stubs/clock_gettime.o
 .debug_line    0x0000000000000000      0x1d0 ./hbird_sdk/SoC/hbirdv2/Common/Source/Stubs/clock_gettime.o
 .debug_str     0x0000000000000000      0x24f ./hbird_sdk/SoC/hbirdv2/Common/Source/Stubs/clock_gettime.o
 .comment       0x0000000000000000       0x13 ./hbird_sdk/SoC/hbirdv2/Common/Source/Stubs/clock_gettime.o
 .debug_frame   0x0000000000000000       0x30 ./hbird_sdk/SoC/hbirdv2/Common/Source/Stubs/clock_gettime.o
 .riscv.attributes
                0x0000000000000000       0x2b ./hbird_sdk/SoC/hbirdv2/Common/Source/Stubs/clock_gettime.o
 .text          0x0000000000000000        0x0 ./hbird_sdk/SoC/hbirdv2/Common/Source/Stubs/clock_settime.o
 .data          0x0000000000000000        0x0 ./hbird_sdk/SoC/hbirdv2/Common/Source/Stubs/clock_settime.o
 .bss           0x0000000000000000        0x0 ./hbird_sdk/SoC/hbirdv2/Common/Source/Stubs/clock_settime.o
 .text.clock_settime
                0x0000000000000000        0x4 ./hbird_sdk/SoC/hbirdv2/Common/Source/Stubs/clock_settime.o
 .debug_info    0x0000000000000000      0x115 ./hbird_sdk/SoC/hbirdv2/Common/Source/Stubs/clock_settime.o
 .debug_abbrev  0x0000000000000000       0xab ./hbird_sdk/SoC/hbirdv2/Common/Source/Stubs/clock_settime.o
 .debug_loc     0x0000000000000000       0x21 ./hbird_sdk/SoC/hbirdv2/Common/Source/Stubs/clock_settime.o
 .debug_aranges
                0x0000000000000000       0x20 ./hbird_sdk/SoC/hbirdv2/Common/Source/Stubs/clock_settime.o
 .debug_ranges  0x0000000000000000       0x10 ./hbird_sdk/SoC/hbirdv2/Common/Source/Stubs/clock_settime.o
 .debug_line    0x0000000000000000      0x15c ./hbird_sdk/SoC/hbirdv2/Common/Source/Stubs/clock_settime.o
 .debug_str     0x0000000000000000      0x210 ./hbird_sdk/SoC/hbirdv2/Common/Source/Stubs/clock_settime.o
 .comment       0x0000000000000000       0x13 ./hbird_sdk/SoC/hbirdv2/Common/Source/Stubs/clock_settime.o
 .debug_frame   0x0000000000000000       0x20 ./hbird_sdk/SoC/hbirdv2/Common/Source/Stubs/clock_settime.o
 .riscv.attributes
                0x0000000000000000       0x2b ./hbird_sdk/SoC/hbirdv2/Common/Source/Stubs/clock_settime.o
 .text          0x0000000000000000        0x0 ./hbird_sdk/SoC/hbirdv2/Common/Source/Stubs/close.o
 .data          0x0000000000000000        0x0 ./hbird_sdk/SoC/hbirdv2/Common/Source/Stubs/close.o
 .bss           0x0000000000000000        0x0 ./hbird_sdk/SoC/hbirdv2/Common/Source/Stubs/close.o
 .text          0x0000000000000000        0x0 ./hbird_sdk/SoC/hbirdv2/Common/Source/Stubs/execve.o
 .data          0x0000000000000000        0x0 ./hbird_sdk/SoC/hbirdv2/Common/Source/Stubs/execve.o
 .bss           0x0000000000000000        0x0 ./hbird_sdk/SoC/hbirdv2/Common/Source/Stubs/execve.o
 .text._execve  0x0000000000000000        0xe ./hbird_sdk/SoC/hbirdv2/Common/Source/Stubs/execve.o
 .debug_info    0x0000000000000000       0xd9 ./hbird_sdk/SoC/hbirdv2/Common/Source/Stubs/execve.o
 .debug_abbrev  0x0000000000000000       0x97 ./hbird_sdk/SoC/hbirdv2/Common/Source/Stubs/execve.o
 .debug_loc     0x0000000000000000       0x21 ./hbird_sdk/SoC/hbirdv2/Common/Source/Stubs/execve.o
 .debug_aranges
                0x0000000000000000       0x20 ./hbird_sdk/SoC/hbirdv2/Common/Source/Stubs/execve.o
 .debug_ranges  0x0000000000000000       0x10 ./hbird_sdk/SoC/hbirdv2/Common/Source/Stubs/execve.o
 .debug_line    0x0000000000000000       0x89 ./hbird_sdk/SoC/hbirdv2/Common/Source/Stubs/execve.o
 .debug_str     0x0000000000000000      0x1c5 ./hbird_sdk/SoC/hbirdv2/Common/Source/Stubs/execve.o
 .comment       0x0000000000000000       0x13 ./hbird_sdk/SoC/hbirdv2/Common/Source/Stubs/execve.o
 .debug_frame   0x0000000000000000       0x20 ./hbird_sdk/SoC/hbirdv2/Common/Source/Stubs/execve.o
 .riscv.attributes
                0x0000000000000000       0x2b ./hbird_sdk/SoC/hbirdv2/Common/Source/Stubs/execve.o
 .text          0x0000000000000000        0x0 ./hbird_sdk/SoC/hbirdv2/Common/Source/Stubs/exit.o
 .data          0x0000000000000000        0x0 ./hbird_sdk/SoC/hbirdv2/Common/Source/Stubs/exit.o
 .bss           0x0000000000000000        0x0 ./hbird_sdk/SoC/hbirdv2/Common/Source/Stubs/exit.o
 .text._exit    0x0000000000000000        0x6 ./hbird_sdk/SoC/hbirdv2/Common/Source/Stubs/exit.o
 .debug_info    0x0000000000000000       0xb1 ./hbird_sdk/SoC/hbirdv2/Common/Source/Stubs/exit.o
 .debug_abbrev  0x0000000000000000       0x7c ./hbird_sdk/SoC/hbirdv2/Common/Source/Stubs/exit.o
 .debug_aranges
                0x0000000000000000       0x20 ./hbird_sdk/SoC/hbirdv2/Common/Source/Stubs/exit.o
 .debug_ranges  0x0000000000000000       0x10 ./hbird_sdk/SoC/hbirdv2/Common/Source/Stubs/exit.o
 .debug_line    0x0000000000000000       0xee ./hbird_sdk/SoC/hbirdv2/Common/Source/Stubs/exit.o
 .debug_str     0x0000000000000000      0x1b2 ./hbird_sdk/SoC/hbirdv2/Common/Source/Stubs/exit.o
 .comment       0x0000000000000000       0x13 ./hbird_sdk/SoC/hbirdv2/Common/Source/Stubs/exit.o
 .debug_frame   0x0000000000000000       0x20 ./hbird_sdk/SoC/hbirdv2/Common/Source/Stubs/exit.o
 .riscv.attributes
                0x0000000000000000       0x2f ./hbird_sdk/SoC/hbirdv2/Common/Source/Stubs/exit.o
 .text          0x0000000000000000        0x0 ./hbird_sdk/SoC/hbirdv2/Common/Source/Stubs/fork.o
 .data          0x0000000000000000        0x0 ./hbird_sdk/SoC/hbirdv2/Common/Source/Stubs/fork.o
 .bss           0x0000000000000000        0x0 ./hbird_sdk/SoC/hbirdv2/Common/Source/Stubs/fork.o
 .text._fork    0x0000000000000000        0xe ./hbird_sdk/SoC/hbirdv2/Common/Source/Stubs/fork.o
 .debug_info    0x0000000000000000       0x9c ./hbird_sdk/SoC/hbirdv2/Common/Source/Stubs/fork.o
 .debug_abbrev  0x0000000000000000       0x59 ./hbird_sdk/SoC/hbirdv2/Common/Source/Stubs/fork.o
 .debug_aranges
                0x0000000000000000       0x20 ./hbird_sdk/SoC/hbirdv2/Common/Source/Stubs/fork.o
 .debug_ranges  0x0000000000000000       0x10 ./hbird_sdk/SoC/hbirdv2/Common/Source/Stubs/fork.o
 .debug_line    0x0000000000000000       0x87 ./hbird_sdk/SoC/hbirdv2/Common/Source/Stubs/fork.o
 .debug_str     0x0000000000000000      0x1b7 ./hbird_sdk/SoC/hbirdv2/Common/Source/Stubs/fork.o
 .comment       0x0000000000000000       0x13 ./hbird_sdk/SoC/hbirdv2/Common/Source/Stubs/fork.o
 .debug_frame   0x0000000000000000       0x20 ./hbird_sdk/SoC/hbirdv2/Common/Source/Stubs/fork.o
 .riscv.attributes
                0x0000000000000000       0x2b ./hbird_sdk/SoC/hbirdv2/Common/Source/Stubs/fork.o
 .text          0x0000000000000000        0x0 ./hbird_sdk/SoC/hbirdv2/Common/Source/Stubs/fstat.o
 .data          0x0000000000000000        0x0 ./hbird_sdk/SoC/hbirdv2/Common/Source/Stubs/fstat.o
 .bss           0x0000000000000000        0x0 ./hbird_sdk/SoC/hbirdv2/Common/Source/Stubs/fstat.o
 .text          0x0000000000000000        0x0 ./hbird_sdk/SoC/hbirdv2/Common/Source/Stubs/getpid.o
 .data          0x0000000000000000        0x0 ./hbird_sdk/SoC/hbirdv2/Common/Source/Stubs/getpid.o
 .bss           0x0000000000000000        0x0 ./hbird_sdk/SoC/hbirdv2/Common/Source/Stubs/getpid.o
 .text._getpid  0x0000000000000000        0x4 ./hbird_sdk/SoC/hbirdv2/Common/Source/Stubs/getpid.o
 .debug_info    0x0000000000000000       0x90 ./hbird_sdk/SoC/hbirdv2/Common/Source/Stubs/getpid.o
 .debug_abbrev  0x0000000000000000       0x46 ./hbird_sdk/SoC/hbirdv2/Common/Source/Stubs/getpid.o
 .debug_aranges
                0x0000000000000000       0x20 ./hbird_sdk/SoC/hbirdv2/Common/Source/Stubs/getpid.o
 .debug_ranges  0x0000000000000000       0x10 ./hbird_sdk/SoC/hbirdv2/Common/Source/Stubs/getpid.o
 .debug_line    0x0000000000000000       0x77 ./hbird_sdk/SoC/hbirdv2/Common/Source/Stubs/getpid.o
 .debug_str     0x0000000000000000      0x1b5 ./hbird_sdk/SoC/hbirdv2/Common/Source/Stubs/getpid.o
 .comment       0x0000000000000000       0x13 ./hbird_sdk/SoC/hbirdv2/Common/Source/Stubs/getpid.o
 .debug_frame   0x0000000000000000       0x20 ./hbird_sdk/SoC/hbirdv2/Common/Source/Stubs/getpid.o
 .riscv.attributes
                0x0000000000000000       0x2b ./hbird_sdk/SoC/hbirdv2/Common/Source/Stubs/getpid.o
 .text          0x0000000000000000        0x0 ./hbird_sdk/SoC/hbirdv2/Common/Source/Stubs/gettimeofday.o
 .data          0x0000000000000000        0x0 ./hbird_sdk/SoC/hbirdv2/Common/Source/Stubs/gettimeofday.o
 .bss           0x0000000000000000        0x0 ./hbird_sdk/SoC/hbirdv2/Common/Source/Stubs/gettimeofday.o
 .text._gettimeofday
                0x0000000000000000       0x92 ./hbird_sdk/SoC/hbirdv2/Common/Source/Stubs/gettimeofday.o
 .debug_info    0x0000000000000000      0x2c9 ./hbird_sdk/SoC/hbirdv2/Common/Source/Stubs/gettimeofday.o
 .debug_abbrev  0x0000000000000000      0x172 ./hbird_sdk/SoC/hbirdv2/Common/Source/Stubs/gettimeofday.o
 .debug_loc     0x0000000000000000       0xd5 ./hbird_sdk/SoC/hbirdv2/Common/Source/Stubs/gettimeofday.o
 .debug_aranges
                0x0000000000000000       0x20 ./hbird_sdk/SoC/hbirdv2/Common/Source/Stubs/gettimeofday.o
 .debug_ranges  0x0000000000000000       0x40 ./hbird_sdk/SoC/hbirdv2/Common/Source/Stubs/gettimeofday.o
 .debug_line    0x0000000000000000      0x383 ./hbird_sdk/SoC/hbirdv2/Common/Source/Stubs/gettimeofday.o
 .debug_str     0x0000000000000000      0x284 ./hbird_sdk/SoC/hbirdv2/Common/Source/Stubs/gettimeofday.o
 .comment       0x0000000000000000       0x13 ./hbird_sdk/SoC/hbirdv2/Common/Source/Stubs/gettimeofday.o
 .debug_frame   0x0000000000000000       0x3c ./hbird_sdk/SoC/hbirdv2/Common/Source/Stubs/gettimeofday.o
 .riscv.attributes
                0x0000000000000000       0x2f ./hbird_sdk/SoC/hbirdv2/Common/Source/Stubs/gettimeofday.o
 .text          0x0000000000000000        0x0 ./hbird_sdk/SoC/hbirdv2/Common/Source/Stubs/isatty.o
 .data          0x0000000000000000        0x0 ./hbird_sdk/SoC/hbirdv2/Common/Source/Stubs/isatty.o
 .bss           0x0000000000000000        0x0 ./hbird_sdk/SoC/hbirdv2/Common/Source/Stubs/isatty.o
 .text          0x0000000000000000        0x0 ./hbird_sdk/SoC/hbirdv2/Common/Source/Stubs/kill.o
 .data          0x0000000000000000        0x0 ./hbird_sdk/SoC/hbirdv2/Common/Source/Stubs/kill.o
 .bss           0x0000000000000000        0x0 ./hbird_sdk/SoC/hbirdv2/Common/Source/Stubs/kill.o
 .text._kill    0x0000000000000000        0xe ./hbird_sdk/SoC/hbirdv2/Common/Source/Stubs/kill.o
 .debug_info    0x0000000000000000       0xbb ./hbird_sdk/SoC/hbirdv2/Common/Source/Stubs/kill.o
 .debug_abbrev  0x0000000000000000       0x7b ./hbird_sdk/SoC/hbirdv2/Common/Source/Stubs/kill.o
 .debug_loc     0x0000000000000000       0x21 ./hbird_sdk/SoC/hbirdv2/Common/Source/Stubs/kill.o
 .debug_aranges
                0x0000000000000000       0x20 ./hbird_sdk/SoC/hbirdv2/Common/Source/Stubs/kill.o
 .debug_ranges  0x0000000000000000       0x10 ./hbird_sdk/SoC/hbirdv2/Common/Source/Stubs/kill.o
 .debug_line    0x0000000000000000       0x87 ./hbird_sdk/SoC/hbirdv2/Common/Source/Stubs/kill.o
 .debug_str     0x0000000000000000      0x1b7 ./hbird_sdk/SoC/hbirdv2/Common/Source/Stubs/kill.o
 .comment       0x0000000000000000       0x13 ./hbird_sdk/SoC/hbirdv2/Common/Source/Stubs/kill.o
 .debug_frame   0x0000000000000000       0x20 ./hbird_sdk/SoC/hbirdv2/Common/Source/Stubs/kill.o
 .riscv.attributes
                0x0000000000000000       0x2b ./hbird_sdk/SoC/hbirdv2/Common/Source/Stubs/kill.o
 .text          0x0000000000000000        0x0 ./hbird_sdk/SoC/hbirdv2/Common/Source/Stubs/link.o
 .data          0x0000000000000000        0x0 ./hbird_sdk/SoC/hbirdv2/Common/Source/Stubs/link.o
 .bss           0x0000000000000000        0x0 ./hbird_sdk/SoC/hbirdv2/Common/Source/Stubs/link.o
 .text._link    0x0000000000000000        0xe ./hbird_sdk/SoC/hbirdv2/Common/Source/Stubs/link.o
 .debug_info    0x0000000000000000       0xc1 ./hbird_sdk/SoC/hbirdv2/Common/Source/Stubs/link.o
 .debug_abbrev  0x0000000000000000       0x84 ./hbird_sdk/SoC/hbirdv2/Common/Source/Stubs/link.o
 .debug_loc     0x0000000000000000       0x21 ./hbird_sdk/SoC/hbirdv2/Common/Source/Stubs/link.o
 .debug_aranges
                0x0000000000000000       0x20 ./hbird_sdk/SoC/hbirdv2/Common/Source/Stubs/link.o
 .debug_ranges  0x0000000000000000       0x10 ./hbird_sdk/SoC/hbirdv2/Common/Source/Stubs/link.o
 .debug_line    0x0000000000000000       0x87 ./hbird_sdk/SoC/hbirdv2/Common/Source/Stubs/link.o
 .debug_str     0x0000000000000000      0x1b7 ./hbird_sdk/SoC/hbirdv2/Common/Source/Stubs/link.o
 .comment       0x0000000000000000       0x13 ./hbird_sdk/SoC/hbirdv2/Common/Source/Stubs/link.o
 .debug_frame   0x0000000000000000       0x20 ./hbird_sdk/SoC/hbirdv2/Common/Source/Stubs/link.o
 .riscv.attributes
                0x0000000000000000       0x2b ./hbird_sdk/SoC/hbirdv2/Common/Source/Stubs/link.o
 .text          0x0000000000000000        0x0 ./hbird_sdk/SoC/hbirdv2/Common/Source/Stubs/lseek.o
 .data          0x0000000000000000        0x0 ./hbird_sdk/SoC/hbirdv2/Common/Source/Stubs/lseek.o
 .bss           0x0000000000000000        0x0 ./hbird_sdk/SoC/hbirdv2/Common/Source/Stubs/lseek.o
 .text          0x0000000000000000        0x0 ./hbird_sdk/SoC/hbirdv2/Common/Source/Stubs/open.o
 .data          0x0000000000000000        0x0 ./hbird_sdk/SoC/hbirdv2/Common/Source/Stubs/open.o
 .bss           0x0000000000000000        0x0 ./hbird_sdk/SoC/hbirdv2/Common/Source/Stubs/open.o
 .text._open    0x0000000000000000       0x10 ./hbird_sdk/SoC/hbirdv2/Common/Source/Stubs/open.o
 .debug_info    0x0000000000000000       0xd4 ./hbird_sdk/SoC/hbirdv2/Common/Source/Stubs/open.o
 .debug_abbrev  0x0000000000000000       0x8b ./hbird_sdk/SoC/hbirdv2/Common/Source/Stubs/open.o
 .debug_loc     0x0000000000000000       0x21 ./hbird_sdk/SoC/hbirdv2/Common/Source/Stubs/open.o
 .debug_aranges
                0x0000000000000000       0x20 ./hbird_sdk/SoC/hbirdv2/Common/Source/Stubs/open.o
 .debug_ranges  0x0000000000000000       0x10 ./hbird_sdk/SoC/hbirdv2/Common/Source/Stubs/open.o
 .debug_line    0x0000000000000000       0x87 ./hbird_sdk/SoC/hbirdv2/Common/Source/Stubs/open.o
 .debug_str     0x0000000000000000      0x1c7 ./hbird_sdk/SoC/hbirdv2/Common/Source/Stubs/open.o
 .comment       0x0000000000000000       0x13 ./hbird_sdk/SoC/hbirdv2/Common/Source/Stubs/open.o
 .debug_frame   0x0000000000000000       0x20 ./hbird_sdk/SoC/hbirdv2/Common/Source/Stubs/open.o
 .riscv.attributes
                0x0000000000000000       0x2b ./hbird_sdk/SoC/hbirdv2/Common/Source/Stubs/open.o
 .text          0x0000000000000000        0x0 ./hbird_sdk/SoC/hbirdv2/Common/Source/Stubs/read.o
 .data          0x0000000000000000        0x0 ./hbird_sdk/SoC/hbirdv2/Common/Source/Stubs/read.o
 .bss           0x0000000000000000        0x0 ./hbird_sdk/SoC/hbirdv2/Common/Source/Stubs/read.o
 .text          0x0000000000000000        0x0 ./hbird_sdk/SoC/hbirdv2/Common/Source/Stubs/sbrk.o
 .data          0x0000000000000000        0x0 ./hbird_sdk/SoC/hbirdv2/Common/Source/Stubs/sbrk.o
 .bss           0x0000000000000000        0x0 ./hbird_sdk/SoC/hbirdv2/Common/Source/Stubs/sbrk.o
 .text          0x0000000000000000        0x0 ./hbird_sdk/SoC/hbirdv2/Common/Source/Stubs/stat.o
 .data          0x0000000000000000        0x0 ./hbird_sdk/SoC/hbirdv2/Common/Source/Stubs/stat.o
 .bss           0x0000000000000000        0x0 ./hbird_sdk/SoC/hbirdv2/Common/Source/Stubs/stat.o
 .text._stat    0x0000000000000000        0x8 ./hbird_sdk/SoC/hbirdv2/Common/Source/Stubs/stat.o
 .debug_info    0x0000000000000000      0x2c2 ./hbird_sdk/SoC/hbirdv2/Common/Source/Stubs/stat.o
 .debug_abbrev  0x0000000000000000       0xb6 ./hbird_sdk/SoC/hbirdv2/Common/Source/Stubs/stat.o
 .debug_loc     0x0000000000000000       0x21 ./hbird_sdk/SoC/hbirdv2/Common/Source/Stubs/stat.o
 .debug_aranges
                0x0000000000000000       0x20 ./hbird_sdk/SoC/hbirdv2/Common/Source/Stubs/stat.o
 .debug_ranges  0x0000000000000000       0x10 ./hbird_sdk/SoC/hbirdv2/Common/Source/Stubs/stat.o
 .debug_line    0x0000000000000000      0x16f ./hbird_sdk/SoC/hbirdv2/Common/Source/Stubs/stat.o
 .debug_str     0x0000000000000000      0x302 ./hbird_sdk/SoC/hbirdv2/Common/Source/Stubs/stat.o
 .comment       0x0000000000000000       0x13 ./hbird_sdk/SoC/hbirdv2/Common/Source/Stubs/stat.o
 .debug_frame   0x0000000000000000       0x20 ./hbird_sdk/SoC/hbirdv2/Common/Source/Stubs/stat.o
 .riscv.attributes
                0x0000000000000000       0x2b ./hbird_sdk/SoC/hbirdv2/Common/Source/Stubs/stat.o
 .text          0x0000000000000000        0x0 ./hbird_sdk/SoC/hbirdv2/Common/Source/Stubs/times.o
 .data          0x0000000000000000        0x0 ./hbird_sdk/SoC/hbirdv2/Common/Source/Stubs/times.o
 .bss           0x0000000000000000        0x0 ./hbird_sdk/SoC/hbirdv2/Common/Source/Stubs/times.o
 .text._times   0x0000000000000000       0x6a ./hbird_sdk/SoC/hbirdv2/Common/Source/Stubs/times.o
 .bss.t0.0      0x0000000000000000       0x10 ./hbird_sdk/SoC/hbirdv2/Common/Source/Stubs/times.o
 .debug_info    0x0000000000000000      0x1b9 ./hbird_sdk/SoC/hbirdv2/Common/Source/Stubs/times.o
 .debug_abbrev  0x0000000000000000       0xfd ./hbird_sdk/SoC/hbirdv2/Common/Source/Stubs/times.o
 .debug_loc     0x0000000000000000       0x9f ./hbird_sdk/SoC/hbirdv2/Common/Source/Stubs/times.o
 .debug_aranges
                0x0000000000000000       0x20 ./hbird_sdk/SoC/hbirdv2/Common/Source/Stubs/times.o
 .debug_ranges  0x0000000000000000       0x10 ./hbird_sdk/SoC/hbirdv2/Common/Source/Stubs/times.o
 .debug_line    0x0000000000000000      0x234 ./hbird_sdk/SoC/hbirdv2/Common/Source/Stubs/times.o
 .debug_str     0x0000000000000000      0x241 ./hbird_sdk/SoC/hbirdv2/Common/Source/Stubs/times.o
 .comment       0x0000000000000000       0x13 ./hbird_sdk/SoC/hbirdv2/Common/Source/Stubs/times.o
 .debug_frame   0x0000000000000000       0x38 ./hbird_sdk/SoC/hbirdv2/Common/Source/Stubs/times.o
 .riscv.attributes
                0x0000000000000000       0x2b ./hbird_sdk/SoC/hbirdv2/Common/Source/Stubs/times.o
 .text          0x0000000000000000        0x0 ./hbird_sdk/SoC/hbirdv2/Common/Source/Stubs/unlink.o
 .data          0x0000000000000000        0x0 ./hbird_sdk/SoC/hbirdv2/Common/Source/Stubs/unlink.o
 .bss           0x0000000000000000        0x0 ./hbird_sdk/SoC/hbirdv2/Common/Source/Stubs/unlink.o
 .text._unlink  0x0000000000000000        0x4 ./hbird_sdk/SoC/hbirdv2/Common/Source/Stubs/unlink.o
 .debug_info    0x0000000000000000       0xac ./hbird_sdk/SoC/hbirdv2/Common/Source/Stubs/unlink.o
 .debug_abbrev  0x0000000000000000       0x67 ./hbird_sdk/SoC/hbirdv2/Common/Source/Stubs/unlink.o
 .debug_loc     0x0000000000000000       0x21 ./hbird_sdk/SoC/hbirdv2/Common/Source/Stubs/unlink.o
 .debug_aranges
                0x0000000000000000       0x20 ./hbird_sdk/SoC/hbirdv2/Common/Source/Stubs/unlink.o
 .debug_ranges  0x0000000000000000       0x10 ./hbird_sdk/SoC/hbirdv2/Common/Source/Stubs/unlink.o
 .debug_line    0x0000000000000000       0x79 ./hbird_sdk/SoC/hbirdv2/Common/Source/Stubs/unlink.o
 .debug_str     0x0000000000000000      0x1ba ./hbird_sdk/SoC/hbirdv2/Common/Source/Stubs/unlink.o
 .comment       0x0000000000000000       0x13 ./hbird_sdk/SoC/hbirdv2/Common/Source/Stubs/unlink.o
 .debug_frame   0x0000000000000000       0x20 ./hbird_sdk/SoC/hbirdv2/Common/Source/Stubs/unlink.o
 .riscv.attributes
                0x0000000000000000       0x2b ./hbird_sdk/SoC/hbirdv2/Common/Source/Stubs/unlink.o
 .text          0x0000000000000000        0x0 ./hbird_sdk/SoC/hbirdv2/Common/Source/Stubs/wait.o
 .data          0x0000000000000000        0x0 ./hbird_sdk/SoC/hbirdv2/Common/Source/Stubs/wait.o
 .bss           0x0000000000000000        0x0 ./hbird_sdk/SoC/hbirdv2/Common/Source/Stubs/wait.o
 .text._wait    0x0000000000000000        0xe ./hbird_sdk/SoC/hbirdv2/Common/Source/Stubs/wait.o
 .debug_info    0x0000000000000000       0xb7 ./hbird_sdk/SoC/hbirdv2/Common/Source/Stubs/wait.o
 .debug_abbrev  0x0000000000000000       0x75 ./hbird_sdk/SoC/hbirdv2/Common/Source/Stubs/wait.o
 .debug_loc     0x0000000000000000       0x21 ./hbird_sdk/SoC/hbirdv2/Common/Source/Stubs/wait.o
 .debug_aranges
                0x0000000000000000       0x20 ./hbird_sdk/SoC/hbirdv2/Common/Source/Stubs/wait.o
 .debug_ranges  0x0000000000000000       0x10 ./hbird_sdk/SoC/hbirdv2/Common/Source/Stubs/wait.o
 .debug_line    0x0000000000000000       0x89 ./hbird_sdk/SoC/hbirdv2/Common/Source/Stubs/wait.o
 .debug_str     0x0000000000000000      0x1be ./hbird_sdk/SoC/hbirdv2/Common/Source/Stubs/wait.o
 .comment       0x0000000000000000       0x13 ./hbird_sdk/SoC/hbirdv2/Common/Source/Stubs/wait.o
 .debug_frame   0x0000000000000000       0x20 ./hbird_sdk/SoC/hbirdv2/Common/Source/Stubs/wait.o
 .riscv.attributes
                0x0000000000000000       0x2b ./hbird_sdk/SoC/hbirdv2/Common/Source/Stubs/wait.o
 .text          0x0000000000000000        0x0 ./hbird_sdk/SoC/hbirdv2/Common/Source/Stubs/write.o
 .data          0x0000000000000000        0x0 ./hbird_sdk/SoC/hbirdv2/Common/Source/Stubs/write.o
 .bss           0x0000000000000000        0x0 ./hbird_sdk/SoC/hbirdv2/Common/Source/Stubs/write.o
 .text          0x0000000000000000        0x0 ./hbird_sdk/SoC/hbirdv2/Common/Source/GCC/intexc_hbirdv2.o
 .data          0x0000000000000000        0x0 ./hbird_sdk/SoC/hbirdv2/Common/Source/GCC/intexc_hbirdv2.o
 .bss           0x0000000000000000        0x0 ./hbird_sdk/SoC/hbirdv2/Common/Source/GCC/intexc_hbirdv2.o
 .text          0x0000000000000000        0x0 ./hbird_sdk/SoC/hbirdv2/Common/Source/GCC/startup_hbirdv2.o
 .data          0x0000000000000000        0x0 ./hbird_sdk/SoC/hbirdv2/Common/Source/GCC/startup_hbirdv2.o
 .bss           0x0000000000000000        0x0 ./hbird_sdk/SoC/hbirdv2/Common/Source/GCC/startup_hbirdv2.o
 .text          0x0000000000000000        0x0 ./hbird_sdk/SoC/hbirdv2/Common/Source/Drivers/hbirdv2_gpio.o
 .data          0x0000000000000000        0x0 ./hbird_sdk/SoC/hbirdv2/Common/Source/Drivers/hbirdv2_gpio.o
 .bss           0x0000000000000000        0x0 ./hbird_sdk/SoC/hbirdv2/Common/Source/Drivers/hbirdv2_gpio.o
 .text.gpio_enable_output
                0x0000000000000000       0x12 ./hbird_sdk/SoC/hbirdv2/Common/Source/Drivers/hbirdv2_gpio.o
 .text.gpio_write
                0x0000000000000000       0x20 ./hbird_sdk/SoC/hbirdv2/Common/Source/Drivers/hbirdv2_gpio.o
 .text.gpio_toggle
                0x0000000000000000       0x12 ./hbird_sdk/SoC/hbirdv2/Common/Source/Drivers/hbirdv2_gpio.o
 .text.gpio_read
                0x0000000000000000        0xc ./hbird_sdk/SoC/hbirdv2/Common/Source/Drivers/hbirdv2_gpio.o
 .text.gpio_disable_interrupt
                0x0000000000000000       0x16 ./hbird_sdk/SoC/hbirdv2/Common/Source/Drivers/hbirdv2_gpio.o
 .text          0x0000000000000000        0x0 ./hbird_sdk/SoC/hbirdv2/Common/Source/Drivers/hbirdv2_i2c.o
 .data          0x0000000000000000        0x0 ./hbird_sdk/SoC/hbirdv2/Common/Source/Drivers/hbirdv2_i2c.o
 .bss           0x0000000000000000        0x0 ./hbird_sdk/SoC/hbirdv2/Common/Source/Drivers/hbirdv2_i2c.o
 .text.i2c_setup
                0x0000000000000000        0xe ./hbird_sdk/SoC/hbirdv2/Common/Source/Drivers/hbirdv2_i2c.o
 .text.i2c_get_ack
                0x0000000000000000       0x1e ./hbird_sdk/SoC/hbirdv2/Common/Source/Drivers/hbirdv2_i2c.o
 .text.i2c_send_data
                0x0000000000000000        0xc ./hbird_sdk/SoC/hbirdv2/Common/Source/Drivers/hbirdv2_i2c.o
 .text.i2c_send_command
                0x0000000000000000        0xc ./hbird_sdk/SoC/hbirdv2/Common/Source/Drivers/hbirdv2_i2c.o
 .text.i2c_get_status
                0x0000000000000000        0xa ./hbird_sdk/SoC/hbirdv2/Common/Source/Drivers/hbirdv2_i2c.o
 .text.i2c_get_data
                0x0000000000000000        0xa ./hbird_sdk/SoC/hbirdv2/Common/Source/Drivers/hbirdv2_i2c.o
 .text.i2c_busy
                0x0000000000000000        0xe ./hbird_sdk/SoC/hbirdv2/Common/Source/Drivers/hbirdv2_i2c.o
 .debug_info    0x0000000000000000      0x279 ./hbird_sdk/SoC/hbirdv2/Common/Source/Drivers/hbirdv2_i2c.o
 .debug_abbrev  0x0000000000000000       0xe5 ./hbird_sdk/SoC/hbirdv2/Common/Source/Drivers/hbirdv2_i2c.o
 .debug_loc     0x0000000000000000      0x196 ./hbird_sdk/SoC/hbirdv2/Common/Source/Drivers/hbirdv2_i2c.o
 .debug_aranges
                0x0000000000000000       0x50 ./hbird_sdk/SoC/hbirdv2/Common/Source/Drivers/hbirdv2_i2c.o
 .debug_ranges  0x0000000000000000       0x40 ./hbird_sdk/SoC/hbirdv2/Common/Source/Drivers/hbirdv2_i2c.o
 .debug_line    0x0000000000000000      0x42b ./hbird_sdk/SoC/hbirdv2/Common/Source/Drivers/hbirdv2_i2c.o
 .debug_str     0x0000000000000000      0x259 ./hbird_sdk/SoC/hbirdv2/Common/Source/Drivers/hbirdv2_i2c.o
 .comment       0x0000000000000000       0x13 ./hbird_sdk/SoC/hbirdv2/Common/Source/Drivers/hbirdv2_i2c.o
 .debug_frame   0x0000000000000000       0x80 ./hbird_sdk/SoC/hbirdv2/Common/Source/Drivers/hbirdv2_i2c.o
 .riscv.attributes
                0x0000000000000000       0x2b ./hbird_sdk/SoC/hbirdv2/Common/Source/Drivers/hbirdv2_i2c.o
 .text          0x0000000000000000        0x0 ./hbird_sdk/SoC/hbirdv2/Common/Source/Drivers/hbirdv2_pwm.o
 .data          0x0000000000000000        0x0 ./hbird_sdk/SoC/hbirdv2/Common/Source/Drivers/hbirdv2_pwm.o
 .bss           0x0000000000000000        0x0 ./hbird_sdk/SoC/hbirdv2/Common/Source/Drivers/hbirdv2_pwm.o
 .text.pwm_timer_en
                0x0000000000000000       0x16 ./hbird_sdk/SoC/hbirdv2/Common/Source/Drivers/hbirdv2_pwm.o
 .text.pwm_timer_all_en
                0x0000000000000000        0xc ./hbird_sdk/SoC/hbirdv2/Common/Source/Drivers/hbirdv2_pwm.o
 .text.pwm_timer_disable
                0x0000000000000000       0x1c ./hbird_sdk/SoC/hbirdv2/Common/Source/Drivers/hbirdv2_pwm.o
 .text.pwm_timer_all_disable
                0x0000000000000000        0xa ./hbird_sdk/SoC/hbirdv2/Common/Source/Drivers/hbirdv2_pwm.o
 .text.pwm_timer_conf
                0x0000000000000000       0x32 ./hbird_sdk/SoC/hbirdv2/Common/Source/Drivers/hbirdv2_pwm.o
 .text.pwm_timer_channel_config
                0x0000000000000000       0x20 ./hbird_sdk/SoC/hbirdv2/Common/Source/Drivers/hbirdv2_pwm.o
 .text.pwm_timer_all_channel_config
                0x0000000000000000       0x52 ./hbird_sdk/SoC/hbirdv2/Common/Source/Drivers/hbirdv2_pwm.o
 .debug_info    0x0000000000000000      0x7d0 ./hbird_sdk/SoC/hbirdv2/Common/Source/Drivers/hbirdv2_pwm.o
 .debug_abbrev  0x0000000000000000      0x1f3 ./hbird_sdk/SoC/hbirdv2/Common/Source/Drivers/hbirdv2_pwm.o
 .debug_loc     0x0000000000000000      0x57b ./hbird_sdk/SoC/hbirdv2/Common/Source/Drivers/hbirdv2_pwm.o
 .debug_aranges
                0x0000000000000000       0x50 ./hbird_sdk/SoC/hbirdv2/Common/Source/Drivers/hbirdv2_pwm.o
 .debug_ranges  0x0000000000000000      0x198 ./hbird_sdk/SoC/hbirdv2/Common/Source/Drivers/hbirdv2_pwm.o
 .debug_line    0x0000000000000000      0x4d2 ./hbird_sdk/SoC/hbirdv2/Common/Source/Drivers/hbirdv2_pwm.o
 .debug_str     0x0000000000000000      0x497 ./hbird_sdk/SoC/hbirdv2/Common/Source/Drivers/hbirdv2_pwm.o
 .comment       0x0000000000000000       0x13 ./hbird_sdk/SoC/hbirdv2/Common/Source/Drivers/hbirdv2_pwm.o
 .debug_frame   0x0000000000000000       0x80 ./hbird_sdk/SoC/hbirdv2/Common/Source/Drivers/hbirdv2_pwm.o
 .riscv.attributes
                0x0000000000000000       0x2b ./hbird_sdk/SoC/hbirdv2/Common/Source/Drivers/hbirdv2_pwm.o
 .text          0x0000000000000000        0x0 ./hbird_sdk/SoC/hbirdv2/Common/Source/Drivers/hbirdv2_spi.o
 .data          0x0000000000000000        0x0 ./hbird_sdk/SoC/hbirdv2/Common/Source/Drivers/hbirdv2_spi.o
 .bss           0x0000000000000000        0x0 ./hbird_sdk/SoC/hbirdv2/Common/Source/Drivers/hbirdv2_spi.o
 .text.spi_setup_cmd_addr
                0x0000000000000000       0x2a ./hbird_sdk/SoC/hbirdv2/Common/Source/Drivers/hbirdv2_spi.o
 .text.spi_setup_clk
                0x0000000000000000        0xc ./hbird_sdk/SoC/hbirdv2/Common/Source/Drivers/hbirdv2_spi.o
 .text.spi_setup_dummy
                0x0000000000000000       0x10 ./hbird_sdk/SoC/hbirdv2/Common/Source/Drivers/hbirdv2_spi.o
 .text.spi_set_datalen
                0x0000000000000000       0x24 ./hbird_sdk/SoC/hbirdv2/Common/Source/Drivers/hbirdv2_spi.o
 .text.spi_start_transaction
                0x0000000000000000       0x26 ./hbird_sdk/SoC/hbirdv2/Common/Source/Drivers/hbirdv2_spi.o
 .text.spi_get_status
                0x0000000000000000        0xa ./hbird_sdk/SoC/hbirdv2/Common/Source/Drivers/hbirdv2_spi.o
 .text.spi_write_fifo
                0x0000000000000000       0x50 ./hbird_sdk/SoC/hbirdv2/Common/Source/Drivers/hbirdv2_spi.o
 .text.spi_read_fifo
                0x0000000000000000       0x50 ./hbird_sdk/SoC/hbirdv2/Common/Source/Drivers/hbirdv2_spi.o
 .text.spi_enable_interrupt
                0x0000000000000000       0x16 ./hbird_sdk/SoC/hbirdv2/Common/Source/Drivers/hbirdv2_spi.o
 .text.spi_disable_interrupt
                0x0000000000000000       0x14 ./hbird_sdk/SoC/hbirdv2/Common/Source/Drivers/hbirdv2_spi.o
 .text.spi_set_tx_th
                0x0000000000000000       0x2a ./hbird_sdk/SoC/hbirdv2/Common/Source/Drivers/hbirdv2_spi.o
 .text.spi_set_rx_th
                0x0000000000000000       0x34 ./hbird_sdk/SoC/hbirdv2/Common/Source/Drivers/hbirdv2_spi.o
 .text.spi_get_int_status
                0x0000000000000000        0xa ./hbird_sdk/SoC/hbirdv2/Common/Source/Drivers/hbirdv2_spi.o
 .debug_info    0x0000000000000000      0x50f ./hbird_sdk/SoC/hbirdv2/Common/Source/Drivers/hbirdv2_spi.o
 .debug_abbrev  0x0000000000000000      0x129 ./hbird_sdk/SoC/hbirdv2/Common/Source/Drivers/hbirdv2_spi.o
 .debug_loc     0x0000000000000000      0x50b ./hbird_sdk/SoC/hbirdv2/Common/Source/Drivers/hbirdv2_spi.o
 .debug_aranges
                0x0000000000000000       0x80 ./hbird_sdk/SoC/hbirdv2/Common/Source/Drivers/hbirdv2_spi.o
 .debug_ranges  0x0000000000000000       0x70 ./hbird_sdk/SoC/hbirdv2/Common/Source/Drivers/hbirdv2_spi.o
 .debug_line    0x0000000000000000      0xa0a ./hbird_sdk/SoC/hbirdv2/Common/Source/Drivers/hbirdv2_spi.o
 .debug_str     0x0000000000000000      0x38f ./hbird_sdk/SoC/hbirdv2/Common/Source/Drivers/hbirdv2_spi.o
 .comment       0x0000000000000000       0x13 ./hbird_sdk/SoC/hbirdv2/Common/Source/Drivers/hbirdv2_spi.o
 .debug_frame   0x0000000000000000      0x100 ./hbird_sdk/SoC/hbirdv2/Common/Source/Drivers/hbirdv2_spi.o
 .riscv.attributes
                0x0000000000000000       0x2b ./hbird_sdk/SoC/hbirdv2/Common/Source/Drivers/hbirdv2_spi.o
 .text          0x0000000000000000        0x0 ./hbird_sdk/SoC/hbirdv2/Common/Source/Drivers/hbirdv2_uart.o
 .data          0x0000000000000000        0x0 ./hbird_sdk/SoC/hbirdv2/Common/Source/Drivers/hbirdv2_uart.o
 .bss           0x0000000000000000        0x0 ./hbird_sdk/SoC/hbirdv2/Common/Source/Drivers/hbirdv2_uart.o
 .text.uart_config_stopbit
                0x0000000000000000       0x1a ./hbird_sdk/SoC/hbirdv2/Common/Source/Drivers/hbirdv2_uart.o
 .text.uart_enable_paritybit
                0x0000000000000000       0x14 ./hbird_sdk/SoC/hbirdv2/Common/Source/Drivers/hbirdv2_uart.o
 .text.uart_disable_paritybit
                0x0000000000000000       0x12 ./hbird_sdk/SoC/hbirdv2/Common/Source/Drivers/hbirdv2_uart.o
 .text.uart_set_parity
                0x0000000000000000       0x1c ./hbird_sdk/SoC/hbirdv2/Common/Source/Drivers/hbirdv2_uart.o
 .text.uart_enable_tx_empt_int
                0x0000000000000000       0x14 ./hbird_sdk/SoC/hbirdv2/Common/Source/Drivers/hbirdv2_uart.o
 .text.uart_disable_tx_empt_int
                0x0000000000000000       0x12 ./hbird_sdk/SoC/hbirdv2/Common/Source/Drivers/hbirdv2_uart.o
 .text.uart_set_rx_th
                0x0000000000000000       0x30 ./hbird_sdk/SoC/hbirdv2/Common/Source/Drivers/hbirdv2_uart.o
 .text.uart_enable_rx_th_int
                0x0000000000000000       0x14 ./hbird_sdk/SoC/hbirdv2/Common/Source/Drivers/hbirdv2_uart.o
 .text.uart_disable_rx_th_int
                0x0000000000000000       0x12 ./hbird_sdk/SoC/hbirdv2/Common/Source/Drivers/hbirdv2_uart.o
 .text.uart_enable_rx_err_int
                0x0000000000000000       0x14 ./hbird_sdk/SoC/hbirdv2/Common/Source/Drivers/hbirdv2_uart.o
 .text.uart_disable_rx_err_int
                0x0000000000000000       0x12 ./hbird_sdk/SoC/hbirdv2/Common/Source/Drivers/hbirdv2_uart.o
 .text.uart_get_int_status
                0x0000000000000000        0xa ./hbird_sdk/SoC/hbirdv2/Common/Source/Drivers/hbirdv2_uart.o
 .text.uart_get_status
                0x0000000000000000        0xa ./hbird_sdk/SoC/hbirdv2/Common/Source/Drivers/hbirdv2_uart.o
 .text          0x0000000000000000        0x0 ./hbird_sdk/SoC/hbirdv2/Common/Source/Drivers/htif.o
 .data          0x0000000000000000        0x0 ./hbird_sdk/SoC/hbirdv2/Common/Source/Drivers/htif.o
 .bss           0x0000000000000000        0x0 ./hbird_sdk/SoC/hbirdv2/Common/Source/Drivers/htif.o
 .debug_line    0x0000000000000000        0x0 ./hbird_sdk/SoC/hbirdv2/Common/Source/Drivers/htif.o
 .debug_str     0x0000000000000000      0x118 ./hbird_sdk/SoC/hbirdv2/Common/Source/Drivers/htif.o
 .comment       0x0000000000000000       0x13 ./hbird_sdk/SoC/hbirdv2/Common/Source/Drivers/htif.o
 .riscv.attributes
                0x0000000000000000       0x2b ./hbird_sdk/SoC/hbirdv2/Common/Source/Drivers/htif.o
 .text          0x0000000000000000        0x0 ./hbird_sdk/SoC/hbirdv2/Common/Source/hbirdv2_common.o
 .data          0x0000000000000000        0x0 ./hbird_sdk/SoC/hbirdv2/Common/Source/hbirdv2_common.o
 .bss           0x0000000000000000        0x0 ./hbird_sdk/SoC/hbirdv2/Common/Source/hbirdv2_common.o
 .text.delay_1ms
                0x0000000000000000       0x54 ./hbird_sdk/SoC/hbirdv2/Common/Source/hbirdv2_common.o
 .text          0x0000000000000000        0x0 ./hbird_sdk/SoC/hbirdv2/Common/Source/system_hbirdv2.o
 .data          0x0000000000000000        0x0 ./hbird_sdk/SoC/hbirdv2/Common/Source/system_hbirdv2.o
 .bss           0x0000000000000000        0x0 ./hbird_sdk/SoC/hbirdv2/Common/Source/system_hbirdv2.o
 .text.SystemCoreClockUpdate
                0x0000000000000000       0x12 ./hbird_sdk/SoC/hbirdv2/Common/Source/system_hbirdv2.o
 .text.Exception_Register_EXC
                0x0000000000000000       0x16 ./hbird_sdk/SoC/hbirdv2/Common/Source/system_hbirdv2.o
 .text.Interrupt_Register_CoreIRQ
                0x0000000000000000       0x16 ./hbird_sdk/SoC/hbirdv2/Common/Source/system_hbirdv2.o
 .text.Interrupt_Register_ExtIRQ
                0x0000000000000000       0x16 ./hbird_sdk/SoC/hbirdv2/Common/Source/system_hbirdv2.o
 .text.Interrupt_Get_CoreIRQ
                0x0000000000000000       0x1a ./hbird_sdk/SoC/hbirdv2/Common/Source/system_hbirdv2.o
 .text.Interrupt_Get_ExtIRQ
                0x0000000000000000       0x1a ./hbird_sdk/SoC/hbirdv2/Common/Source/system_hbirdv2.o
 .text.Exception_Get_EXC
                0x0000000000000000       0x1a ./hbird_sdk/SoC/hbirdv2/Common/Source/system_hbirdv2.o
 .text.SystemBannerPrint
                0x0000000000000000       0x58 ./hbird_sdk/SoC/hbirdv2/Common/Source/system_hbirdv2.o
 .text.Core_Register_IRQ
                0x0000000000000000       0x40 ./hbird_sdk/SoC/hbirdv2/Common/Source/system_hbirdv2.o
 .text          0x0000000000000000        0x0 ./application/ILI93xx.o
 .data          0x0000000000000000        0x0 ./application/ILI93xx.o
 .bss           0x0000000000000000        0x0 ./application/ILI93xx.o
 .text.LCD_ReadPoint
                0x0000000000000000       0x1c ./application/ILI93xx.o
 .text.LCD_DrawPoint
                0x0000000000000000       0x24 ./application/ILI93xx.o
 .text.LCD_Set_Window
                0x0000000000000000        0x2 ./application/ILI93xx.o
 .text.LCD_Init
                0x0000000000000000       0x14 ./application/ILI93xx.o
 .text.LCD_Color_Fill
                0x0000000000000000       0x6c ./application/ILI93xx.o
 .text.LCD_DrawLine
                0x0000000000000000       0xb2 ./application/ILI93xx.o
 .text.LCD_DrawRectangle
                0x0000000000000000       0x66 ./application/ILI93xx.o
 .text.LCD_Draw_Circle
                0x0000000000000000       0xf0 ./application/ILI93xx.o
 .text.LCD_Pow  0x0000000000000000       0x24 ./application/ILI93xx.o
 .text.LCD_ShowNum
                0x0000000000000000       0xcc ./application/ILI93xx.o
 .text.LCD_ShowxNum
                0x0000000000000000       0xf2 ./application/ILI93xx.o
 .text          0x0000000000000000        0x0 ./application/InfoNES.o
 .data          0x0000000000000000        0x0 ./application/InfoNES.o
 .bss           0x0000000000000000        0x0 ./application/InfoNES.o
 .text.InfoNES_Fin
                0x0000000000000000        0x8 ./application/InfoNES.o
 .eh_frame      0x0000000000000000      0x220 ./application/InfoNES.o
 .text          0x0000000000000000        0x0 ./application/InfoNES_Mapper.o
 .data          0x0000000000000000        0x0 ./application/InfoNES_Mapper.o
 .bss           0x0000000000000000        0x0 ./application/InfoNES_Mapper.o
 .text.Map23_HSync
                0x0000000000000000       0x5c ./application/InfoNES_Mapper.o
 .text.Map33_HSync
                0x0000000000000000       0x5c ./application/InfoNES_Mapper.o
 .text.Map45_Set_CPU_Bank4
                0x0000000000000000       0x4c ./application/InfoNES_Mapper.o
 .text.Map45_Set_CPU_Bank5
                0x0000000000000000       0x4c ./application/InfoNES_Mapper.o
 .text.Map45_Set_CPU_Bank6
                0x0000000000000000       0x4c ./application/InfoNES_Mapper.o
 .text.Map45_Set_CPU_Bank7
                0x0000000000000000       0x4c ./application/InfoNES_Mapper.o
 .text.Map68_SyncMirror
                0x0000000000000000       0x22 ./application/InfoNES_Mapper.o
 .text.Map248_Set_PPU_Banks
                0x0000000000000000       0x14 ./application/InfoNES_Mapper.o
 .sbss.Map191_Prg1
                0x0000000000000000        0x1 ./application/InfoNES_Mapper.o
 .sbss.Map245_Chr01
                0x0000000000000000        0x1 ./application/InfoNES_Mapper.o
 .sbss.Map245_Chr23
                0x0000000000000000        0x1 ./application/InfoNES_Mapper.o
 .sbss.Map245_Chr4
                0x0000000000000000        0x1 ./application/InfoNES_Mapper.o
 .sbss.Map245_Chr5
                0x0000000000000000        0x1 ./application/InfoNES_Mapper.o
 .sbss.Map245_Chr6
                0x0000000000000000        0x1 ./application/InfoNES_Mapper.o
 .sbss.Map245_Chr7
                0x0000000000000000        0x1 ./application/InfoNES_Mapper.o
 .sbss.Map4_Rom_Bank
                0x0000000000000000        0x4 ./application/InfoNES_Mapper.o
 .sbss.Map74_Rom_Bank
                0x0000000000000000        0x4 ./application/InfoNES_Mapper.o
 .eh_frame      0x0000000000000000     0x2b94 ./application/InfoNES_Mapper.o
 .text          0x0000000000000000        0x0 ./application/InfoNES_System.o
 .data          0x0000000000000000        0x0 ./application/InfoNES_System.o
 .bss           0x0000000000000000        0x0 ./application/InfoNES_System.o
 .rodata.InfoNES_ReadRom.str1.4
                0x0000000000000000        0x5 ./application/InfoNES_System.o
 .text.InfoNES_LoadLine
                0x0000000000000000        0x2 ./application/InfoNES_System.o
 .text.InfoNES_DebugPrint
                0x0000000000000000        0x2 ./application/InfoNES_System.o
 .text.InfoNES_SoundInit
                0x0000000000000000        0x2 ./application/InfoNES_System.o
 .text.InfoNES_SoundOpen
                0x0000000000000000        0x4 ./application/InfoNES_System.o
 .text.InfoNES_SoundClose
                0x0000000000000000        0x2 ./application/InfoNES_System.o
 .text.InfoNES_SoundOutput
                0x0000000000000000        0x2 ./application/InfoNES_System.o
 .text          0x0000000000000000        0x0 ./application/InfoNES_pAPU.o
 .data          0x0000000000000000        0x0 ./application/InfoNES_pAPU.o
 .bss           0x0000000000000000        0x0 ./application/InfoNES_pAPU.o
 .debug_info    0x0000000000000000       0x41 ./application/InfoNES_pAPU.o
 .debug_abbrev  0x0000000000000000       0x26 ./application/InfoNES_pAPU.o
 .debug_aranges
                0x0000000000000000       0x18 ./application/InfoNES_pAPU.o
 .debug_line    0x0000000000000000       0x1d ./application/InfoNES_pAPU.o
 .debug_str     0x0000000000000000      0x156 ./application/InfoNES_pAPU.o
 .comment       0x0000000000000000       0x13 ./application/InfoNES_pAPU.o
 .riscv.attributes
                0x0000000000000000       0x2b ./application/InfoNES_pAPU.o
 .text          0x0000000000000000        0x0 ./application/K6502.o
 .data          0x0000000000000000        0x0 ./application/K6502.o
 .bss           0x0000000000000000        0x0 ./application/K6502.o
 .eh_frame      0x0000000000000000      0x100 ./application/K6502.o
 .text          0x0000000000000000        0x0 ./application/key.o
 .data          0x0000000000000000        0x0 ./application/key.o
 .bss           0x0000000000000000        0x0 ./application/key.o
 .text.KEY_Scan
                0x0000000000000000        0x4 ./application/key.o
 .debug_info    0x0000000000000000       0xb9 ./application/key.o
 .debug_abbrev  0x0000000000000000       0x66 ./application/key.o
 .debug_loc     0x0000000000000000       0x21 ./application/key.o
 .debug_aranges
                0x0000000000000000       0x20 ./application/key.o
 .debug_ranges  0x0000000000000000       0x10 ./application/key.o
 .debug_line    0x0000000000000000      0x10f ./application/key.o
 .debug_str     0x0000000000000000      0x1ac ./application/key.o
 .comment       0x0000000000000000       0x13 ./application/key.o
 .debug_frame   0x0000000000000000       0x20 ./application/key.o
 .riscv.attributes
                0x0000000000000000       0x2b ./application/key.o
 .text          0x0000000000000000        0x0 ./application/main.o
 .data          0x0000000000000000        0x0 ./application/main.o
 .bss           0x0000000000000000        0x0 ./application/main.o
 .text.ps2_init
                0x0000000000000000       0x14 ./application/main.o
 .sbss.falg_scankey
                0x0000000000000000        0x1 ./application/main.o
 .text          0x0000000000000000        0x0 ./application/rom.o
 .data          0x0000000000000000        0x0 ./application/rom.o
 .bss           0x0000000000000000        0x0 ./application/rom.o
 .text          0x0000000000000000        0x0 c:/microdownload/nucleistudio/toolchain/gcc/bin/../lib/gcc/riscv-nuclei-elf/10.2.0/rv32imac/ilp32\libgcc.a(_divdi3.o)
 .data          0x0000000000000000        0x0 c:/microdownload/nucleistudio/toolchain/gcc/bin/../lib/gcc/riscv-nuclei-elf/10.2.0/rv32imac/ilp32\libgcc.a(_divdi3.o)
 .bss           0x0000000000000000        0x0 c:/microdownload/nucleistudio/toolchain/gcc/bin/../lib/gcc/riscv-nuclei-elf/10.2.0/rv32imac/ilp32\libgcc.a(_divdi3.o)
 .text.__divdi3
                0x0000000000000000      0x3a2 c:/microdownload/nucleistudio/toolchain/gcc/bin/../lib/gcc/riscv-nuclei-elf/10.2.0/rv32imac/ilp32\libgcc.a(_divdi3.o)
 .debug_info    0x0000000000000000      0x7f6 c:/microdownload/nucleistudio/toolchain/gcc/bin/../lib/gcc/riscv-nuclei-elf/10.2.0/rv32imac/ilp32\libgcc.a(_divdi3.o)
 .debug_abbrev  0x0000000000000000      0x1b5 c:/microdownload/nucleistudio/toolchain/gcc/bin/../lib/gcc/riscv-nuclei-elf/10.2.0/rv32imac/ilp32\libgcc.a(_divdi3.o)
 .debug_loc     0x0000000000000000      0x92f c:/microdownload/nucleistudio/toolchain/gcc/bin/../lib/gcc/riscv-nuclei-elf/10.2.0/rv32imac/ilp32\libgcc.a(_divdi3.o)
 .debug_aranges
                0x0000000000000000       0x20 c:/microdownload/nucleistudio/toolchain/gcc/bin/../lib/gcc/riscv-nuclei-elf/10.2.0/rv32imac/ilp32\libgcc.a(_divdi3.o)
 .debug_ranges  0x0000000000000000      0x108 c:/microdownload/nucleistudio/toolchain/gcc/bin/../lib/gcc/riscv-nuclei-elf/10.2.0/rv32imac/ilp32\libgcc.a(_divdi3.o)
 .debug_line    0x0000000000000000      0x820 c:/microdownload/nucleistudio/toolchain/gcc/bin/../lib/gcc/riscv-nuclei-elf/10.2.0/rv32imac/ilp32\libgcc.a(_divdi3.o)
 .debug_str     0x0000000000000000      0x35f c:/microdownload/nucleistudio/toolchain/gcc/bin/../lib/gcc/riscv-nuclei-elf/10.2.0/rv32imac/ilp32\libgcc.a(_divdi3.o)
 .comment       0x0000000000000000       0x13 c:/microdownload/nucleistudio/toolchain/gcc/bin/../lib/gcc/riscv-nuclei-elf/10.2.0/rv32imac/ilp32\libgcc.a(_divdi3.o)
 .eh_frame      0x0000000000000000       0x28 c:/microdownload/nucleistudio/toolchain/gcc/bin/../lib/gcc/riscv-nuclei-elf/10.2.0/rv32imac/ilp32\libgcc.a(_divdi3.o)
 .riscv.attributes
                0x0000000000000000       0x2b c:/microdownload/nucleistudio/toolchain/gcc/bin/../lib/gcc/riscv-nuclei-elf/10.2.0/rv32imac/ilp32\libgcc.a(_divdi3.o)
 .text          0x0000000000000000        0x0 c:/microdownload/nucleistudio/toolchain/gcc/bin/../lib/gcc/riscv-nuclei-elf/10.2.0/rv32imac/ilp32\libgcc.a(_udivdi3.o)
 .data          0x0000000000000000        0x0 c:/microdownload/nucleistudio/toolchain/gcc/bin/../lib/gcc/riscv-nuclei-elf/10.2.0/rv32imac/ilp32\libgcc.a(_udivdi3.o)
 .bss           0x0000000000000000        0x0 c:/microdownload/nucleistudio/toolchain/gcc/bin/../lib/gcc/riscv-nuclei-elf/10.2.0/rv32imac/ilp32\libgcc.a(_udivdi3.o)
 .eh_frame      0x0000000000000000       0x28 c:/microdownload/nucleistudio/toolchain/gcc/bin/../lib/gcc/riscv-nuclei-elf/10.2.0/rv32imac/ilp32\libgcc.a(_udivdi3.o)
 .text          0x0000000000000000        0x0 c:/microdownload/nucleistudio/toolchain/gcc/bin/../lib/gcc/riscv-nuclei-elf/10.2.0/rv32imac/ilp32\libgcc.a(_umoddi3.o)
 .data          0x0000000000000000        0x0 c:/microdownload/nucleistudio/toolchain/gcc/bin/../lib/gcc/riscv-nuclei-elf/10.2.0/rv32imac/ilp32\libgcc.a(_umoddi3.o)
 .bss           0x0000000000000000        0x0 c:/microdownload/nucleistudio/toolchain/gcc/bin/../lib/gcc/riscv-nuclei-elf/10.2.0/rv32imac/ilp32\libgcc.a(_umoddi3.o)
 .text.__umoddi3
                0x0000000000000000      0x340 c:/microdownload/nucleistudio/toolchain/gcc/bin/../lib/gcc/riscv-nuclei-elf/10.2.0/rv32imac/ilp32\libgcc.a(_umoddi3.o)
 .debug_info    0x0000000000000000      0x81a c:/microdownload/nucleistudio/toolchain/gcc/bin/../lib/gcc/riscv-nuclei-elf/10.2.0/rv32imac/ilp32\libgcc.a(_umoddi3.o)
 .debug_abbrev  0x0000000000000000      0x1b9 c:/microdownload/nucleistudio/toolchain/gcc/bin/../lib/gcc/riscv-nuclei-elf/10.2.0/rv32imac/ilp32\libgcc.a(_umoddi3.o)
 .debug_loc     0x0000000000000000      0x988 c:/microdownload/nucleistudio/toolchain/gcc/bin/../lib/gcc/riscv-nuclei-elf/10.2.0/rv32imac/ilp32\libgcc.a(_umoddi3.o)
 .debug_aranges
                0x0000000000000000       0x20 c:/microdownload/nucleistudio/toolchain/gcc/bin/../lib/gcc/riscv-nuclei-elf/10.2.0/rv32imac/ilp32\libgcc.a(_umoddi3.o)
 .debug_ranges  0x0000000000000000       0xe8 c:/microdownload/nucleistudio/toolchain/gcc/bin/../lib/gcc/riscv-nuclei-elf/10.2.0/rv32imac/ilp32\libgcc.a(_umoddi3.o)
 .debug_line    0x0000000000000000      0x827 c:/microdownload/nucleistudio/toolchain/gcc/bin/../lib/gcc/riscv-nuclei-elf/10.2.0/rv32imac/ilp32\libgcc.a(_umoddi3.o)
 .debug_str     0x0000000000000000      0x360 c:/microdownload/nucleistudio/toolchain/gcc/bin/../lib/gcc/riscv-nuclei-elf/10.2.0/rv32imac/ilp32\libgcc.a(_umoddi3.o)
 .comment       0x0000000000000000       0x13 c:/microdownload/nucleistudio/toolchain/gcc/bin/../lib/gcc/riscv-nuclei-elf/10.2.0/rv32imac/ilp32\libgcc.a(_umoddi3.o)
 .eh_frame      0x0000000000000000       0x28 c:/microdownload/nucleistudio/toolchain/gcc/bin/../lib/gcc/riscv-nuclei-elf/10.2.0/rv32imac/ilp32\libgcc.a(_umoddi3.o)
 .riscv.attributes
                0x0000000000000000       0x2b c:/microdownload/nucleistudio/toolchain/gcc/bin/../lib/gcc/riscv-nuclei-elf/10.2.0/rv32imac/ilp32\libgcc.a(_umoddi3.o)
 .text          0x0000000000000000        0x0 c:/microdownload/nucleistudio/toolchain/gcc/bin/../lib/gcc/riscv-nuclei-elf/10.2.0/rv32imac/ilp32\libgcc.a(_clz.o)
 .data          0x0000000000000000        0x0 c:/microdownload/nucleistudio/toolchain/gcc/bin/../lib/gcc/riscv-nuclei-elf/10.2.0/rv32imac/ilp32\libgcc.a(_clz.o)
 .bss           0x0000000000000000        0x0 c:/microdownload/nucleistudio/toolchain/gcc/bin/../lib/gcc/riscv-nuclei-elf/10.2.0/rv32imac/ilp32\libgcc.a(_clz.o)
 .text          0x0000000000000000        0x0 c:/microdownload/nucleistudio/toolchain/gcc/bin/../lib/gcc/riscv-nuclei-elf/10.2.0/../../../../riscv-nuclei-elf/lib/rv32imac/ilp32\libg_nano.a(lib_a-atexit.o)
 .data          0x0000000000000000        0x0 c:/microdownload/nucleistudio/toolchain/gcc/bin/../lib/gcc/riscv-nuclei-elf/10.2.0/../../../../riscv-nuclei-elf/lib/rv32imac/ilp32\libg_nano.a(lib_a-atexit.o)
 .bss           0x0000000000000000        0x0 c:/microdownload/nucleistudio/toolchain/gcc/bin/../lib/gcc/riscv-nuclei-elf/10.2.0/../../../../riscv-nuclei-elf/lib/rv32imac/ilp32\libg_nano.a(lib_a-atexit.o)
 .text          0x0000000000000000        0x0 c:/microdownload/nucleistudio/toolchain/gcc/bin/../lib/gcc/riscv-nuclei-elf/10.2.0/../../../../riscv-nuclei-elf/lib/rv32imac/ilp32\libg_nano.a(lib_a-fini.o)
 .data          0x0000000000000000        0x0 c:/microdownload/nucleistudio/toolchain/gcc/bin/../lib/gcc/riscv-nuclei-elf/10.2.0/../../../../riscv-nuclei-elf/lib/rv32imac/ilp32\libg_nano.a(lib_a-fini.o)
 .bss           0x0000000000000000        0x0 c:/microdownload/nucleistudio/toolchain/gcc/bin/../lib/gcc/riscv-nuclei-elf/10.2.0/../../../../riscv-nuclei-elf/lib/rv32imac/ilp32\libg_nano.a(lib_a-fini.o)
 .text          0x0000000000000000        0x0 c:/microdownload/nucleistudio/toolchain/gcc/bin/../lib/gcc/riscv-nuclei-elf/10.2.0/../../../../riscv-nuclei-elf/lib/rv32imac/ilp32\libg_nano.a(lib_a-init.o)
 .data          0x0000000000000000        0x0 c:/microdownload/nucleistudio/toolchain/gcc/bin/../lib/gcc/riscv-nuclei-elf/10.2.0/../../../../riscv-nuclei-elf/lib/rv32imac/ilp32\libg_nano.a(lib_a-init.o)
 .bss           0x0000000000000000        0x0 c:/microdownload/nucleistudio/toolchain/gcc/bin/../lib/gcc/riscv-nuclei-elf/10.2.0/../../../../riscv-nuclei-elf/lib/rv32imac/ilp32\libg_nano.a(lib_a-init.o)
 .text          0x0000000000000000        0x0 c:/microdownload/nucleistudio/toolchain/gcc/bin/../lib/gcc/riscv-nuclei-elf/10.2.0/../../../../riscv-nuclei-elf/lib/rv32imac/ilp32\libg_nano.a(lib_a-memcpy.o)
 .data          0x0000000000000000        0x0 c:/microdownload/nucleistudio/toolchain/gcc/bin/../lib/gcc/riscv-nuclei-elf/10.2.0/../../../../riscv-nuclei-elf/lib/rv32imac/ilp32\libg_nano.a(lib_a-memcpy.o)
 .bss           0x0000000000000000        0x0 c:/microdownload/nucleistudio/toolchain/gcc/bin/../lib/gcc/riscv-nuclei-elf/10.2.0/../../../../riscv-nuclei-elf/lib/rv32imac/ilp32\libg_nano.a(lib_a-memcpy.o)
 .data          0x0000000000000000        0x0 c:/microdownload/nucleistudio/toolchain/gcc/bin/../lib/gcc/riscv-nuclei-elf/10.2.0/../../../../riscv-nuclei-elf/lib/rv32imac/ilp32\libg_nano.a(lib_a-memset.o)
 .bss           0x0000000000000000        0x0 c:/microdownload/nucleistudio/toolchain/gcc/bin/../lib/gcc/riscv-nuclei-elf/10.2.0/../../../../riscv-nuclei-elf/lib/rv32imac/ilp32\libg_nano.a(lib_a-memset.o)
 .text          0x0000000000000000        0x0 c:/microdownload/nucleistudio/toolchain/gcc/bin/../lib/gcc/riscv-nuclei-elf/10.2.0/../../../../riscv-nuclei-elf/lib/rv32imac/ilp32\libg_nano.a(lib_a-printf.o)
 .data          0x0000000000000000        0x0 c:/microdownload/nucleistudio/toolchain/gcc/bin/../lib/gcc/riscv-nuclei-elf/10.2.0/../../../../riscv-nuclei-elf/lib/rv32imac/ilp32\libg_nano.a(lib_a-printf.o)
 .bss           0x0000000000000000        0x0 c:/microdownload/nucleistudio/toolchain/gcc/bin/../lib/gcc/riscv-nuclei-elf/10.2.0/../../../../riscv-nuclei-elf/lib/rv32imac/ilp32\libg_nano.a(lib_a-printf.o)
 .text._printf_r
                0x0000000000000000       0x42 c:/microdownload/nucleistudio/toolchain/gcc/bin/../lib/gcc/riscv-nuclei-elf/10.2.0/../../../../riscv-nuclei-elf/lib/rv32imac/ilp32\libg_nano.a(lib_a-printf.o)
 .text          0x0000000000000000        0x0 c:/microdownload/nucleistudio/toolchain/gcc/bin/../lib/gcc/riscv-nuclei-elf/10.2.0/../../../../riscv-nuclei-elf/lib/rv32imac/ilp32\libg_nano.a(lib_a-puts.o)
 .data          0x0000000000000000        0x0 c:/microdownload/nucleistudio/toolchain/gcc/bin/../lib/gcc/riscv-nuclei-elf/10.2.0/../../../../riscv-nuclei-elf/lib/rv32imac/ilp32\libg_nano.a(lib_a-puts.o)
 .bss           0x0000000000000000        0x0 c:/microdownload/nucleistudio/toolchain/gcc/bin/../lib/gcc/riscv-nuclei-elf/10.2.0/../../../../riscv-nuclei-elf/lib/rv32imac/ilp32\libg_nano.a(lib_a-puts.o)
 .text          0x0000000000000000        0x0 c:/microdownload/nucleistudio/toolchain/gcc/bin/../lib/gcc/riscv-nuclei-elf/10.2.0/../../../../riscv-nuclei-elf/lib/rv32imac/ilp32\libg_nano.a(lib_a-reent.o)
 .data          0x0000000000000000        0x0 c:/microdownload/nucleistudio/toolchain/gcc/bin/../lib/gcc/riscv-nuclei-elf/10.2.0/../../../../riscv-nuclei-elf/lib/rv32imac/ilp32\libg_nano.a(lib_a-reent.o)
 .bss           0x0000000000000000        0x0 c:/microdownload/nucleistudio/toolchain/gcc/bin/../lib/gcc/riscv-nuclei-elf/10.2.0/../../../../riscv-nuclei-elf/lib/rv32imac/ilp32\libg_nano.a(lib_a-reent.o)
 .text.cleanup_glue
                0x0000000000000000       0x2c c:/microdownload/nucleistudio/toolchain/gcc/bin/../lib/gcc/riscv-nuclei-elf/10.2.0/../../../../riscv-nuclei-elf/lib/rv32imac/ilp32\libg_nano.a(lib_a-reent.o)
 .text._reclaim_reent
                0x0000000000000000      0x10a c:/microdownload/nucleistudio/toolchain/gcc/bin/../lib/gcc/riscv-nuclei-elf/10.2.0/../../../../riscv-nuclei-elf/lib/rv32imac/ilp32\libg_nano.a(lib_a-reent.o)
 .text          0x0000000000000000        0x0 c:/microdownload/nucleistudio/toolchain/gcc/bin/../lib/gcc/riscv-nuclei-elf/10.2.0/../../../../riscv-nuclei-elf/lib/rv32imac/ilp32\libg_nano.a(lib_a-sysisatty.o)
 .data          0x0000000000000000        0x0 c:/microdownload/nucleistudio/toolchain/gcc/bin/../lib/gcc/riscv-nuclei-elf/10.2.0/../../../../riscv-nuclei-elf/lib/rv32imac/ilp32\libg_nano.a(lib_a-sysisatty.o)
 .bss           0x0000000000000000        0x0 c:/microdownload/nucleistudio/toolchain/gcc/bin/../lib/gcc/riscv-nuclei-elf/10.2.0/../../../../riscv-nuclei-elf/lib/rv32imac/ilp32\libg_nano.a(lib_a-sysisatty.o)
 .text          0x0000000000000000        0x0 c:/microdownload/nucleistudio/toolchain/gcc/bin/../lib/gcc/riscv-nuclei-elf/10.2.0/../../../../riscv-nuclei-elf/lib/rv32imac/ilp32\libg_nano.a(lib_a-wbuf.o)
 .data          0x0000000000000000        0x0 c:/microdownload/nucleistudio/toolchain/gcc/bin/../lib/gcc/riscv-nuclei-elf/10.2.0/../../../../riscv-nuclei-elf/lib/rv32imac/ilp32\libg_nano.a(lib_a-wbuf.o)
 .bss           0x0000000000000000        0x0 c:/microdownload/nucleistudio/toolchain/gcc/bin/../lib/gcc/riscv-nuclei-elf/10.2.0/../../../../riscv-nuclei-elf/lib/rv32imac/ilp32\libg_nano.a(lib_a-wbuf.o)
 .text.__swbuf  0x0000000000000000       0x14 c:/microdownload/nucleistudio/toolchain/gcc/bin/../lib/gcc/riscv-nuclei-elf/10.2.0/../../../../riscv-nuclei-elf/lib/rv32imac/ilp32\libg_nano.a(lib_a-wbuf.o)
 .text          0x0000000000000000        0x0 c:/microdownload/nucleistudio/toolchain/gcc/bin/../lib/gcc/riscv-nuclei-elf/10.2.0/../../../../riscv-nuclei-elf/lib/rv32imac/ilp32\libg_nano.a(lib_a-wsetup.o)
 .data          0x0000000000000000        0x0 c:/microdownload/nucleistudio/toolchain/gcc/bin/../lib/gcc/riscv-nuclei-elf/10.2.0/../../../../riscv-nuclei-elf/lib/rv32imac/ilp32\libg_nano.a(lib_a-wsetup.o)
 .bss           0x0000000000000000        0x0 c:/microdownload/nucleistudio/toolchain/gcc/bin/../lib/gcc/riscv-nuclei-elf/10.2.0/../../../../riscv-nuclei-elf/lib/rv32imac/ilp32\libg_nano.a(lib_a-wsetup.o)
 .text          0x0000000000000000        0x0 c:/microdownload/nucleistudio/toolchain/gcc/bin/../lib/gcc/riscv-nuclei-elf/10.2.0/../../../../riscv-nuclei-elf/lib/rv32imac/ilp32\libg_nano.a(lib_a-__atexit.o)
 .data          0x0000000000000000        0x0 c:/microdownload/nucleistudio/toolchain/gcc/bin/../lib/gcc/riscv-nuclei-elf/10.2.0/../../../../riscv-nuclei-elf/lib/rv32imac/ilp32\libg_nano.a(lib_a-__atexit.o)
 .bss           0x0000000000000000        0x0 c:/microdownload/nucleistudio/toolchain/gcc/bin/../lib/gcc/riscv-nuclei-elf/10.2.0/../../../../riscv-nuclei-elf/lib/rv32imac/ilp32\libg_nano.a(lib_a-__atexit.o)
 .sdata.__atexit_dummy
                0x0000000000000000        0x4 c:/microdownload/nucleistudio/toolchain/gcc/bin/../lib/gcc/riscv-nuclei-elf/10.2.0/../../../../riscv-nuclei-elf/lib/rv32imac/ilp32\libg_nano.a(lib_a-__atexit.o)
 .text          0x0000000000000000        0x0 c:/microdownload/nucleistudio/toolchain/gcc/bin/../lib/gcc/riscv-nuclei-elf/10.2.0/../../../../riscv-nuclei-elf/lib/rv32imac/ilp32\libg_nano.a(lib_a-__call_atexit.o)
 .data          0x0000000000000000        0x0 c:/microdownload/nucleistudio/toolchain/gcc/bin/../lib/gcc/riscv-nuclei-elf/10.2.0/../../../../riscv-nuclei-elf/lib/rv32imac/ilp32\libg_nano.a(lib_a-__call_atexit.o)
 .bss           0x0000000000000000        0x0 c:/microdownload/nucleistudio/toolchain/gcc/bin/../lib/gcc/riscv-nuclei-elf/10.2.0/../../../../riscv-nuclei-elf/lib/rv32imac/ilp32\libg_nano.a(lib_a-__call_atexit.o)
 .text.__call_exitprocs
                0x0000000000000000       0xc8 c:/microdownload/nucleistudio/toolchain/gcc/bin/../lib/gcc/riscv-nuclei-elf/10.2.0/../../../../riscv-nuclei-elf/lib/rv32imac/ilp32\libg_nano.a(lib_a-__call_atexit.o)
 .text          0x0000000000000000        0x0 c:/microdownload/nucleistudio/toolchain/gcc/bin/../lib/gcc/riscv-nuclei-elf/10.2.0/../../../../riscv-nuclei-elf/lib/rv32imac/ilp32\libg_nano.a(lib_a-fflush.o)
 .data          0x0000000000000000        0x0 c:/microdownload/nucleistudio/toolchain/gcc/bin/../lib/gcc/riscv-nuclei-elf/10.2.0/../../../../riscv-nuclei-elf/lib/rv32imac/ilp32\libg_nano.a(lib_a-fflush.o)
 .bss           0x0000000000000000        0x0 c:/microdownload/nucleistudio/toolchain/gcc/bin/../lib/gcc/riscv-nuclei-elf/10.2.0/../../../../riscv-nuclei-elf/lib/rv32imac/ilp32\libg_nano.a(lib_a-fflush.o)
 .text.fflush   0x0000000000000000       0x2c c:/microdownload/nucleistudio/toolchain/gcc/bin/../lib/gcc/riscv-nuclei-elf/10.2.0/../../../../riscv-nuclei-elf/lib/rv32imac/ilp32\libg_nano.a(lib_a-fflush.o)
 .text          0x0000000000000000        0x0 c:/microdownload/nucleistudio/toolchain/gcc/bin/../lib/gcc/riscv-nuclei-elf/10.2.0/../../../../riscv-nuclei-elf/lib/rv32imac/ilp32\libg_nano.a(lib_a-findfp.o)
 .data          0x0000000000000000        0x0 c:/microdownload/nucleistudio/toolchain/gcc/bin/../lib/gcc/riscv-nuclei-elf/10.2.0/../../../../riscv-nuclei-elf/lib/rv32imac/ilp32\libg_nano.a(lib_a-findfp.o)
 .bss           0x0000000000000000        0x0 c:/microdownload/nucleistudio/toolchain/gcc/bin/../lib/gcc/riscv-nuclei-elf/10.2.0/../../../../riscv-nuclei-elf/lib/rv32imac/ilp32\libg_nano.a(lib_a-findfp.o)
 .text.__fp_lock
                0x0000000000000000        0x4 c:/microdownload/nucleistudio/toolchain/gcc/bin/../lib/gcc/riscv-nuclei-elf/10.2.0/../../../../riscv-nuclei-elf/lib/rv32imac/ilp32\libg_nano.a(lib_a-findfp.o)
 .text.__fp_unlock
                0x0000000000000000        0x4 c:/microdownload/nucleistudio/toolchain/gcc/bin/../lib/gcc/riscv-nuclei-elf/10.2.0/../../../../riscv-nuclei-elf/lib/rv32imac/ilp32\libg_nano.a(lib_a-findfp.o)
 .text._cleanup
                0x0000000000000000       0x10 c:/microdownload/nucleistudio/toolchain/gcc/bin/../lib/gcc/riscv-nuclei-elf/10.2.0/../../../../riscv-nuclei-elf/lib/rv32imac/ilp32\libg_nano.a(lib_a-findfp.o)
 .text.__sfp_lock_acquire
                0x0000000000000000        0x2 c:/microdownload/nucleistudio/toolchain/gcc/bin/../lib/gcc/riscv-nuclei-elf/10.2.0/../../../../riscv-nuclei-elf/lib/rv32imac/ilp32\libg_nano.a(lib_a-findfp.o)
 .text.__sfp_lock_release
                0x0000000000000000        0x2 c:/microdownload/nucleistudio/toolchain/gcc/bin/../lib/gcc/riscv-nuclei-elf/10.2.0/../../../../riscv-nuclei-elf/lib/rv32imac/ilp32\libg_nano.a(lib_a-findfp.o)
 .text.__sinit_lock_acquire
                0x0000000000000000        0x2 c:/microdownload/nucleistudio/toolchain/gcc/bin/../lib/gcc/riscv-nuclei-elf/10.2.0/../../../../riscv-nuclei-elf/lib/rv32imac/ilp32\libg_nano.a(lib_a-findfp.o)
 .text.__sinit_lock_release
                0x0000000000000000        0x2 c:/microdownload/nucleistudio/toolchain/gcc/bin/../lib/gcc/riscv-nuclei-elf/10.2.0/../../../../riscv-nuclei-elf/lib/rv32imac/ilp32\libg_nano.a(lib_a-findfp.o)
 .text.__fp_lock_all
                0x0000000000000000       0x18 c:/microdownload/nucleistudio/toolchain/gcc/bin/../lib/gcc/riscv-nuclei-elf/10.2.0/../../../../riscv-nuclei-elf/lib/rv32imac/ilp32\libg_nano.a(lib_a-findfp.o)
 .text.__fp_unlock_all
                0x0000000000000000       0x18 c:/microdownload/nucleistudio/toolchain/gcc/bin/../lib/gcc/riscv-nuclei-elf/10.2.0/../../../../riscv-nuclei-elf/lib/rv32imac/ilp32\libg_nano.a(lib_a-findfp.o)
 .text          0x0000000000000000        0x0 c:/microdownload/nucleistudio/toolchain/gcc/bin/../lib/gcc/riscv-nuclei-elf/10.2.0/../../../../riscv-nuclei-elf/lib/rv32imac/ilp32\libg_nano.a(lib_a-fwalk.o)
 .data          0x0000000000000000        0x0 c:/microdownload/nucleistudio/toolchain/gcc/bin/../lib/gcc/riscv-nuclei-elf/10.2.0/../../../../riscv-nuclei-elf/lib/rv32imac/ilp32\libg_nano.a(lib_a-fwalk.o)
 .bss           0x0000000000000000        0x0 c:/microdownload/nucleistudio/toolchain/gcc/bin/../lib/gcc/riscv-nuclei-elf/10.2.0/../../../../riscv-nuclei-elf/lib/rv32imac/ilp32\libg_nano.a(lib_a-fwalk.o)
 .text._fwalk   0x0000000000000000       0x62 c:/microdownload/nucleistudio/toolchain/gcc/bin/../lib/gcc/riscv-nuclei-elf/10.2.0/../../../../riscv-nuclei-elf/lib/rv32imac/ilp32\libg_nano.a(lib_a-fwalk.o)
 .text          0x0000000000000000        0x0 c:/microdownload/nucleistudio/toolchain/gcc/bin/../lib/gcc/riscv-nuclei-elf/10.2.0/../../../../riscv-nuclei-elf/lib/rv32imac/ilp32\libg_nano.a(lib_a-impure.o)
 .data          0x0000000000000000        0x0 c:/microdownload/nucleistudio/toolchain/gcc/bin/../lib/gcc/riscv-nuclei-elf/10.2.0/../../../../riscv-nuclei-elf/lib/rv32imac/ilp32\libg_nano.a(lib_a-impure.o)
 .bss           0x0000000000000000        0x0 c:/microdownload/nucleistudio/toolchain/gcc/bin/../lib/gcc/riscv-nuclei-elf/10.2.0/../../../../riscv-nuclei-elf/lib/rv32imac/ilp32\libg_nano.a(lib_a-impure.o)
 .text          0x0000000000000000        0x0 c:/microdownload/nucleistudio/toolchain/gcc/bin/../lib/gcc/riscv-nuclei-elf/10.2.0/../../../../riscv-nuclei-elf/lib/rv32imac/ilp32\libg_nano.a(lib_a-makebuf.o)
 .data          0x0000000000000000        0x0 c:/microdownload/nucleistudio/toolchain/gcc/bin/../lib/gcc/riscv-nuclei-elf/10.2.0/../../../../riscv-nuclei-elf/lib/rv32imac/ilp32\libg_nano.a(lib_a-makebuf.o)
 .bss           0x0000000000000000        0x0 c:/microdownload/nucleistudio/toolchain/gcc/bin/../lib/gcc/riscv-nuclei-elf/10.2.0/../../../../riscv-nuclei-elf/lib/rv32imac/ilp32\libg_nano.a(lib_a-makebuf.o)
 .text          0x0000000000000000        0x0 c:/microdownload/nucleistudio/toolchain/gcc/bin/../lib/gcc/riscv-nuclei-elf/10.2.0/../../../../riscv-nuclei-elf/lib/rv32imac/ilp32\libg_nano.a(lib_a-nano-freer.o)
 .data          0x0000000000000000        0x0 c:/microdownload/nucleistudio/toolchain/gcc/bin/../lib/gcc/riscv-nuclei-elf/10.2.0/../../../../riscv-nuclei-elf/lib/rv32imac/ilp32\libg_nano.a(lib_a-nano-freer.o)
 .bss           0x0000000000000000        0x0 c:/microdownload/nucleistudio/toolchain/gcc/bin/../lib/gcc/riscv-nuclei-elf/10.2.0/../../../../riscv-nuclei-elf/lib/rv32imac/ilp32\libg_nano.a(lib_a-nano-freer.o)
 .text          0x0000000000000000        0x0 c:/microdownload/nucleistudio/toolchain/gcc/bin/../lib/gcc/riscv-nuclei-elf/10.2.0/../../../../riscv-nuclei-elf/lib/rv32imac/ilp32\libg_nano.a(lib_a-nano-mallocr.o)
 .data          0x0000000000000000        0x0 c:/microdownload/nucleistudio/toolchain/gcc/bin/../lib/gcc/riscv-nuclei-elf/10.2.0/../../../../riscv-nuclei-elf/lib/rv32imac/ilp32\libg_nano.a(lib_a-nano-mallocr.o)
 .bss           0x0000000000000000        0x0 c:/microdownload/nucleistudio/toolchain/gcc/bin/../lib/gcc/riscv-nuclei-elf/10.2.0/../../../../riscv-nuclei-elf/lib/rv32imac/ilp32\libg_nano.a(lib_a-nano-mallocr.o)
 .text          0x0000000000000000        0x0 c:/microdownload/nucleistudio/toolchain/gcc/bin/../lib/gcc/riscv-nuclei-elf/10.2.0/../../../../riscv-nuclei-elf/lib/rv32imac/ilp32\libg_nano.a(lib_a-nano-vfprintf.o)
 .data          0x0000000000000000        0x0 c:/microdownload/nucleistudio/toolchain/gcc/bin/../lib/gcc/riscv-nuclei-elf/10.2.0/../../../../riscv-nuclei-elf/lib/rv32imac/ilp32\libg_nano.a(lib_a-nano-vfprintf.o)
 .bss           0x0000000000000000        0x0 c:/microdownload/nucleistudio/toolchain/gcc/bin/../lib/gcc/riscv-nuclei-elf/10.2.0/../../../../riscv-nuclei-elf/lib/rv32imac/ilp32\libg_nano.a(lib_a-nano-vfprintf.o)
 .text.__sprint_r
                0x0000000000000000       0x2c c:/microdownload/nucleistudio/toolchain/gcc/bin/../lib/gcc/riscv-nuclei-elf/10.2.0/../../../../riscv-nuclei-elf/lib/rv32imac/ilp32\libg_nano.a(lib_a-nano-vfprintf.o)
 .text.vfprintf
                0x0000000000000000       0x16 c:/microdownload/nucleistudio/toolchain/gcc/bin/../lib/gcc/riscv-nuclei-elf/10.2.0/../../../../riscv-nuclei-elf/lib/rv32imac/ilp32\libg_nano.a(lib_a-nano-vfprintf.o)
 .text          0x0000000000000000        0x0 c:/microdownload/nucleistudio/toolchain/gcc/bin/../lib/gcc/riscv-nuclei-elf/10.2.0/../../../../riscv-nuclei-elf/lib/rv32imac/ilp32\libg_nano.a(lib_a-nano-vfprintf_i.o)
 .data          0x0000000000000000        0x0 c:/microdownload/nucleistudio/toolchain/gcc/bin/../lib/gcc/riscv-nuclei-elf/10.2.0/../../../../riscv-nuclei-elf/lib/rv32imac/ilp32\libg_nano.a(lib_a-nano-vfprintf_i.o)
 .bss           0x0000000000000000        0x0 c:/microdownload/nucleistudio/toolchain/gcc/bin/../lib/gcc/riscv-nuclei-elf/10.2.0/../../../../riscv-nuclei-elf/lib/rv32imac/ilp32\libg_nano.a(lib_a-nano-vfprintf_i.o)
 .text          0x0000000000000000        0x0 c:/microdownload/nucleistudio/toolchain/gcc/bin/../lib/gcc/riscv-nuclei-elf/10.2.0/../../../../riscv-nuclei-elf/lib/rv32imac/ilp32\libg_nano.a(lib_a-sbrkr.o)
 .data          0x0000000000000000        0x0 c:/microdownload/nucleistudio/toolchain/gcc/bin/../lib/gcc/riscv-nuclei-elf/10.2.0/../../../../riscv-nuclei-elf/lib/rv32imac/ilp32\libg_nano.a(lib_a-sbrkr.o)
 .bss           0x0000000000000000        0x0 c:/microdownload/nucleistudio/toolchain/gcc/bin/../lib/gcc/riscv-nuclei-elf/10.2.0/../../../../riscv-nuclei-elf/lib/rv32imac/ilp32\libg_nano.a(lib_a-sbrkr.o)
 .text          0x0000000000000000        0x0 c:/microdownload/nucleistudio/toolchain/gcc/bin/../lib/gcc/riscv-nuclei-elf/10.2.0/../../../../riscv-nuclei-elf/lib/rv32imac/ilp32\libg_nano.a(lib_a-stdio.o)
 .data          0x0000000000000000        0x0 c:/microdownload/nucleistudio/toolchain/gcc/bin/../lib/gcc/riscv-nuclei-elf/10.2.0/../../../../riscv-nuclei-elf/lib/rv32imac/ilp32\libg_nano.a(lib_a-stdio.o)
 .bss           0x0000000000000000        0x0 c:/microdownload/nucleistudio/toolchain/gcc/bin/../lib/gcc/riscv-nuclei-elf/10.2.0/../../../../riscv-nuclei-elf/lib/rv32imac/ilp32\libg_nano.a(lib_a-stdio.o)
 .text.__seofread
                0x0000000000000000        0x4 c:/microdownload/nucleistudio/toolchain/gcc/bin/../lib/gcc/riscv-nuclei-elf/10.2.0/../../../../riscv-nuclei-elf/lib/rv32imac/ilp32\libg_nano.a(lib_a-stdio.o)
 .text          0x0000000000000000        0x0 c:/microdownload/nucleistudio/toolchain/gcc/bin/../lib/gcc/riscv-nuclei-elf/10.2.0/../../../../riscv-nuclei-elf/lib/rv32imac/ilp32\libg_nano.a(lib_a-writer.o)
 .data          0x0000000000000000        0x0 c:/microdownload/nucleistudio/toolchain/gcc/bin/../lib/gcc/riscv-nuclei-elf/10.2.0/../../../../riscv-nuclei-elf/lib/rv32imac/ilp32\libg_nano.a(lib_a-writer.o)
 .bss           0x0000000000000000        0x0 c:/microdownload/nucleistudio/toolchain/gcc/bin/../lib/gcc/riscv-nuclei-elf/10.2.0/../../../../riscv-nuclei-elf/lib/rv32imac/ilp32\libg_nano.a(lib_a-writer.o)
 .text          0x0000000000000000        0x0 c:/microdownload/nucleistudio/toolchain/gcc/bin/../lib/gcc/riscv-nuclei-elf/10.2.0/../../../../riscv-nuclei-elf/lib/rv32imac/ilp32\libg_nano.a(lib_a-closer.o)
 .data          0x0000000000000000        0x0 c:/microdownload/nucleistudio/toolchain/gcc/bin/../lib/gcc/riscv-nuclei-elf/10.2.0/../../../../riscv-nuclei-elf/lib/rv32imac/ilp32\libg_nano.a(lib_a-closer.o)
 .bss           0x0000000000000000        0x0 c:/microdownload/nucleistudio/toolchain/gcc/bin/../lib/gcc/riscv-nuclei-elf/10.2.0/../../../../riscv-nuclei-elf/lib/rv32imac/ilp32\libg_nano.a(lib_a-closer.o)
 .text          0x0000000000000000        0x0 c:/microdownload/nucleistudio/toolchain/gcc/bin/../lib/gcc/riscv-nuclei-elf/10.2.0/../../../../riscv-nuclei-elf/lib/rv32imac/ilp32\libg_nano.a(lib_a-fstatr.o)
 .data          0x0000000000000000        0x0 c:/microdownload/nucleistudio/toolchain/gcc/bin/../lib/gcc/riscv-nuclei-elf/10.2.0/../../../../riscv-nuclei-elf/lib/rv32imac/ilp32\libg_nano.a(lib_a-fstatr.o)
 .bss           0x0000000000000000        0x0 c:/microdownload/nucleistudio/toolchain/gcc/bin/../lib/gcc/riscv-nuclei-elf/10.2.0/../../../../riscv-nuclei-elf/lib/rv32imac/ilp32\libg_nano.a(lib_a-fstatr.o)
 .text          0x0000000000000000        0x0 c:/microdownload/nucleistudio/toolchain/gcc/bin/../lib/gcc/riscv-nuclei-elf/10.2.0/../../../../riscv-nuclei-elf/lib/rv32imac/ilp32\libg_nano.a(lib_a-fvwrite.o)
 .data          0x0000000000000000        0x0 c:/microdownload/nucleistudio/toolchain/gcc/bin/../lib/gcc/riscv-nuclei-elf/10.2.0/../../../../riscv-nuclei-elf/lib/rv32imac/ilp32\libg_nano.a(lib_a-fvwrite.o)
 .bss           0x0000000000000000        0x0 c:/microdownload/nucleistudio/toolchain/gcc/bin/../lib/gcc/riscv-nuclei-elf/10.2.0/../../../../riscv-nuclei-elf/lib/rv32imac/ilp32\libg_nano.a(lib_a-fvwrite.o)
 .text.__sfvwrite_r
                0x0000000000000000      0x314 c:/microdownload/nucleistudio/toolchain/gcc/bin/../lib/gcc/riscv-nuclei-elf/10.2.0/../../../../riscv-nuclei-elf/lib/rv32imac/ilp32\libg_nano.a(lib_a-fvwrite.o)
 .comment       0x0000000000000000       0x13 c:/microdownload/nucleistudio/toolchain/gcc/bin/../lib/gcc/riscv-nuclei-elf/10.2.0/../../../../riscv-nuclei-elf/lib/rv32imac/ilp32\libg_nano.a(lib_a-fvwrite.o)
 .riscv.attributes
                0x0000000000000000       0x2b c:/microdownload/nucleistudio/toolchain/gcc/bin/../lib/gcc/riscv-nuclei-elf/10.2.0/../../../../riscv-nuclei-elf/lib/rv32imac/ilp32\libg_nano.a(lib_a-fvwrite.o)
 .text          0x0000000000000000        0x0 c:/microdownload/nucleistudio/toolchain/gcc/bin/../lib/gcc/riscv-nuclei-elf/10.2.0/../../../../riscv-nuclei-elf/lib/rv32imac/ilp32\libg_nano.a(lib_a-isattyr.o)
 .data          0x0000000000000000        0x0 c:/microdownload/nucleistudio/toolchain/gcc/bin/../lib/gcc/riscv-nuclei-elf/10.2.0/../../../../riscv-nuclei-elf/lib/rv32imac/ilp32\libg_nano.a(lib_a-isattyr.o)
 .bss           0x0000000000000000        0x0 c:/microdownload/nucleistudio/toolchain/gcc/bin/../lib/gcc/riscv-nuclei-elf/10.2.0/../../../../riscv-nuclei-elf/lib/rv32imac/ilp32\libg_nano.a(lib_a-isattyr.o)
 .text          0x0000000000000000        0x0 c:/microdownload/nucleistudio/toolchain/gcc/bin/../lib/gcc/riscv-nuclei-elf/10.2.0/../../../../riscv-nuclei-elf/lib/rv32imac/ilp32\libg_nano.a(lib_a-lseekr.o)
 .data          0x0000000000000000        0x0 c:/microdownload/nucleistudio/toolchain/gcc/bin/../lib/gcc/riscv-nuclei-elf/10.2.0/../../../../riscv-nuclei-elf/lib/rv32imac/ilp32\libg_nano.a(lib_a-lseekr.o)
 .bss           0x0000000000000000        0x0 c:/microdownload/nucleistudio/toolchain/gcc/bin/../lib/gcc/riscv-nuclei-elf/10.2.0/../../../../riscv-nuclei-elf/lib/rv32imac/ilp32\libg_nano.a(lib_a-lseekr.o)
 .text          0x0000000000000000        0x0 c:/microdownload/nucleistudio/toolchain/gcc/bin/../lib/gcc/riscv-nuclei-elf/10.2.0/../../../../riscv-nuclei-elf/lib/rv32imac/ilp32\libg_nano.a(lib_a-memchr.o)
 .data          0x0000000000000000        0x0 c:/microdownload/nucleistudio/toolchain/gcc/bin/../lib/gcc/riscv-nuclei-elf/10.2.0/../../../../riscv-nuclei-elf/lib/rv32imac/ilp32\libg_nano.a(lib_a-memchr.o)
 .bss           0x0000000000000000        0x0 c:/microdownload/nucleistudio/toolchain/gcc/bin/../lib/gcc/riscv-nuclei-elf/10.2.0/../../../../riscv-nuclei-elf/lib/rv32imac/ilp32\libg_nano.a(lib_a-memchr.o)
 .text          0x0000000000000000        0x0 c:/microdownload/nucleistudio/toolchain/gcc/bin/../lib/gcc/riscv-nuclei-elf/10.2.0/../../../../riscv-nuclei-elf/lib/rv32imac/ilp32\libg_nano.a(lib_a-memmove-stub.o)
 .data          0x0000000000000000        0x0 c:/microdownload/nucleistudio/toolchain/gcc/bin/../lib/gcc/riscv-nuclei-elf/10.2.0/../../../../riscv-nuclei-elf/lib/rv32imac/ilp32\libg_nano.a(lib_a-memmove-stub.o)
 .bss           0x0000000000000000        0x0 c:/microdownload/nucleistudio/toolchain/gcc/bin/../lib/gcc/riscv-nuclei-elf/10.2.0/../../../../riscv-nuclei-elf/lib/rv32imac/ilp32\libg_nano.a(lib_a-memmove-stub.o)
 .text.memmove  0x0000000000000000       0x4a c:/microdownload/nucleistudio/toolchain/gcc/bin/../lib/gcc/riscv-nuclei-elf/10.2.0/../../../../riscv-nuclei-elf/lib/rv32imac/ilp32\libg_nano.a(lib_a-memmove-stub.o)
 .comment       0x0000000000000000       0x13 c:/microdownload/nucleistudio/toolchain/gcc/bin/../lib/gcc/riscv-nuclei-elf/10.2.0/../../../../riscv-nuclei-elf/lib/rv32imac/ilp32\libg_nano.a(lib_a-memmove-stub.o)
 .riscv.attributes
                0x0000000000000000       0x2b c:/microdownload/nucleistudio/toolchain/gcc/bin/../lib/gcc/riscv-nuclei-elf/10.2.0/../../../../riscv-nuclei-elf/lib/rv32imac/ilp32\libg_nano.a(lib_a-memmove-stub.o)
 .text          0x0000000000000000        0x0 c:/microdownload/nucleistudio/toolchain/gcc/bin/../lib/gcc/riscv-nuclei-elf/10.2.0/../../../../riscv-nuclei-elf/lib/rv32imac/ilp32\libg_nano.a(lib_a-mlock.o)
 .data          0x0000000000000000        0x0 c:/microdownload/nucleistudio/toolchain/gcc/bin/../lib/gcc/riscv-nuclei-elf/10.2.0/../../../../riscv-nuclei-elf/lib/rv32imac/ilp32\libg_nano.a(lib_a-mlock.o)
 .bss           0x0000000000000000        0x0 c:/microdownload/nucleistudio/toolchain/gcc/bin/../lib/gcc/riscv-nuclei-elf/10.2.0/../../../../riscv-nuclei-elf/lib/rv32imac/ilp32\libg_nano.a(lib_a-mlock.o)
 .text          0x0000000000000000        0x0 c:/microdownload/nucleistudio/toolchain/gcc/bin/../lib/gcc/riscv-nuclei-elf/10.2.0/../../../../riscv-nuclei-elf/lib/rv32imac/ilp32\libg_nano.a(lib_a-nano-reallocr.o)
 .data          0x0000000000000000        0x0 c:/microdownload/nucleistudio/toolchain/gcc/bin/../lib/gcc/riscv-nuclei-elf/10.2.0/../../../../riscv-nuclei-elf/lib/rv32imac/ilp32\libg_nano.a(lib_a-nano-reallocr.o)
 .bss           0x0000000000000000        0x0 c:/microdownload/nucleistudio/toolchain/gcc/bin/../lib/gcc/riscv-nuclei-elf/10.2.0/../../../../riscv-nuclei-elf/lib/rv32imac/ilp32\libg_nano.a(lib_a-nano-reallocr.o)
 .text._realloc_r
                0x0000000000000000       0x96 c:/microdownload/nucleistudio/toolchain/gcc/bin/../lib/gcc/riscv-nuclei-elf/10.2.0/../../../../riscv-nuclei-elf/lib/rv32imac/ilp32\libg_nano.a(lib_a-nano-reallocr.o)
 .comment       0x0000000000000000       0x13 c:/microdownload/nucleistudio/toolchain/gcc/bin/../lib/gcc/riscv-nuclei-elf/10.2.0/../../../../riscv-nuclei-elf/lib/rv32imac/ilp32\libg_nano.a(lib_a-nano-reallocr.o)
 .riscv.attributes
                0x0000000000000000       0x2b c:/microdownload/nucleistudio/toolchain/gcc/bin/../lib/gcc/riscv-nuclei-elf/10.2.0/../../../../riscv-nuclei-elf/lib/rv32imac/ilp32\libg_nano.a(lib_a-nano-reallocr.o)
 .text          0x0000000000000000        0x0 c:/microdownload/nucleistudio/toolchain/gcc/bin/../lib/gcc/riscv-nuclei-elf/10.2.0/../../../../riscv-nuclei-elf/lib/rv32imac/ilp32\libg_nano.a(lib_a-readr.o)
 .data          0x0000000000000000        0x0 c:/microdownload/nucleistudio/toolchain/gcc/bin/../lib/gcc/riscv-nuclei-elf/10.2.0/../../../../riscv-nuclei-elf/lib/rv32imac/ilp32\libg_nano.a(lib_a-readr.o)
 .bss           0x0000000000000000        0x0 c:/microdownload/nucleistudio/toolchain/gcc/bin/../lib/gcc/riscv-nuclei-elf/10.2.0/../../../../riscv-nuclei-elf/lib/rv32imac/ilp32\libg_nano.a(lib_a-readr.o)
 .text          0x0000000000000000        0x0 c:/microdownload/nucleistudio/toolchain/gcc/bin/../lib/gcc/riscv-nuclei-elf/10.2.0/../../../../riscv-nuclei-elf/lib/rv32imac/ilp32\libg_nano.a(lib_a-nano-msizer.o)
 .data          0x0000000000000000        0x0 c:/microdownload/nucleistudio/toolchain/gcc/bin/../lib/gcc/riscv-nuclei-elf/10.2.0/../../../../riscv-nuclei-elf/lib/rv32imac/ilp32\libg_nano.a(lib_a-nano-msizer.o)
 .bss           0x0000000000000000        0x0 c:/microdownload/nucleistudio/toolchain/gcc/bin/../lib/gcc/riscv-nuclei-elf/10.2.0/../../../../riscv-nuclei-elf/lib/rv32imac/ilp32\libg_nano.a(lib_a-nano-msizer.o)
 .text._malloc_usable_size_r
                0x0000000000000000       0x14 c:/microdownload/nucleistudio/toolchain/gcc/bin/../lib/gcc/riscv-nuclei-elf/10.2.0/../../../../riscv-nuclei-elf/lib/rv32imac/ilp32\libg_nano.a(lib_a-nano-msizer.o)
 .comment       0x0000000000000000       0x13 c:/microdownload/nucleistudio/toolchain/gcc/bin/../lib/gcc/riscv-nuclei-elf/10.2.0/../../../../riscv-nuclei-elf/lib/rv32imac/ilp32\libg_nano.a(lib_a-nano-msizer.o)
 .riscv.attributes
                0x0000000000000000       0x2b c:/microdownload/nucleistudio/toolchain/gcc/bin/../lib/gcc/riscv-nuclei-elf/10.2.0/../../../../riscv-nuclei-elf/lib/rv32imac/ilp32\libg_nano.a(lib_a-nano-msizer.o)

Memory Configuration

Name             Origin             Length             Attributes
ilm              0x0000000080000000 0x0000000000080000 axrl !w
ram              0x0000000090000000 0x0000000000080000 axw !rl
*default*        0x0000000000000000 0xffffffffffffffff

Linker script and memory map

LOAD ./hbird_sdk/SoC/hbirdv2/Common/Source/Stubs/clock_getres.o
LOAD ./hbird_sdk/SoC/hbirdv2/Common/Source/Stubs/clock_gettime.o
LOAD ./hbird_sdk/SoC/hbirdv2/Common/Source/Stubs/clock_settime.o
LOAD ./hbird_sdk/SoC/hbirdv2/Common/Source/Stubs/close.o
LOAD ./hbird_sdk/SoC/hbirdv2/Common/Source/Stubs/execve.o
LOAD ./hbird_sdk/SoC/hbirdv2/Common/Source/Stubs/exit.o
LOAD ./hbird_sdk/SoC/hbirdv2/Common/Source/Stubs/fork.o
LOAD ./hbird_sdk/SoC/hbirdv2/Common/Source/Stubs/fstat.o
LOAD ./hbird_sdk/SoC/hbirdv2/Common/Source/Stubs/getpid.o
LOAD ./hbird_sdk/SoC/hbirdv2/Common/Source/Stubs/gettimeofday.o
LOAD ./hbird_sdk/SoC/hbirdv2/Common/Source/Stubs/isatty.o
LOAD ./hbird_sdk/SoC/hbirdv2/Common/Source/Stubs/kill.o
LOAD ./hbird_sdk/SoC/hbirdv2/Common/Source/Stubs/link.o
LOAD ./hbird_sdk/SoC/hbirdv2/Common/Source/Stubs/lseek.o
LOAD ./hbird_sdk/SoC/hbirdv2/Common/Source/Stubs/open.o
LOAD ./hbird_sdk/SoC/hbirdv2/Common/Source/Stubs/read.o
LOAD ./hbird_sdk/SoC/hbirdv2/Common/Source/Stubs/sbrk.o
LOAD ./hbird_sdk/SoC/hbirdv2/Common/Source/Stubs/stat.o
LOAD ./hbird_sdk/SoC/hbirdv2/Common/Source/Stubs/times.o
LOAD ./hbird_sdk/SoC/hbirdv2/Common/Source/Stubs/unlink.o
LOAD ./hbird_sdk/SoC/hbirdv2/Common/Source/Stubs/wait.o
LOAD ./hbird_sdk/SoC/hbirdv2/Common/Source/Stubs/write.o
LOAD ./hbird_sdk/SoC/hbirdv2/Common/Source/GCC/intexc_hbirdv2.o
LOAD ./hbird_sdk/SoC/hbirdv2/Common/Source/GCC/startup_hbirdv2.o
LOAD ./hbird_sdk/SoC/hbirdv2/Common/Source/Drivers/hbirdv2_gpio.o
LOAD ./hbird_sdk/SoC/hbirdv2/Common/Source/Drivers/hbirdv2_i2c.o
LOAD ./hbird_sdk/SoC/hbirdv2/Common/Source/Drivers/hbirdv2_pwm.o
LOAD ./hbird_sdk/SoC/hbirdv2/Common/Source/Drivers/hbirdv2_spi.o
LOAD ./hbird_sdk/SoC/hbirdv2/Common/Source/Drivers/hbirdv2_uart.o
LOAD ./hbird_sdk/SoC/hbirdv2/Common/Source/Drivers/htif.o
LOAD ./hbird_sdk/SoC/hbirdv2/Common/Source/hbirdv2_common.o
LOAD ./hbird_sdk/SoC/hbirdv2/Common/Source/system_hbirdv2.o
LOAD ./application/ILI93xx.o
LOAD ./application/InfoNES.o
LOAD ./application/InfoNES_Mapper.o
LOAD ./application/InfoNES_System.o
LOAD ./application/InfoNES_pAPU.o
LOAD ./application/K6502.o
LOAD ./application/key.o
LOAD ./application/main.o
LOAD ./application/rom.o
LOAD c:/microdownload/nucleistudio/toolchain/gcc/bin/../lib/gcc/riscv-nuclei-elf/10.2.0/../../../../riscv-nuclei-elf/lib/rv32imac/ilp32\libstdc++.a
LOAD c:/microdownload/nucleistudio/toolchain/gcc/bin/../lib/gcc/riscv-nuclei-elf/10.2.0/../../../../riscv-nuclei-elf/lib/rv32imac/ilp32\libstdc++.a
LOAD c:/microdownload/nucleistudio/toolchain/gcc/bin/../lib/gcc/riscv-nuclei-elf/10.2.0/../../../../riscv-nuclei-elf/lib/rv32imac/ilp32\libm_nano.a
LOAD c:/microdownload/nucleistudio/toolchain/gcc/bin/../lib/gcc/riscv-nuclei-elf/10.2.0/rv32imac/ilp32\libgcc.a
LOAD c:/microdownload/nucleistudio/toolchain/gcc/bin/../lib/gcc/riscv-nuclei-elf/10.2.0/../../../../riscv-nuclei-elf/lib/rv32imac/ilp32\libg_nano.a
LOAD c:/microdownload/nucleistudio/toolchain/gcc/bin/../lib/gcc/riscv-nuclei-elf/10.2.0/../../../../riscv-nuclei-elf/lib/rv32imac/ilp32\libc_nano.a
LOAD c:/microdownload/nucleistudio/toolchain/gcc/bin/../lib/gcc/riscv-nuclei-elf/10.2.0/rv32imac/ilp32\libgcc.a
START GROUP
LOAD c:/microdownload/nucleistudio/toolchain/gcc/bin/../lib/gcc/riscv-nuclei-elf/10.2.0/rv32imac/ilp32\libgcc.a
LOAD c:/microdownload/nucleistudio/toolchain/gcc/bin/../lib/gcc/riscv-nuclei-elf/10.2.0/../../../../riscv-nuclei-elf/lib/rv32imac/ilp32\libc_nano.a
LOAD c:/microdownload/nucleistudio/toolchain/gcc/bin/../lib/gcc/riscv-nuclei-elf/10.2.0/../../../../riscv-nuclei-elf/lib/rv32imac/ilp32\libnosys.a
END GROUP
START GROUP
LOAD c:/microdownload/nucleistudio/toolchain/gcc/bin/../lib/gcc/riscv-nuclei-elf/10.2.0/rv32imac/ilp32\libgcc.a
LOAD c:/microdownload/nucleistudio/toolchain/gcc/bin/../lib/gcc/riscv-nuclei-elf/10.2.0/../../../../riscv-nuclei-elf/lib/rv32imac/ilp32\libc_nano.a
LOAD c:/microdownload/nucleistudio/toolchain/gcc/bin/../lib/gcc/riscv-nuclei-elf/10.2.0/../../../../riscv-nuclei-elf/lib/rv32imac/ilp32\libnosys.a
END GROUP
                0x0000000000000800                __stack_size = DEFINED (__stack_size)?__stack_size:0x800

.init           0x0000000080000000       0xb8
 *(.vtable)
 *(SORT_NONE(.init))
 .init          0x0000000080000000       0xb8 ./hbird_sdk/SoC/hbirdv2/Common/Source/GCC/startup_hbirdv2.o
                0x0000000080000000                _start

.ilalign        0x00000000800000b8        0x0
                0x00000000800000b8                . = ALIGN (0x4)
                0x00000000800000b8                PROVIDE (_ilm_lma = .)

.ialign         0x00000000800000b8        0x0
                0x00000000800000b8                PROVIDE (_ilm = .)

.text           0x00000000800000b8    0x1de60
 *(.text.unlikely .text.unlikely.*)
 *(.text.startup .text.startup.*)
 .text.startup.main
                0x00000000800000b8       0x2c ./application/main.o
                0x00000000800000b8                main
 *(.text .text.*)
 .text._close   0x00000000800000e4        0xa ./hbird_sdk/SoC/hbirdv2/Common/Source/Stubs/close.o
                0x00000000800000e4                _close
 .text._fstat   0x00000000800000ee       0x1a ./hbird_sdk/SoC/hbirdv2/Common/Source/Stubs/fstat.o
                0x00000000800000ee                _fstat
 .text._isatty  0x0000000080000108        0x4 ./hbird_sdk/SoC/hbirdv2/Common/Source/Stubs/isatty.o
                0x0000000080000108                _isatty
 .text._lseek   0x000000008000010c        0x4 ./hbird_sdk/SoC/hbirdv2/Common/Source/Stubs/lseek.o
                0x000000008000010c                _lseek
 .text._read    0x0000000080000110       0x22 ./hbird_sdk/SoC/hbirdv2/Common/Source/Stubs/read.o
                0x0000000080000110                _read
 .text._sbrk    0x0000000080000132       0x30 ./hbird_sdk/SoC/hbirdv2/Common/Source/Stubs/sbrk.o
                0x0000000080000132                _sbrk
 .text._write   0x0000000080000162       0x62 ./hbird_sdk/SoC/hbirdv2/Common/Source/Stubs/write.o
                0x0000000080000162                _write
 .text.trap     0x00000000800001c4       0x78 ./hbird_sdk/SoC/hbirdv2/Common/Source/GCC/intexc_hbirdv2.o
                0x00000000800001c4                trap_entry
 .text.gpio_iof_config
                0x000000008000023c       0x12 ./hbird_sdk/SoC/hbirdv2/Common/Source/Drivers/hbirdv2_gpio.o
                0x000000008000023c                gpio_iof_config
 .text.gpio_enable_input
                0x000000008000024e       0x16 ./hbird_sdk/SoC/hbirdv2/Common/Source/Drivers/hbirdv2_gpio.o
                0x000000008000024e                gpio_enable_input
 .text.gpio_enable_interrupt
                0x0000000080000264       0x70 ./hbird_sdk/SoC/hbirdv2/Common/Source/Drivers/hbirdv2_gpio.o
                0x0000000080000264                gpio_enable_interrupt
 .text.gpio_clear_interrupt
                0x00000000800002d4        0xa ./hbird_sdk/SoC/hbirdv2/Common/Source/Drivers/hbirdv2_gpio.o
                0x00000000800002d4                gpio_clear_interrupt
 .text.uart_init
                0x00000000800002de       0x3a ./hbird_sdk/SoC/hbirdv2/Common/Source/Drivers/hbirdv2_uart.o
                0x00000000800002de                uart_init
 .text.uart_write
                0x0000000080000318       0x14 ./hbird_sdk/SoC/hbirdv2/Common/Source/Drivers/hbirdv2_uart.o
                0x0000000080000318                uart_write
 .text.uart_read
                0x000000008000032c       0x16 ./hbird_sdk/SoC/hbirdv2/Common/Source/Drivers/hbirdv2_uart.o
                0x000000008000032c                uart_read
 .text.measure_cpu_freq
                0x0000000080000342       0x6a ./hbird_sdk/SoC/hbirdv2/Common/Source/hbirdv2_common.o
                0x0000000080000342                measure_cpu_freq
 .text.get_cpu_freq
                0x00000000800003ac       0x12 ./hbird_sdk/SoC/hbirdv2/Common/Source/hbirdv2_common.o
                0x00000000800003ac                get_cpu_freq
 .text.system_default_exception_handler
                0x00000000800003be       0x44 ./hbird_sdk/SoC/hbirdv2/Common/Source/system_hbirdv2.o
 .text.system_default_interrupt_handler
                0x0000000080000402       0x48 ./hbird_sdk/SoC/hbirdv2/Common/Source/system_hbirdv2.o
 .text.SystemInit
                0x000000008000044a        0xe ./hbird_sdk/SoC/hbirdv2/Common/Source/system_hbirdv2.o
                0x000000008000044a                SystemInit
 .text.core_trap_handler
                0x0000000080000458       0x90 ./hbird_sdk/SoC/hbirdv2/Common/Source/system_hbirdv2.o
                0x0000000080000458                core_trap_handler
 .text.PLIC_Register_IRQ
                0x00000000800004e8       0x46 ./hbird_sdk/SoC/hbirdv2/Common/Source/system_hbirdv2.o
                0x00000000800004e8                PLIC_Register_IRQ
 .text._premain_init
                0x000000008000052e       0xec ./hbird_sdk/SoC/hbirdv2/Common/Source/system_hbirdv2.o
                0x000000008000052e                _premain_init
 .text._postmain_fini
                0x000000008000061a        0x2 ./hbird_sdk/SoC/hbirdv2/Common/Source/system_hbirdv2.o
                0x000000008000061a                _postmain_fini
 .text._init    0x000000008000061c        0x2 ./hbird_sdk/SoC/hbirdv2/Common/Source/system_hbirdv2.o
                0x000000008000061c                _init
 .text._fini    0x000000008000061e        0x2 ./hbird_sdk/SoC/hbirdv2/Common/Source/system_hbirdv2.o
                0x000000008000061e                _fini
 .text.LCD_Clear
                0x0000000080000620       0x2c ./application/ILI93xx.o
                0x0000000080000620                LCD_Clear
 .text.LCD_Fill
                0x000000008000064c       0x4c ./application/ILI93xx.o
                0x000000008000064c                LCD_Fill
 .text.LCD_ShowChar
                0x0000000080000698      0x168 ./application/ILI93xx.o
                0x0000000080000698                LCD_ShowChar
 .text.LCD_ShowString
                0x0000000080000800       0xa4 ./application/ILI93xx.o
                0x0000000080000800                LCD_ShowString
 .text.InfoNES_Init
                0x00000000800008a4       0x58 ./application/InfoNES.o
                0x00000000800008a4                InfoNES_Init
 .text.InfoNES_SetupPPU
                0x00000000800008fc      0x12e ./application/InfoNES.o
                0x00000000800008fc                InfoNES_SetupPPU
 .text.InfoNES_Reset
                0x0000000080000a2a       0xfe ./application/InfoNES.o
                0x0000000080000a2a                InfoNES_Reset
 .text.InfoNES_Load
                0x0000000080000b28       0x26 ./application/InfoNES.o
                0x0000000080000b28                InfoNES_Load
 .text.InfoNES_Mirroring
                0x0000000080000b4e       0x48 ./application/InfoNES.o
                0x0000000080000b4e                InfoNES_Mirroring
 .text.InfoNES_DrawLine
                0x0000000080000b96      0x6fc ./application/InfoNES.o
                0x0000000080000b96                InfoNES_DrawLine
 .text.InfoNES_GetSprHitY
                0x0000000080001292       0xdc ./application/InfoNES.o
                0x0000000080001292                InfoNES_GetSprHitY
 .text.InfoNES_SetupChr
                0x000000008000136e      0x104 ./application/InfoNES.o
                0x000000008000136e                InfoNES_SetupChr
 .text.InfoNES_HSync
                0x0000000080001472      0x13c ./application/InfoNES.o
                0x0000000080001472                InfoNES_HSync
 .text.InfoNES_Cycle
                0x00000000800015ae      0x124 ./application/InfoNES.o
                0x00000000800015ae                InfoNES_Cycle
 .text.InfoNES_Main
                0x00000000800016d2       0x22 ./application/InfoNES.o
                0x00000000800016d2                InfoNES_Main
 .text.Map0_Write
                0x00000000800016f4        0x2 ./application/InfoNES_Mapper.o
                0x00000000800016f4                Map0_Write
 .text.Map0_ReadApu
                0x00000000800016f6        0x4 ./application/InfoNES_Mapper.o
                0x00000000800016f6                Map0_ReadApu
 .text.Map0_VSync
                0x00000000800016fa        0x2 ./application/InfoNES_Mapper.o
                0x00000000800016fa                Map0_VSync
 .text.Map0_PPU
                0x00000000800016fc        0x2 ./application/InfoNES_Mapper.o
                0x00000000800016fc                Map0_PPU
 .text.Map0_RenderScreen
                0x00000000800016fe        0x2 ./application/InfoNES_Mapper.o
                0x00000000800016fe                Map0_RenderScreen
 .text.Map2_Write
                0x0000000080001700       0x2a ./application/InfoNES_Mapper.o
                0x0000000080001700                Map2_Write
 .text.Map4_HSync
                0x000000008000172a       0x80 ./application/InfoNES_Mapper.o
                0x000000008000172a                Map4_HSync
 .text.Map21_HSync
                0x00000000800017aa       0x42 ./application/InfoNES_Mapper.o
                0x00000000800017aa                Map21_HSync
 .text.Map34_Write
                0x00000000800017ec       0x42 ./application/InfoNES_Mapper.o
                0x00000000800017ec                Map34_Write
 .text.Map73_Write
                0x000000008000182e       0xc2 ./application/InfoNES_Mapper.o
                0x000000008000182e                Map73_Write
 .text.Map74_HSync
                0x00000000800018f0       0x80 ./application/InfoNES_Mapper.o
                0x00000000800018f0                Map74_HSync
 .text.Map83_ReadApu
                0x0000000080001970       0x18 ./application/InfoNES_Mapper.o
                0x0000000080001970                Map83_ReadApu
 .text.Map83_Apu
                0x0000000080001988       0x14 ./application/InfoNES_Mapper.o
                0x0000000080001988                Map83_Apu
 .text.Map90_Apu
                0x000000008000199c       0x1a ./application/InfoNES_Mapper.o
                0x000000008000199c                Map90_Apu
 .text.Map99_ReadApu
                0x00000000800019b6       0x14 ./application/InfoNES_Mapper.o
                0x00000000800019b6                Map99_ReadApu
 .text.Map108_Write
                0x00000000800019ca       0x1c ./application/InfoNES_Mapper.o
                0x00000000800019ca                Map108_Write
 .text.Map180_Write
                0x00000000800019e6       0x2c ./application/InfoNES_Mapper.o
                0x00000000800019e6                Map180_Write
 .text.Map187_ReadApu
                0x0000000080001a12       0x22 ./application/InfoNES_Mapper.o
                0x0000000080001a12                Map187_ReadApu
 .text.Map187_HSync
                0x0000000080001a34       0x46 ./application/InfoNES_Mapper.o
                0x0000000080001a34                Map187_HSync
 .text.Map232_Write
                0x0000000080001a7a       0x8a ./application/InfoNES_Mapper.o
                0x0000000080001a7a                Map232_Write
 .text.Map244_Write
                0x0000000080001b04       0x88 ./application/InfoNES_Mapper.o
                0x0000000080001b04                Map244_Write
 .text.Map245_HSync
                0x0000000080001b8c       0x58 ./application/InfoNES_Mapper.o
                0x0000000080001b8c                Map245_HSync
 .text.Map248_Sram
                0x0000000080001be4       0x46 ./application/InfoNES_Mapper.o
                0x0000000080001be4                Map248_Sram
 .text.Map248_Apu
                0x0000000080001c2a        0x2 ./application/InfoNES_Mapper.o
                0x0000000080001c2a                Map248_Apu
 .text.Map249_HSync
                0x0000000080001c2c       0x58 ./application/InfoNES_Mapper.o
                0x0000000080001c2c                Map249_HSync
 .text.Map252_HSync
                0x0000000080001c84       0x4c ./application/InfoNES_Mapper.o
                0x0000000080001c84                Map252_HSync
 .text.Map255_Apu
                0x0000000080001cd0       0x1a ./application/InfoNES_Mapper.o
                0x0000000080001cd0                Map255_Apu
 .text.Map255_ReadApu
                0x0000000080001cea       0x1e ./application/InfoNES_Mapper.o
                0x0000000080001cea                Map255_ReadApu
 .text.Map3_Write
                0x0000000080001d08       0x6e ./application/InfoNES_Mapper.o
                0x0000000080001d08                Map3_Write
 .text.Map8_Write
                0x0000000080001d76       0xa6 ./application/InfoNES_Mapper.o
                0x0000000080001d76                Map8_Write
 .text.Map9_PPU
                0x0000000080001e1c      0x134 ./application/InfoNES_Mapper.o
                0x0000000080001e1c                Map9_PPU
 .text.Map10_PPU
                0x0000000080001f50      0x134 ./application/InfoNES_Mapper.o
                0x0000000080001f50                Map10_PPU
 .text.Map11_Write
                0x0000000080002084       0xf0 ./application/InfoNES_Mapper.o
                0x0000000080002084                Map11_Write
 .text.Map13_Write
                0x0000000080002174       0x9a ./application/InfoNES_Mapper.o
                0x0000000080002174                Map13_Write
 .text.Map34_Sram
                0x000000008000220e       0xf0 ./application/InfoNES_Mapper.o
                0x000000008000220e                Map34_Sram
 .text.Map62_Write
                0x00000000800022fe      0x118 ./application/InfoNES_Mapper.o
                0x00000000800022fe                Map62_Write
 .text.Map66_Write
                0x0000000080002416       0xc6 ./application/InfoNES_Mapper.o
                0x0000000080002416                Map66_Write
 .text.Map72_Write
                0x00000000800024dc       0xb0 ./application/InfoNES_Mapper.o
                0x00000000800024dc                Map72_Write
 .text.Map77_Write
                0x000000008000258c       0x7a ./application/InfoNES_Mapper.o
                0x000000008000258c                Map77_Write
 .text.Map79_Apu
                0x0000000080002606       0xbc ./application/InfoNES_Mapper.o
                0x0000000080002606                Map79_Apu
 .text.Map91_Sram
                0x00000000800026c2      0x148 ./application/InfoNES_Mapper.o
                0x00000000800026c2                Map91_Sram
 .text.Map92_Write
                0x000000008000280a       0xda ./application/InfoNES_Mapper.o
                0x000000008000280a                Map92_Write
 .text.Map99_Apu
                0x00000000800028e4      0x106 ./application/InfoNES_Mapper.o
                0x00000000800028e4                Map99_Apu
 .text.Map101_Write
                0x00000000800029ea       0x76 ./application/InfoNES_Mapper.o
                0x00000000800029ea                Map101_Write
 .text.Map107_Write
                0x0000000080002a60       0xee ./application/InfoNES_Mapper.o
                0x0000000080002a60                Map107_Write
 .text.Map117_Write
                0x0000000080002b4e      0x1d4 ./application/InfoNES_Mapper.o
                0x0000000080002b4e                Map117_Write
 .text.Map140_Apu
                0x0000000080002d22      0x10e ./application/InfoNES_Mapper.o
                0x0000000080002d22                Map140_Apu
 .text.Map140_Sram
                0x0000000080002e30        0x2 ./application/InfoNES_Mapper.o
                0x0000000080002e30                Map140_Sram
 .text.Map151_Write
                0x0000000080002e32      0x12e ./application/InfoNES_Mapper.o
                0x0000000080002e32                Map151_Write
 .text.Map160_Write
                0x0000000080002f60      0x264 ./application/InfoNES_Mapper.o
                0x0000000080002f60                Map160_Write
 .text.Map160_HSync
                0x00000000800031c4      0x440 ./application/InfoNES_Mapper.o
                0x00000000800031c4                Map160_HSync
 .text.Map193_Sram
                0x0000000080003604      0x140 ./application/InfoNES_Mapper.o
                0x0000000080003604                Map193_Sram
 .text.Map201_Write
                0x0000000080003744      0x10e ./application/InfoNES_Mapper.o
                0x0000000080003744                Map201_Write
 .text.Map222_Write
                0x0000000080003852      0x1a0 ./application/InfoNES_Mapper.o
                0x0000000080003852                Map222_Write
 .text.Map0_Init
                0x00000000800039f2      0x116 ./application/InfoNES_Mapper.o
                0x00000000800039f2                Map0_Init
 .text.Map2_Init
                0x0000000080003b08       0xac ./application/InfoNES_Mapper.o
                0x0000000080003b08                Map2_Init
 .text.Map3_Init
                0x0000000080003bb4      0x100 ./application/InfoNES_Mapper.o
                0x0000000080003bb4                Map3_Init
 .text.Map7_Init
                0x0000000080003cb4       0xa0 ./application/InfoNES_Mapper.o
                0x0000000080003cb4                Map7_Init
 .text.Map8_Init
                0x0000000080003d54       0xde ./application/InfoNES_Mapper.o
                0x0000000080003d54                Map8_Init
 .text.Map9_Init
                0x0000000080003e32       0xf8 ./application/InfoNES_Mapper.o
                0x0000000080003e32                Map9_Init
 .text.Map10_Init
                0x0000000080003f2a       0xf4 ./application/InfoNES_Mapper.o
                0x0000000080003f2a                Map10_Init
 .text.Map13_Init
                0x000000008000401e       0xf0 ./application/InfoNES_Mapper.o
                0x000000008000401e                Map13_Init
 .text.Map15_Init
                0x000000008000410e       0xa0 ./application/InfoNES_Mapper.o
                0x000000008000410e                Map15_Init
 .text.Map16_Init
                0x00000000800041ae       0xbc ./application/InfoNES_Mapper.o
                0x00000000800041ae                Map16_Init
 .text.Map17_Init
                0x000000008000426a       0xee ./application/InfoNES_Mapper.o
                0x000000008000426a                Map17_Init
 .text.Map18_Init
                0x0000000080004358       0xd0 ./application/InfoNES_Mapper.o
                0x0000000080004358                Map18_Init
 .text.Map21_Init
                0x0000000080004428       0xdc ./application/InfoNES_Mapper.o
                0x0000000080004428                Map21_Init
 .text.Map22_Init
                0x0000000080004504       0xea ./application/InfoNES_Mapper.o
                0x0000000080004504                Map22_Init
 .text.Map23_Init
                0x00000000800045ee      0x112 ./application/InfoNES_Mapper.o
                0x00000000800045ee                Map23_Init
 .text.Map24_Init
                0x0000000080004700       0xac ./application/InfoNES_Mapper.o
                0x0000000080004700                Map24_Init
 .text.Map25_Init
                0x00000000800047ac       0xc4 ./application/InfoNES_Mapper.o
                0x00000000800047ac                Map25_Init
 .text.Map26_Init
                0x0000000080004870       0xfa ./application/InfoNES_Mapper.o
                0x0000000080004870                Map26_Init
 .text.Map32_Init
                0x000000008000496a       0xee ./application/InfoNES_Mapper.o
                0x000000008000496a                Map32_Init
 .text.Map33_Init
                0x0000000080004a58      0x100 ./application/InfoNES_Mapper.o
                0x0000000080004a58                Map33_Init
 .text.Map34_Init
                0x0000000080004b58       0xea ./application/InfoNES_Mapper.o
                0x0000000080004b58                Map34_Init
 .text.Map40_Init
                0x0000000080004c42       0xe2 ./application/InfoNES_Mapper.o
                0x0000000080004c42                Map40_Init
 .text.Map41_Init
                0x0000000080004d24       0xde ./application/InfoNES_Mapper.o
                0x0000000080004d24                Map41_Init
 .text.Map42_Init
                0x0000000080004e02       0xec ./application/InfoNES_Mapper.o
                0x0000000080004e02                Map42_Init
 .text.Map43_Init
                0x0000000080004eee       0xe4 ./application/InfoNES_Mapper.o
                0x0000000080004eee                Map43_Init
 .text.Map45_Init
                0x0000000080004fd2      0x17c ./application/InfoNES_Mapper.o
                0x0000000080004fd2                Map45_Init
 .text.Map48_Init
                0x000000008000514e       0xee ./application/InfoNES_Mapper.o
                0x000000008000514e                Map48_Init
 .text.Map49_Init
                0x000000008000523c      0x10c ./application/InfoNES_Mapper.o
                0x000000008000523c                Map49_Init
 .text.Map50_Init
                0x0000000080005348      0x104 ./application/InfoNES_Mapper.o
                0x0000000080005348                Map50_Init
 .text.Map57_Init
                0x000000008000544c       0xde ./application/InfoNES_Mapper.o
                0x000000008000544c                Map57_Init
 .text.Map58_Init
                0x000000008000552a       0xd6 ./application/InfoNES_Mapper.o
                0x000000008000552a                Map58_Init
 .text.Map60_Init
                0x0000000080005600       0xde ./application/InfoNES_Mapper.o
                0x0000000080005600                Map60_Init
 .text.Map61_Init
                0x00000000800056de       0xac ./application/InfoNES_Mapper.o
                0x00000000800056de                Map61_Init
 .text.Map62_Init
                0x000000008000578a       0xde ./application/InfoNES_Mapper.o
                0x000000008000578a                Map62_Init
 .text.Map64_Init
                0x0000000080005868       0xe6 ./application/InfoNES_Mapper.o
                0x0000000080005868                Map64_Init
 .text.Map65_Init
                0x000000008000594e       0xea ./application/InfoNES_Mapper.o
                0x000000008000594e                Map65_Init
 .text.Map66_Init
                0x0000000080005a38       0xd6 ./application/InfoNES_Mapper.o
                0x0000000080005a38                Map66_Init
 .text.Map67_Init
                0x0000000080005b0e      0x120 ./application/InfoNES_Mapper.o
                0x0000000080005b0e                Map67_Init
 .text.Map68_Init
                0x0000000080005c2e       0xb0 ./application/InfoNES_Mapper.o
                0x0000000080005c2e                Map68_Init
 .text.Map69_Init
                0x0000000080005cde       0xfa ./application/InfoNES_Mapper.o
                0x0000000080005cde                Map69_Init
 .text.Map70_Init
                0x0000000080005dd8       0xac ./application/InfoNES_Mapper.o
                0x0000000080005dd8                Map70_Init
 .text.Map71_Init
                0x0000000080005e84       0xac ./application/InfoNES_Mapper.o
                0x0000000080005e84                Map71_Init
 .text.Map72_Init
                0x0000000080005f30       0xea ./application/InfoNES_Mapper.o
                0x0000000080005f30                Map72_Init
 .text.Map73_Init
                0x000000008000601a       0xb4 ./application/InfoNES_Mapper.o
                0x000000008000601a                Map73_Init
 .text.Map75_Init
                0x00000000800060ce       0xfa ./application/InfoNES_Mapper.o
                0x00000000800060ce                Map75_Init
 .text.Map76_Init
                0x00000000800061c8       0xea ./application/InfoNES_Mapper.o
                0x00000000800061c8                Map76_Init
 .text.Map77_Init
                0x00000000800062b2       0xa6 ./application/InfoNES_Mapper.o
                0x00000000800062b2                Map77_Init
 .text.Map78_Init
                0x0000000080006358       0xea ./application/InfoNES_Mapper.o
                0x0000000080006358                Map78_Init
 .text.Map79_Init
                0x0000000080006442       0xde ./application/InfoNES_Mapper.o
                0x0000000080006442                Map79_Init
 .text.Map80_Init
                0x0000000080006520       0xea ./application/InfoNES_Mapper.o
                0x0000000080006520                Map80_Init
 .text.Map83_Init
                0x000000008000660a      0x128 ./application/InfoNES_Mapper.o
                0x000000008000660a                Map83_Init
 .text.Map86_Init
                0x0000000080006732       0xde ./application/InfoNES_Mapper.o
                0x0000000080006732                Map86_Init
 .text.Map87_Init
                0x0000000080006810       0xde ./application/InfoNES_Mapper.o
                0x0000000080006810                Map87_Init
 .text.Map88_Init
                0x00000000800068ee       0xea ./application/InfoNES_Mapper.o
                0x00000000800068ee                Map88_Init
 .text.Map89_Init
                0x00000000800069d8       0xea ./application/InfoNES_Mapper.o
                0x00000000800069d8                Map89_Init
 .text.Map90_Init
                0x0000000080006ac2      0x14c ./application/InfoNES_Mapper.o
                0x0000000080006ac2                Map90_Init
 .text.Map92_Init
                0x0000000080006c0e       0xea ./application/InfoNES_Mapper.o
                0x0000000080006c0e                Map92_Init
 .text.Map93_Init
                0x0000000080006cf8       0xea ./application/InfoNES_Mapper.o
                0x0000000080006cf8                Map93_Init
 .text.Map94_Init
                0x0000000080006de2       0xac ./application/InfoNES_Mapper.o
                0x0000000080006de2                Map94_Init
 .text.Map97_Init
                0x0000000080006e8e       0xec ./application/InfoNES_Mapper.o
                0x0000000080006e8e                Map97_Init
 .text.Map99_Init
                0x0000000080006f7a      0x11e ./application/InfoNES_Mapper.o
                0x0000000080006f7a                Map99_Init
 .text.Map101_Init
                0x0000000080007098       0xd6 ./application/InfoNES_Mapper.o
                0x0000000080007098                Map101_Init
 .text.Map105_Init
                0x000000008000716e       0xbe ./application/InfoNES_Mapper.o
                0x000000008000716e                Map105_Init
 .text.Map107_Init
                0x000000008000722c       0xea ./application/InfoNES_Mapper.o
                0x000000008000722c                Map107_Init
 .text.Map108_Init
                0x0000000080007316       0xbe ./application/InfoNES_Mapper.o
                0x0000000080007316                Map108_Init
 .text.Map110_Init
                0x00000000800073d4       0xee ./application/InfoNES_Mapper.o
                0x00000000800073d4                Map110_Init
 .text.Map113_Init
                0x00000000800074c2       0xde ./application/InfoNES_Mapper.o
                0x00000000800074c2                Map113_Init
 .text.Map117_Init
                0x00000000800075a0       0xf0 ./application/InfoNES_Mapper.o
                0x00000000800075a0                Map117_Init
 .text.Map122_Init
                0x0000000080007690       0xa0 ./application/InfoNES_Mapper.o
                0x0000000080007690                Map122_Init
 .text.Map133_Init
                0x0000000080007730       0xde ./application/InfoNES_Mapper.o
                0x0000000080007730                Map133_Init
 .text.Map134_Init
                0x000000008000780e       0xde ./application/InfoNES_Mapper.o
                0x000000008000780e                Map134_Init
 .text.Map140_Init
                0x00000000800078ec       0xde ./application/InfoNES_Mapper.o
                0x00000000800078ec                Map140_Init
 .text.Map151_Init
                0x00000000800079ca       0xea ./application/InfoNES_Mapper.o
                0x00000000800079ca                Map151_Init
 .text.Map160_Init
                0x0000000080007ab4       0xbc ./application/InfoNES_Mapper.o
                0x0000000080007ab4                Map160_Init
 .text.Map180_Init
                0x0000000080007b70       0xde ./application/InfoNES_Mapper.o
                0x0000000080007b70                Map180_Init
 .text.Map181_Init
                0x0000000080007c4e       0xde ./application/InfoNES_Mapper.o
                0x0000000080007c4e                Map181_Init
 .text.Map182_Init
                0x0000000080007d2c       0xee ./application/InfoNES_Mapper.o
                0x0000000080007d2c                Map182_Init
 .text.Map183_Init
                0x0000000080007e1a      0x102 ./application/InfoNES_Mapper.o
                0x0000000080007e1a                Map183_Init
 .text.Map185_Init
                0x0000000080007f1c       0xbc ./application/InfoNES_Mapper.o
                0x0000000080007f1c                Map185_Init
 .text.Map189_Init
                0x0000000080007fd8       0xee ./application/InfoNES_Mapper.o
                0x0000000080007fd8                Map189_Init
 .text.Map193_Init
                0x00000000800080c6       0xf4 ./application/InfoNES_Mapper.o
                0x00000000800080c6                Map193_Init
 .text.Map194_Init
                0x00000000800081ba       0xb6 ./application/InfoNES_Mapper.o
                0x00000000800081ba                Map194_Init
 .text.Map200_Init
                0x0000000080008270       0xd6 ./application/InfoNES_Mapper.o
                0x0000000080008270                Map200_Init
 .text.Map201_Init
                0x0000000080008346       0xd6 ./application/InfoNES_Mapper.o
                0x0000000080008346                Map201_Init
 .text.Map202_Init
                0x000000008000841c       0xe2 ./application/InfoNES_Mapper.o
                0x000000008000841c                Map202_Init
 .text.Map225_Init
                0x00000000800084fe       0xde ./application/InfoNES_Mapper.o
                0x00000000800084fe                Map225_Init
 .text.Map226_Init
                0x00000000800085dc       0xa4 ./application/InfoNES_Mapper.o
                0x00000000800085dc                Map226_Init
 .text.Map227_Init
                0x0000000080008680       0x98 ./application/InfoNES_Mapper.o
                0x0000000080008680                Map227_Init
 .text.Map228_Init
                0x0000000080008718       0xde ./application/InfoNES_Mapper.o
                0x0000000080008718                Map228_Init
 .text.Map229_Init
                0x00000000800087f6       0xde ./application/InfoNES_Mapper.o
                0x00000000800087f6                Map229_Init
 .text.Map230_Init
                0x00000000800088d4       0xec ./application/InfoNES_Mapper.o
                0x00000000800088d4                Map230_Init
 .text.Map231_Init
                0x00000000800089c0       0xde ./application/InfoNES_Mapper.o
                0x00000000800089c0                Map231_Init
 .text.Map232_Init
                0x0000000080008a9e       0xb2 ./application/InfoNES_Mapper.o
                0x0000000080008a9e                Map232_Init
 .text.Map233_Init
                0x0000000080008b50       0xa0 ./application/InfoNES_Mapper.o
                0x0000000080008b50                Map233_Init
 .text.Map234_Init
                0x0000000080008bf0       0xa4 ./application/InfoNES_Mapper.o
                0x0000000080008bf0                Map234_Init
 .text.Map235_Init
                0x0000000080008c94       0xba ./application/InfoNES_Mapper.o
                0x0000000080008c94                Map235_Init
 .text.Map236_Init
                0x0000000080008d4e       0xb4 ./application/InfoNES_Mapper.o
                0x0000000080008d4e                Map236_Init
 .text.Map240_Init
                0x0000000080008e02       0xea ./application/InfoNES_Mapper.o
                0x0000000080008e02                Map240_Init
 .text.Map241_Init
                0x0000000080008eec       0xde ./application/InfoNES_Mapper.o
                0x0000000080008eec                Map241_Init
 .text.Map242_Init
                0x0000000080008fca       0xa0 ./application/InfoNES_Mapper.o
                0x0000000080008fca                Map242_Init
 .text.Map243_Init
                0x000000008000906a       0xe6 ./application/InfoNES_Mapper.o
                0x000000008000906a                Map243_Init
 .text.Map244_Init
                0x0000000080009150       0xa0 ./application/InfoNES_Mapper.o
                0x0000000080009150                Map244_Init
 .text.Map245_Init
                0x00000000800091f0      0x108 ./application/InfoNES_Mapper.o
                0x00000000800091f0                Map245_Init
 .text.Map246_Init
                0x00000000800092f8       0xac ./application/InfoNES_Mapper.o
                0x00000000800092f8                Map246_Init
 .text.Map249_Init
                0x00000000800093a4       0xfe ./application/InfoNES_Mapper.o
                0x00000000800093a4                Map249_Init
 .text.Map252_Init
                0x00000000800094a2      0x116 ./application/InfoNES_Mapper.o
                0x00000000800094a2                Map252_Init
 .text.Map7_Write
                0x00000000800095b8       0x4a ./application/InfoNES_Mapper.o
                0x00000000800095b8                Map7_Write
 .text.Map9_Write
                0x0000000080009602      0x164 ./application/InfoNES_Mapper.o
                0x0000000080009602                Map9_Write
 .text.Map10_Write
                0x0000000080009766      0x174 ./application/InfoNES_Mapper.o
                0x0000000080009766                Map10_Write
 .text.Map11_Init
                0x00000000800098da       0xdc ./application/InfoNES_Mapper.o
                0x00000000800098da                Map11_Init
 .text.Map15_Write
                0x00000000800099b6      0x106 ./application/InfoNES_Mapper.o
                0x00000000800099b6                Map15_Write
 .text.Map16_Write
                0x0000000080009abc      0x1b8 ./application/InfoNES_Mapper.o
                0x0000000080009abc                Map16_Write
 .text.Map17_Apu
                0x0000000080009c74      0x220 ./application/InfoNES_Mapper.o
                0x0000000080009c74                Map17_Apu
 .text.Map18_Write
                0x0000000080009e94      0x6a4 ./application/InfoNES_Mapper.o
                0x0000000080009e94                Map18_Write
 .text.Map21_Write
                0x000000008000a538      0x594 ./application/InfoNES_Mapper.o
                0x000000008000a538                Map21_Write
 .text.Map22_Write
                0x000000008000aacc      0x1dc ./application/InfoNES_Mapper.o
                0x000000008000aacc                Map22_Write
 .text.Map23_Write
                0x000000008000aca8      0x5d0 ./application/InfoNES_Mapper.o
                0x000000008000aca8                Map23_Write
 .text.Map24_Write
                0x000000008000b278      0x240 ./application/InfoNES_Mapper.o
                0x000000008000b278                Map24_Write
 .text.Map26_Write
                0x000000008000b4b8      0x230 ./application/InfoNES_Mapper.o
                0x000000008000b4b8                Map26_Write
 .text.Map32_Write
                0x000000008000b6e8       0xa0 ./application/InfoNES_Mapper.o
                0x000000008000b6e8                Map32_Write
 .text.Map33_Write
                0x000000008000b788      0x20a ./application/InfoNES_Mapper.o
                0x000000008000b788                Map33_Write
 .text.Map42_Write
                0x000000008000b992       0x62 ./application/InfoNES_Mapper.o
                0x000000008000b992                Map42_Write
 .text.Map48_Write
                0x000000008000b9f4      0x1f0 ./application/InfoNES_Mapper.o
                0x000000008000b9f4                Map48_Write
 .text.Map57_Write
                0x000000008000bbe4      0x21a ./application/InfoNES_Mapper.o
                0x000000008000bbe4                Map57_Write
 .text.Map58_Write
                0x000000008000bdfe      0x136 ./application/InfoNES_Mapper.o
                0x000000008000bdfe                Map58_Write
 .text.Map60_Write
                0x000000008000bf34      0x116 ./application/InfoNES_Mapper.o
                0x000000008000bf34                Map60_Write
 .text.Map61_Write
                0x000000008000c04a       0xd2 ./application/InfoNES_Mapper.o
                0x000000008000c04a                Map61_Write
 .text.Map65_Write
                0x000000008000c11c      0x226 ./application/InfoNES_Mapper.o
                0x000000008000c11c                Map65_Write
 .text.Map67_Write
                0x000000008000c342      0x1ac ./application/InfoNES_Mapper.o
                0x000000008000c342                Map67_Write
 .text.Map70_Write
                0x000000008000c4ee       0xc4 ./application/InfoNES_Mapper.o
                0x000000008000c4ee                Map70_Write
 .text.Map75_Write
                0x000000008000c5b2      0x1e0 ./application/InfoNES_Mapper.o
                0x000000008000c5b2                Map75_Write
 .text.Map78_Write
                0x000000008000c792       0xd8 ./application/InfoNES_Mapper.o
                0x000000008000c792                Map78_Write
 .text.Map80_Sram
                0x000000008000c86a      0x19e ./application/InfoNES_Mapper.o
                0x000000008000c86a                Map80_Sram
 .text.Map82_Init
                0x000000008000ca08       0xe8 ./application/InfoNES_Mapper.o
                0x000000008000ca08                Map82_Init
 .text.Map82_Sram
                0x000000008000caf0      0x1fc ./application/InfoNES_Mapper.o
                0x000000008000caf0                Map82_Sram
 .text.Map83_Write
                0x000000008000ccec      0x4ac ./application/InfoNES_Mapper.o
                0x000000008000ccec                Map83_Write
 .text.Map91_Init
                0x000000008000d198       0xe6 ./application/InfoNES_Mapper.o
                0x000000008000d198                Map91_Init
 .text.Map105_Write
                0x000000008000d27e      0x20e ./application/InfoNES_Mapper.o
                0x000000008000d27e                Map105_Write
 .text.Map134_Apu
                0x000000008000d48c      0x1bc ./application/InfoNES_Mapper.o
                0x000000008000d48c                Map134_Apu
 .text.Map182_Write
                0x000000008000d648      0x1a4 ./application/InfoNES_Mapper.o
                0x000000008000d648                Map182_Write
 .text.Map183_Write
                0x000000008000d7ec      0x5a8 ./application/InfoNES_Mapper.o
                0x000000008000d7ec                Map183_Write
 .text.Map200_Write
                0x000000008000dd94       0xe4 ./application/InfoNES_Mapper.o
                0x000000008000dd94                Map200_Write
 .text.Map222_Init
                0x000000008000de78       0xe8 ./application/InfoNES_Mapper.o
                0x000000008000de78                Map222_Init
 .text.Map225_Write
                0x000000008000df60      0x19a ./application/InfoNES_Mapper.o
                0x000000008000df60                Map225_Write
 .text.Map226_Write
                0x000000008000e0fa      0x10e ./application/InfoNES_Mapper.o
                0x000000008000e0fa                Map226_Write
 .text.Map227_Write
                0x000000008000e208      0x10a ./application/InfoNES_Mapper.o
                0x000000008000e208                Map227_Write
 .text.Map228_Write
                0x000000008000e312      0x170 ./application/InfoNES_Mapper.o
                0x000000008000e312                Map228_Write
 .text.Map229_Write
                0x000000008000e482      0x152 ./application/InfoNES_Mapper.o
                0x000000008000e482                Map229_Write
 .text.Map231_Write
                0x000000008000e5d4       0x80 ./application/InfoNES_Mapper.o
                0x000000008000e5d4                Map231_Write
 .text.Map233_Write
                0x000000008000e654       0xb6 ./application/InfoNES_Mapper.o
                0x000000008000e654                Map233_Write
 .text.Map235_Write
                0x000000008000e70a      0x1b6 ./application/InfoNES_Mapper.o
                0x000000008000e70a                Map235_Write
 .text.Map236_Write
                0x000000008000e8c0      0x1a0 ./application/InfoNES_Mapper.o
                0x000000008000e8c0                Map236_Write
 .text.Map245_Write
                0x000000008000ea60      0x140 ./application/InfoNES_Mapper.o
                0x000000008000ea60                Map245_Write
 .text.Map249_Write
                0x000000008000eba0      0x508 ./application/InfoNES_Mapper.o
                0x000000008000eba0                Map249_Write
 .text.Map251_Init
                0x000000008000f0a8       0xd6 ./application/InfoNES_Mapper.o
                0x000000008000f0a8                Map251_Init
 .text.Map255_Init
                0x000000008000f17e       0xe0 ./application/InfoNES_Mapper.o
                0x000000008000f17e                Map255_Init
 .text.Map255_Write
                0x000000008000f25e      0x186 ./application/InfoNES_Mapper.o
                0x000000008000f25e                Map255_Write
 .text.Map16_HSync
                0x000000008000f3e4       0x2a ./application/InfoNES_Mapper.o
                0x000000008000f3e4                Map16_HSync
 .text.Map17_HSync
                0x000000008000f40e       0x2c ./application/InfoNES_Mapper.o
                0x000000008000f40e                Map17_HSync
 .text.Map18_HSync
                0x000000008000f43a       0x2e ./application/InfoNES_Mapper.o
                0x000000008000f43a                Map18_HSync
 .text.Map24_HSync
                0x000000008000f468       0x2e ./application/InfoNES_Mapper.o
                0x000000008000f468                Map24_HSync
 .text.Map25_HSync
                0x000000008000f496       0x2a ./application/InfoNES_Mapper.o
                0x000000008000f496                Map25_HSync
 .text.Map26_HSync
                0x000000008000f4c0       0x32 ./application/InfoNES_Mapper.o
                0x000000008000f4c0                Map26_HSync
 .text.Map40_Write
                0x000000008000f4f2       0x4c ./application/InfoNES_Mapper.o
                0x000000008000f4f2                Map40_Write
 .text.Map40_HSync
                0x000000008000f53e       0x18 ./application/InfoNES_Mapper.o
                0x000000008000f53e                Map40_HSync
 .text.Map42_HSync
                0x000000008000f556       0x34 ./application/InfoNES_Mapper.o
                0x000000008000f556                Map42_HSync
 .text.Map43_ReadApu
                0x000000008000f58a       0x22 ./application/InfoNES_Mapper.o
                0x000000008000f58a                Map43_ReadApu
 .text.Map43_Apu
                0x000000008000f5ac       0x64 ./application/InfoNES_Mapper.o
                0x000000008000f5ac                Map43_Apu
 .text.Map43_Write
                0x000000008000f610       0x22 ./application/InfoNES_Mapper.o
                0x000000008000f610                Map43_Write
 .text.Map43_HSync
                0x000000008000f632       0x2a ./application/InfoNES_Mapper.o
                0x000000008000f632                Map43_HSync
 .text.Map44_HSync
                0x000000008000f65c       0x3a ./application/InfoNES_Mapper.o
                0x000000008000f65c                Map44_HSync
 .text.Map45_HSync
                0x000000008000f696       0x3a ./application/InfoNES_Mapper.o
                0x000000008000f696                Map45_HSync
 .text.Map47_HSync
                0x000000008000f6d0       0x3c ./application/InfoNES_Mapper.o
                0x000000008000f6d0                Map47_HSync
 .text.Map48_HSync
                0x000000008000f70c       0x3c ./application/InfoNES_Mapper.o
                0x000000008000f70c                Map48_HSync
 .text.Map49_HSync
                0x000000008000f748       0x3a ./application/InfoNES_Mapper.o
                0x000000008000f748                Map49_HSync
 .text.Map50_Apu
                0x000000008000f782       0x52 ./application/InfoNES_Mapper.o
                0x000000008000f782                Map50_Apu
 .text.Map50_HSync
                0x000000008000f7d4       0x18 ./application/InfoNES_Mapper.o
                0x000000008000f7d4                Map50_HSync
 .text.Map65_HSync
                0x000000008000f7ec       0x2c ./application/InfoNES_Mapper.o
                0x000000008000f7ec                Map65_HSync
 .text.Map67_HSync
                0x000000008000f818       0x44 ./application/InfoNES_Mapper.o
                0x000000008000f818                Map67_HSync
 .text.Map69_HSync
                0x000000008000f85c       0x26 ./application/InfoNES_Mapper.o
                0x000000008000f85c                Map69_HSync
 .text.Map73_HSync
                0x000000008000f882       0x2c ./application/InfoNES_Mapper.o
                0x000000008000f882                Map73_HSync
 .text.Map83_HSync
                0x000000008000f8ae       0x26 ./application/InfoNES_Mapper.o
                0x000000008000f8ae                Map83_HSync
 .text.Map90_ReadApu
                0x000000008000f8d4       0x1c ./application/InfoNES_Mapper.o
                0x000000008000f8d4                Map90_ReadApu
 .text.Map90_HSync
                0x000000008000f8f0       0x3a ./application/InfoNES_Mapper.o
                0x000000008000f8f0                Map90_HSync
 .text.Map93_Sram
                0x000000008000f92a       0x34 ./application/InfoNES_Mapper.o
                0x000000008000f92a                Map93_Sram
 .text.Map94_Write
                0x000000008000f95e       0x38 ./application/InfoNES_Mapper.o
                0x000000008000f95e                Map94_Write
 .text.Map100_HSync
                0x000000008000f996       0x3a ./application/InfoNES_Mapper.o
                0x000000008000f996                Map100_HSync
 .text.Map105_HSync
                0x000000008000f9d0       0x38 ./application/InfoNES_Mapper.o
                0x000000008000f9d0                Map105_HSync
 .text.Map112_HSync
                0x000000008000fa08       0x3a ./application/InfoNES_Mapper.o
                0x000000008000fa08                Map112_HSync
 .text.Map114_HSync
                0x000000008000fa42       0x3a ./application/InfoNES_Mapper.o
                0x000000008000fa42                Map114_HSync
 .text.Map115_HSync
                0x000000008000fa7c       0x3a ./application/InfoNES_Mapper.o
                0x000000008000fa7c                Map115_HSync
 .text.Map116_HSync
                0x000000008000fab6       0x3a ./application/InfoNES_Mapper.o
                0x000000008000fab6                Map116_HSync
 .text.Map117_HSync
                0x000000008000faf0       0x24 ./application/InfoNES_Mapper.o
                0x000000008000faf0                Map117_HSync
 .text.Map118_HSync
                0x000000008000fb14       0x3a ./application/InfoNES_Mapper.o
                0x000000008000fb14                Map118_HSync
 .text.Map119_HSync
                0x000000008000fb4e       0x3a ./application/InfoNES_Mapper.o
                0x000000008000fb4e                Map119_HSync
 .text.Map182_HSync
                0x000000008000fb88       0x38 ./application/InfoNES_Mapper.o
                0x000000008000fb88                Map182_HSync
 .text.Map183_HSync
                0x000000008000fbc0       0x28 ./application/InfoNES_Mapper.o
                0x000000008000fbc0                Map183_HSync
 .text.Map189_Apu
                0x000000008000fbe8       0x64 ./application/InfoNES_Mapper.o
                0x000000008000fbe8                Map189_Apu
 .text.Map189_HSync
                0x000000008000fc4c       0x3c ./application/InfoNES_Mapper.o
                0x000000008000fc4c                Map189_HSync
 .text.Map241_Write
                0x000000008000fc88       0x56 ./application/InfoNES_Mapper.o
                0x000000008000fc88                Map241_Write
 .text.Map242_Write
                0x000000008000fcde       0x58 ./application/InfoNES_Mapper.o
                0x000000008000fcde                Map242_Write
 .text.Map248_HSync
                0x000000008000fd36       0x3a ./application/InfoNES_Mapper.o
                0x000000008000fd36                Map248_HSync
 .text.Map249_Apu
                0x000000008000fd70       0x20 ./application/InfoNES_Mapper.o
                0x000000008000fd70                Map249_Apu
 .text.Map41_Write
                0x000000008000fd90       0x8a ./application/InfoNES_Mapper.o
                0x000000008000fd90                Map41_Write
 .text.Map76_Write
                0x000000008000fe1a      0x12c ./application/InfoNES_Mapper.o
                0x000000008000fe1a                Map76_Write
 .text.Map86_Sram
                0x000000008000ff46       0xce ./application/InfoNES_Mapper.o
                0x000000008000ff46                Map86_Sram
 .text.Map87_Sram
                0x0000000080010014       0x80 ./application/InfoNES_Mapper.o
                0x0000000080010014                Map87_Sram
 .text.Map110_Apu
                0x0000000080010094      0x2f4 ./application/InfoNES_Mapper.o
                0x0000000080010094                Map110_Apu
 .text.Map113_Apu.part.0
                0x0000000080010388       0xd6 ./application/InfoNES_Mapper.o
 .text.Map113_Apu
                0x000000008001045e       0x32 ./application/InfoNES_Mapper.o
                0x000000008001045e                Map113_Apu
 .text.Map113_Write
                0x0000000080010490       0x14 ./application/InfoNES_Mapper.o
                0x0000000080010490                Map113_Write
 .text.Map122_Sram
                0x00000000800104a4       0x80 ./application/InfoNES_Mapper.o
                0x00000000800104a4                Map122_Sram
 .text.Map133_Apu
                0x0000000080010524       0xf6 ./application/InfoNES_Mapper.o
                0x0000000080010524                Map133_Apu
 .text.Map181_Apu
                0x000000008001061a       0xfc ./application/InfoNES_Mapper.o
                0x000000008001061a                Map181_Apu
 .text.Map185_Write
                0x0000000080010716       0x76 ./application/InfoNES_Mapper.o
                0x0000000080010716                Map185_Write
 .text.Map189_Write
                0x000000008001078c      0x1a8 ./application/InfoNES_Mapper.o
                0x000000008001078c                Map189_Write
 .text.Map240_Apu
                0x0000000080010934      0x108 ./application/InfoNES_Mapper.o
                0x0000000080010934                Map240_Apu
 .text.Map243_Apu
                0x0000000080010a3c      0x214 ./application/InfoNES_Mapper.o
                0x0000000080010a3c                Map243_Apu
 .text.Map246_Sram
                0x0000000080010c50      0x19a ./application/InfoNES_Mapper.o
                0x0000000080010c50                Map246_Sram
 .text.Map252_Write
                0x0000000080010dea      0x52a ./application/InfoNES_Mapper.o
                0x0000000080010dea                Map252_Write
 .text.Map41_Sram
                0x0000000080011314       0x74 ./application/InfoNES_Mapper.o
                0x0000000080011314                Map41_Sram
 .text.Map64_Write
                0x0000000080011388      0x22e ./application/InfoNES_Mapper.o
                0x0000000080011388                Map64_Write
 .text.Map69_Write
                0x00000000800115b6      0x104 ./application/InfoNES_Mapper.o
                0x00000000800115b6                Map69_Write
 .text.Map71_Write
                0x00000000800116ba       0x68 ./application/InfoNES_Mapper.o
                0x00000000800116ba                Map71_Write
 .text.Map88_Write
                0x0000000080011722      0x18e ./application/InfoNES_Mapper.o
                0x0000000080011722                Map88_Write
 .text.Map89_Write
                0x00000000800118b0       0xf4 ./application/InfoNES_Mapper.o
                0x00000000800118b0                Map89_Write
 .text.Map97_Write
                0x00000000800119a4       0x46 ./application/InfoNES_Mapper.o
                0x00000000800119a4                Map97_Write
 .text.Map230_Write
                0x00000000800119ea       0xca ./application/InfoNES_Mapper.o
                0x00000000800119ea                Map230_Write
 .text.Map68_SyncMirror.part.0
                0x0000000080011ab4       0xa6 ./application/InfoNES_Mapper.o
 .text.Map248_Set_PPU_Banks.part.0
                0x0000000080011b5a       0xb2 ./application/InfoNES_Mapper.o
 .text.Map0_Sram
                0x0000000080011c0c        0x2 ./application/InfoNES_Mapper.o
                0x0000000080011c0c                Map0_Sram
 .text.Map0_Apu
                0x0000000080011c0e        0x2 ./application/InfoNES_Mapper.o
                0x0000000080011c0e                Map0_Apu
 .text.Map0_HSync
                0x0000000080011c10        0x2 ./application/InfoNES_Mapper.o
                0x0000000080011c10                Map0_HSync
 .text.Map194_Write
                0x0000000080011c12       0x1c ./application/InfoNES_Mapper.o
                0x0000000080011c12                Map194_Write
 .text.Map68_Write
                0x0000000080011c2e      0x17e ./application/InfoNES_Mapper.o
                0x0000000080011c2e                Map68_Write
 .text.Map1_set_ROM_banks
                0x0000000080011dac       0x6a ./application/InfoNES_Mapper.o
                0x0000000080011dac                Map1_set_ROM_banks
 .text.Map1_Init
                0x0000000080011e16      0x112 ./application/InfoNES_Mapper.o
                0x0000000080011e16                Map1_Init
 .text.Map1_Write
                0x0000000080011f28      0x36a ./application/InfoNES_Mapper.o
                0x0000000080011f28                Map1_Write
 .text.Map4_Set_CPU_Banks
                0x0000000080012292       0x64 ./application/InfoNES_Mapper.o
                0x0000000080012292                Map4_Set_CPU_Banks
 .text.Map4_Set_PPU_Banks
                0x00000000800122f6      0x110 ./application/InfoNES_Mapper.o
                0x00000000800122f6                Map4_Set_PPU_Banks
 .text.Map4_Init
                0x0000000080012406      0x100 ./application/InfoNES_Mapper.o
                0x0000000080012406                Map4_Init
 .text.Map4_Write
                0x0000000080012506      0x182 ./application/InfoNES_Mapper.o
                0x0000000080012506                Map4_Write
 .text.Map25_Sync_Vrom
                0x0000000080012688       0x4e ./application/InfoNES_Mapper.o
                0x0000000080012688                Map25_Sync_Vrom
 .text.Map25_Write
                0x00000000800126d6      0x182 ./application/InfoNES_Mapper.o
                0x00000000800126d6                Map25_Write
 .text.Map44_Set_CPU_Banks
                0x0000000080012858       0x76 ./application/InfoNES_Mapper.o
                0x0000000080012858                Map44_Set_CPU_Banks
 .text.Map44_Set_PPU_Banks
                0x00000000800128ce       0xca ./application/InfoNES_Mapper.o
                0x00000000800128ce                Map44_Set_PPU_Banks
 .text.Map44_Init
                0x0000000080012998       0xf8 ./application/InfoNES_Mapper.o
                0x0000000080012998                Map44_Init
 .text.Map44_Write
                0x0000000080012a90      0x188 ./application/InfoNES_Mapper.o
                0x0000000080012a90                Map44_Write
 .text.Map45_Set_PPU_Banks
                0x0000000080012c18      0x14c ./application/InfoNES_Mapper.o
                0x0000000080012c18                Map45_Set_PPU_Banks
 .text.Map45_Sram
                0x0000000080012d64       0xc8 ./application/InfoNES_Mapper.o
                0x0000000080012d64                Map45_Sram
 .text.Map45_Write
                0x0000000080012e2c      0x350 ./application/InfoNES_Mapper.o
                0x0000000080012e2c                Map45_Write
 .text.Map46_Set_ROM_Banks
                0x000000008001317c      0x102 ./application/InfoNES_Mapper.o
                0x000000008001317c                Map46_Set_ROM_Banks
 .text.Map46_Init
                0x000000008001327e       0x96 ./application/InfoNES_Mapper.o
                0x000000008001327e                Map46_Init
 .text.Map46_Sram
                0x0000000080013314       0x16 ./application/InfoNES_Mapper.o
                0x0000000080013314                Map46_Sram
 .text.Map46_Write
                0x000000008001332a       0x18 ./application/InfoNES_Mapper.o
                0x000000008001332a                Map46_Write
 .text.Map47_Set_CPU_Banks
                0x0000000080013342       0x76 ./application/InfoNES_Mapper.o
                0x0000000080013342                Map47_Set_CPU_Banks
 .text.Map47_Set_PPU_Banks
                0x00000000800133b8       0xca ./application/InfoNES_Mapper.o
                0x00000000800133b8                Map47_Set_PPU_Banks
 .text.Map47_Init
                0x0000000080013482       0xf8 ./application/InfoNES_Mapper.o
                0x0000000080013482                Map47_Init
 .text.Map47_Sram
                0x000000008001357a       0x1e ./application/InfoNES_Mapper.o
                0x000000008001357a                Map47_Sram
 .text.Map47_Write
                0x0000000080013598      0x126 ./application/InfoNES_Mapper.o
                0x0000000080013598                Map47_Write
 .text.Map49_Set_CPU_Banks
                0x00000000800136be       0x94 ./application/InfoNES_Mapper.o
                0x00000000800136be                Map49_Set_CPU_Banks
 .text.Map49_Set_PPU_Banks
                0x0000000080013752      0x128 ./application/InfoNES_Mapper.o
                0x0000000080013752                Map49_Set_PPU_Banks
 .text.Map49_Sram
                0x000000008001387a       0x22 ./application/InfoNES_Mapper.o
                0x000000008001387a                Map49_Sram
 .text.Map49_Write
                0x000000008001389c      0x124 ./application/InfoNES_Mapper.o
                0x000000008001389c                Map49_Write
 .text.Map51_Set_CPU_Banks
                0x00000000800139c0      0x12a ./application/InfoNES_Mapper.o
                0x00000000800139c0                Map51_Set_CPU_Banks
 .text.Map51_Init
                0x0000000080013aea       0xf2 ./application/InfoNES_Mapper.o
                0x0000000080013aea                Map51_Init
 .text.Map51_Write
                0x0000000080013bdc       0x2e ./application/InfoNES_Mapper.o
                0x0000000080013bdc                Map51_Write
 .text.Map51_Sram
                0x0000000080013c0a       0x1c ./application/InfoNES_Mapper.o
                0x0000000080013c0a                Map51_Sram
 .text.Map74_Set_CPU_Banks
                0x0000000080013c26       0x64 ./application/InfoNES_Mapper.o
                0x0000000080013c26                Map74_Set_CPU_Banks
 .text.Map74_Set_PPU_Banks
                0x0000000080013c8a      0x110 ./application/InfoNES_Mapper.o
                0x0000000080013c8a                Map74_Set_PPU_Banks
 .text.Map74_Init
                0x0000000080013d9a      0x106 ./application/InfoNES_Mapper.o
                0x0000000080013d9a                Map74_Init
 .text.Map74_Write
                0x0000000080013ea0      0x182 ./application/InfoNES_Mapper.o
                0x0000000080013ea0                Map74_Write
 .text.Map90_Sync_Mirror
                0x0000000080014022       0xda ./application/InfoNES_Mapper.o
                0x0000000080014022                Map90_Sync_Mirror
 .text.Map90_Sync_Chr_Banks
                0x00000000800140fc      0x23c ./application/InfoNES_Mapper.o
                0x00000000800140fc                Map90_Sync_Chr_Banks
 .text.Map90_Sync_Prg_Banks
                0x0000000080014338      0x144 ./application/InfoNES_Mapper.o
                0x0000000080014338                Map90_Sync_Prg_Banks
 .text.Map90_Write
                0x000000008001447c      0x146 ./application/InfoNES_Mapper.o
                0x000000008001447c                Map90_Write
 .text.Map95_Set_CPU_Banks
                0x00000000800145c2       0x64 ./application/InfoNES_Mapper.o
                0x00000000800145c2                Map95_Set_CPU_Banks
 .text.Map95_Set_PPU_Banks
                0x0000000080014626       0xb6 ./application/InfoNES_Mapper.o
                0x0000000080014626                Map95_Set_PPU_Banks
 .text.Map95_Init
                0x00000000800146dc       0xee ./application/InfoNES_Mapper.o
                0x00000000800146dc                Map95_Init
 .text.Map95_Write
                0x00000000800147ca       0xf0 ./application/InfoNES_Mapper.o
                0x00000000800147ca                Map95_Write
 .text.Map96_Set_Banks
                0x00000000800148ba       0x92 ./application/InfoNES_Mapper.o
                0x00000000800148ba                Map96_Set_Banks
 .text.Map96_Init
                0x000000008001494c       0xb6 ./application/InfoNES_Mapper.o
                0x000000008001494c                Map96_Init
 .text.Map96_Write
                0x0000000080014a02       0x5e ./application/InfoNES_Mapper.o
                0x0000000080014a02                Map96_Write
 .text.Map96_PPU
                0x0000000080014a60       0x18 ./application/InfoNES_Mapper.o
                0x0000000080014a60                Map96_PPU
 .text.Map100_Set_CPU_Banks
                0x0000000080014a78       0x50 ./application/InfoNES_Mapper.o
                0x0000000080014a78                Map100_Set_CPU_Banks
 .text.Map100_Set_PPU_Banks
                0x0000000080014ac8       0x96 ./application/InfoNES_Mapper.o
                0x0000000080014ac8                Map100_Set_PPU_Banks
 .text.Map100_Init
                0x0000000080014b5e      0x126 ./application/InfoNES_Mapper.o
                0x0000000080014b5e                Map100_Init
 .text.Map100_Write
                0x0000000080014c84      0x21c ./application/InfoNES_Mapper.o
                0x0000000080014c84                Map100_Write
 .text.Map109_Set_PPU_Banks
                0x0000000080014ea0       0xae ./application/InfoNES_Mapper.o
                0x0000000080014ea0                Map109_Set_PPU_Banks
 .text.Map109_Init
                0x0000000080014f4e       0xc8 ./application/InfoNES_Mapper.o
                0x0000000080014f4e                Map109_Init
 .text.Map109_Apu
                0x0000000080015016       0xce ./application/InfoNES_Mapper.o
                0x0000000080015016                Map109_Apu
 .text.Map112_Set_CPU_Banks
                0x00000000800150e4       0x64 ./application/InfoNES_Mapper.o
                0x00000000800150e4                Map112_Set_CPU_Banks
 .text.Map112_Set_PPU_Banks
                0x0000000080015148       0xb6 ./application/InfoNES_Mapper.o
                0x0000000080015148                Map112_Set_PPU_Banks
 .text.Map112_Init
                0x00000000800151fe       0xf4 ./application/InfoNES_Mapper.o
                0x00000000800151fe                Map112_Init
 .text.Map112_Write
                0x00000000800152f2      0x14c ./application/InfoNES_Mapper.o
                0x00000000800152f2                Map112_Write
 .text.Map114_Set_CPU_Banks
                0x000000008001543e       0x64 ./application/InfoNES_Mapper.o
                0x000000008001543e                Map114_Set_CPU_Banks
 .text.Map114_Set_PPU_Banks
                0x00000000800154a2       0xb6 ./application/InfoNES_Mapper.o
                0x00000000800154a2                Map114_Set_PPU_Banks
 .text.Map114_Init
                0x0000000080015558       0xf4 ./application/InfoNES_Mapper.o
                0x0000000080015558                Map114_Init
 .text.Map114_Sram
                0x000000008001564c       0x80 ./application/InfoNES_Mapper.o
                0x000000008001564c                Map114_Sram
 .text.Map114_Write
                0x00000000800156cc      0x14e ./application/InfoNES_Mapper.o
                0x00000000800156cc                Map114_Write
 .text.Map115_Set_CPU_Banks
                0x000000008001581a       0xc8 ./application/InfoNES_Mapper.o
                0x000000008001581a                Map115_Set_CPU_Banks
 .text.Map115_Set_PPU_Banks
                0x00000000800158e2       0xcc ./application/InfoNES_Mapper.o
                0x00000000800158e2                Map115_Set_PPU_Banks
 .text.Map115_Init
                0x00000000800159ae      0x13a ./application/InfoNES_Mapper.o
                0x00000000800159ae                Map115_Init
 .text.Map115_Write
                0x0000000080015ae8      0x128 ./application/InfoNES_Mapper.o
                0x0000000080015ae8                Map115_Write
 .text.Map115_Sram
                0x0000000080015c10       0x20 ./application/InfoNES_Mapper.o
                0x0000000080015c10                Map115_Sram
 .text.Map116_Set_CPU_Banks
                0x0000000080015c30       0x66 ./application/InfoNES_Mapper.o
                0x0000000080015c30                Map116_Set_CPU_Banks
 .text.Map116_Set_PPU_Banks
                0x0000000080015c96       0xcc ./application/InfoNES_Mapper.o
                0x0000000080015c96                Map116_Set_PPU_Banks
 .text.Map116_Init
                0x0000000080015d62      0x13a ./application/InfoNES_Mapper.o
                0x0000000080015d62                Map116_Init
 .text.Map116_Write
                0x0000000080015e9c      0x120 ./application/InfoNES_Mapper.o
                0x0000000080015e9c                Map116_Write
 .text.Map118_Set_CPU_Banks
                0x0000000080015fbc       0x64 ./application/InfoNES_Mapper.o
                0x0000000080015fbc                Map118_Set_CPU_Banks
 .text.Map118_Set_PPU_Banks
                0x0000000080016020       0xb6 ./application/InfoNES_Mapper.o
                0x0000000080016020                Map118_Set_PPU_Banks
 .text.Map118_Init
                0x00000000800160d6      0x10a ./application/InfoNES_Mapper.o
                0x00000000800160d6                Map118_Init
 .text.Map118_Write
                0x00000000800161e0      0x16a ./application/InfoNES_Mapper.o
                0x00000000800161e0                Map118_Write
 .text.Map119_Set_CPU_Banks
                0x000000008001634a       0x64 ./application/InfoNES_Mapper.o
                0x000000008001634a                Map119_Set_CPU_Banks
 .text.Map119_Set_PPU_Banks
                0x00000000800163ae      0x36e ./application/InfoNES_Mapper.o
                0x00000000800163ae                Map119_Set_PPU_Banks
 .text.Map119_Init
                0x000000008001671c       0xd8 ./application/InfoNES_Mapper.o
                0x000000008001671c                Map119_Init
 .text.Map119_Write
                0x00000000800167f4      0x152 ./application/InfoNES_Mapper.o
                0x00000000800167f4                Map119_Write
 .text.Map135_Set_PPU_Banks
                0x0000000080016946       0xc8 ./application/InfoNES_Mapper.o
                0x0000000080016946                Map135_Set_PPU_Banks
 .text.Map135_Init
                0x0000000080016a0e       0xc4 ./application/InfoNES_Mapper.o
                0x0000000080016a0e                Map135_Init
 .text.Map135_Apu
                0x0000000080016ad2       0xe6 ./application/InfoNES_Mapper.o
                0x0000000080016ad2                Map135_Apu
 .text.Map187_Set_CPU_Banks
                0x0000000080016bb8       0x64 ./application/InfoNES_Mapper.o
                0x0000000080016bb8                Map187_Set_CPU_Banks
 .text.Map187_Init
                0x0000000080016c1c      0x10c ./application/InfoNES_Mapper.o
                0x0000000080016c1c                Map187_Init
 .text.Map187_Apu
                0x0000000080016d28       0x90 ./application/InfoNES_Mapper.o
                0x0000000080016d28                Map187_Apu
 .text.Map187_Set_PPU_Banks
                0x0000000080016db8       0xc2 ./application/InfoNES_Mapper.o
                0x0000000080016db8                Map187_Set_PPU_Banks
 .text.Map187_Write
                0x0000000080016e7a      0x1e0 ./application/InfoNES_Mapper.o
                0x0000000080016e7a                Map187_Write
 .text.Map191_Set_CPU_Banks
                0x000000008001705a       0x54 ./application/InfoNES_Mapper.o
                0x000000008001705a                Map191_Set_CPU_Banks
 .text.Map191_Set_PPU_Banks
                0x00000000800170ae       0xbe ./application/InfoNES_Mapper.o
                0x00000000800170ae                Map191_Set_PPU_Banks
 .text.Map191_Init
                0x000000008001716c       0xb4 ./application/InfoNES_Mapper.o
                0x000000008001716c                Map191_Init
 .text.Map191_Apu
                0x0000000080017220       0x8c ./application/InfoNES_Mapper.o
                0x0000000080017220                Map191_Apu
 .text.Map202_WriteSub
                0x00000000800172ac      0x116 ./application/InfoNES_Mapper.o
                0x00000000800172ac                Map202_WriteSub
 .text.Map202_Apu
                0x00000000800173c2        0x4 ./application/InfoNES_Mapper.o
                0x00000000800173c2                Map202_Apu
 .text.Map202_Write
                0x00000000800173c6        0x4 ./application/InfoNES_Mapper.o
                0x00000000800173c6                Map202_Write
 .text.Map234_Set_Banks
                0x00000000800173ca      0x138 ./application/InfoNES_Mapper.o
                0x00000000800173ca                Map234_Set_Banks
 .text.Map234_Write
                0x0000000080017502       0x36 ./application/InfoNES_Mapper.o
                0x0000000080017502                Map234_Write
 .text.Map248_Set_CPU_Banks
                0x0000000080017538       0x64 ./application/InfoNES_Mapper.o
                0x0000000080017538                Map248_Set_CPU_Banks
 .text.Map248_Init
                0x000000008001759c       0xe2 ./application/InfoNES_Mapper.o
                0x000000008001759c                Map248_Init
 .text.Map248_Write
                0x000000008001767e      0x12a ./application/InfoNES_Mapper.o
                0x000000008001767e                Map248_Write
 .text.Map251_Set_Banks
                0x00000000800177a8      0x18e ./application/InfoNES_Mapper.o
                0x00000000800177a8                Map251_Set_Banks
 .text.Map251_Write
                0x0000000080017936       0x68 ./application/InfoNES_Mapper.o
                0x0000000080017936                Map251_Write
 .text.Map251_Sram
                0x000000008001799e       0x48 ./application/InfoNES_Mapper.o
                0x000000008001799e                Map251_Sram
 .text.InfoNES_Menu
                0x00000000800179e6        0x4 ./application/InfoNES_System.o
                0x00000000800179e6                InfoNES_Menu
 .text.InfoNES_ReadRom
                0x00000000800179ea       0x9e ./application/InfoNES_System.o
                0x00000000800179ea                InfoNES_ReadRom
 .text.InfoNES_ReleaseRom
                0x0000000080017a88        0x2 ./application/InfoNES_System.o
                0x0000000080017a88                InfoNES_ReleaseRom
 .text.InfoNES_LoadFrame
                0x0000000080017a8a       0x4c ./application/InfoNES_System.o
                0x0000000080017a8a                InfoNES_LoadFrame
 .text.InfoNES_PadState
                0x0000000080017ad6      0x16a ./application/InfoNES_System.o
                0x0000000080017ad6                InfoNES_PadState
 .text.InfoNES_MemoryCopy
                0x0000000080017c40        0x4 ./application/InfoNES_System.o
                0x0000000080017c40                InfoNES_MemoryCopy
 .text.InfoNES_MemorySet
                0x0000000080017c44        0x4 ./application/InfoNES_System.o
                0x0000000080017c44                InfoNES_MemorySet
 .text.InfoNES_Wait
                0x0000000080017c48        0x2 ./application/InfoNES_System.o
                0x0000000080017c48                InfoNES_Wait
 .text.InfoNES_MessageBox
                0x0000000080017c4a       0x14 ./application/InfoNES_System.o
                0x0000000080017c4a                InfoNES_MessageBox
 .text.K6502_Read
                0x0000000080017c5e      0x1d0 ./application/K6502.o
 .text.K6502_Write
                0x0000000080017e2e      0x4d8 ./application/K6502.o
 .text.K6502_Init
                0x0000000080018306      0x2be ./application/K6502.o
                0x0000000080018306                K6502_Init
 .text.K6502_Reset
                0x00000000800185c4       0x48 ./application/K6502.o
                0x00000000800185c4                K6502_Reset
 .text.K6502_Set_Int_Wiring
                0x000000008001860c        0xa ./application/K6502.o
                0x000000008001860c                K6502_Set_Int_Wiring
 .text.K6502_Step
                0x0000000080018616     0x4000 ./application/K6502.o
                0x0000000080018616                K6502_Step
 .text.plic_init
                0x000000008001c616       0x38 ./application/main.o
                0x000000008001c616                plic_init
 .text.switch_game
                0x000000008001c64e       0x88 ./application/main.o
                0x000000008001c64e                switch_game
 .text.plic_btn_handler
                0x000000008001c6d6       0x90 ./application/main.o
                0x000000008001c6d6                plic_btn_handler
 .text.__udivdi3
                0x000000008001c766      0x360 c:/microdownload/nucleistudio/toolchain/gcc/bin/../lib/gcc/riscv-nuclei-elf/10.2.0/rv32imac/ilp32\libgcc.a(_udivdi3.o)
                0x000000008001c766                __udivdi3
 .text.atexit   0x000000008001cac6        0xa c:/microdownload/nucleistudio/toolchain/gcc/bin/../lib/gcc/riscv-nuclei-elf/10.2.0/../../../../riscv-nuclei-elf/lib/rv32imac/ilp32\libg_nano.a(lib_a-atexit.o)
                0x000000008001cac6                atexit
 .text.__libc_fini_array
                0x000000008001cad0       0x36 c:/microdownload/nucleistudio/toolchain/gcc/bin/../lib/gcc/riscv-nuclei-elf/10.2.0/../../../../riscv-nuclei-elf/lib/rv32imac/ilp32\libg_nano.a(lib_a-fini.o)
                0x000000008001cad0                __libc_fini_array
 .text.__libc_init_array
                0x000000008001cb06       0x5e c:/microdownload/nucleistudio/toolchain/gcc/bin/../lib/gcc/riscv-nuclei-elf/10.2.0/../../../../riscv-nuclei-elf/lib/rv32imac/ilp32\libg_nano.a(lib_a-init.o)
                0x000000008001cb06                __libc_init_array
 .text.memcpy   0x000000008001cb64       0xdc c:/microdownload/nucleistudio/toolchain/gcc/bin/../lib/gcc/riscv-nuclei-elf/10.2.0/../../../../riscv-nuclei-elf/lib/rv32imac/ilp32\libg_nano.a(lib_a-memcpy.o)
                0x000000008001cb64                memcpy
 .text          0x000000008001cc40       0xa8 c:/microdownload/nucleistudio/toolchain/gcc/bin/../lib/gcc/riscv-nuclei-elf/10.2.0/../../../../riscv-nuclei-elf/lib/rv32imac/ilp32\libg_nano.a(lib_a-memset.o)
                0x000000008001cc40                memset
 .text.printf   0x000000008001cce8       0x3a c:/microdownload/nucleistudio/toolchain/gcc/bin/../lib/gcc/riscv-nuclei-elf/10.2.0/../../../../riscv-nuclei-elf/lib/rv32imac/ilp32\libg_nano.a(lib_a-printf.o)
                0x000000008001cce8                iprintf
                0x000000008001cce8                printf
 .text._puts_r  0x000000008001cd22       0xda c:/microdownload/nucleistudio/toolchain/gcc/bin/../lib/gcc/riscv-nuclei-elf/10.2.0/../../../../riscv-nuclei-elf/lib/rv32imac/ilp32\libg_nano.a(lib_a-puts.o)
                0x000000008001cd22                _puts_r
 .text.puts     0x000000008001cdfc        0xa c:/microdownload/nucleistudio/toolchain/gcc/bin/../lib/gcc/riscv-nuclei-elf/10.2.0/../../../../riscv-nuclei-elf/lib/rv32imac/ilp32\libg_nano.a(lib_a-puts.o)
                0x000000008001cdfc                puts
 .text.isatty   0x000000008001ce06        0x4 c:/microdownload/nucleistudio/toolchain/gcc/bin/../lib/gcc/riscv-nuclei-elf/10.2.0/../../../../riscv-nuclei-elf/lib/rv32imac/ilp32\libg_nano.a(lib_a-sysisatty.o)
                0x000000008001ce06                isatty
 .text.__swbuf_r
                0x000000008001ce0a       0xc0 c:/microdownload/nucleistudio/toolchain/gcc/bin/../lib/gcc/riscv-nuclei-elf/10.2.0/../../../../riscv-nuclei-elf/lib/rv32imac/ilp32\libg_nano.a(lib_a-wbuf.o)
                0x000000008001ce0a                __swbuf_r
 .text.__swsetup_r
                0x000000008001ceca      0x106 c:/microdownload/nucleistudio/toolchain/gcc/bin/../lib/gcc/riscv-nuclei-elf/10.2.0/../../../../riscv-nuclei-elf/lib/rv32imac/ilp32\libg_nano.a(lib_a-wsetup.o)
                0x000000008001ceca                __swsetup_r
 .text.__register_exitproc
                0x000000008001cfd0       0x78 c:/microdownload/nucleistudio/toolchain/gcc/bin/../lib/gcc/riscv-nuclei-elf/10.2.0/../../../../riscv-nuclei-elf/lib/rv32imac/ilp32\libg_nano.a(lib_a-__atexit.o)
                0x000000008001cfd0                __register_exitproc
 .text.__sflush_r
                0x000000008001d048      0x146 c:/microdownload/nucleistudio/toolchain/gcc/bin/../lib/gcc/riscv-nuclei-elf/10.2.0/../../../../riscv-nuclei-elf/lib/rv32imac/ilp32\libg_nano.a(lib_a-fflush.o)
                0x000000008001d048                __sflush_r
 .text._fflush_r
                0x000000008001d18e       0x66 c:/microdownload/nucleistudio/toolchain/gcc/bin/../lib/gcc/riscv-nuclei-elf/10.2.0/../../../../riscv-nuclei-elf/lib/rv32imac/ilp32\libg_nano.a(lib_a-fflush.o)
                0x000000008001d18e                _fflush_r
 .text.std      0x000000008001d1f4       0x6a c:/microdownload/nucleistudio/toolchain/gcc/bin/../lib/gcc/riscv-nuclei-elf/10.2.0/../../../../riscv-nuclei-elf/lib/rv32imac/ilp32\libg_nano.a(lib_a-findfp.o)
 .text._cleanup_r
                0x000000008001d25e        0xa c:/microdownload/nucleistudio/toolchain/gcc/bin/../lib/gcc/riscv-nuclei-elf/10.2.0/../../../../riscv-nuclei-elf/lib/rv32imac/ilp32\libg_nano.a(lib_a-findfp.o)
                0x000000008001d25e                _cleanup_r
 .text.__sfmoreglue
                0x000000008001d268       0x46 c:/microdownload/nucleistudio/toolchain/gcc/bin/../lib/gcc/riscv-nuclei-elf/10.2.0/../../../../riscv-nuclei-elf/lib/rv32imac/ilp32\libg_nano.a(lib_a-findfp.o)
                0x000000008001d268                __sfmoreglue
 .text.__sinit  0x000000008001d2ae       0x6c c:/microdownload/nucleistudio/toolchain/gcc/bin/../lib/gcc/riscv-nuclei-elf/10.2.0/../../../../riscv-nuclei-elf/lib/rv32imac/ilp32\libg_nano.a(lib_a-findfp.o)
                0x000000008001d2ae                __sinit
 .text.__sfp    0x000000008001d31a       0x9e c:/microdownload/nucleistudio/toolchain/gcc/bin/../lib/gcc/riscv-nuclei-elf/10.2.0/../../../../riscv-nuclei-elf/lib/rv32imac/ilp32\libg_nano.a(lib_a-findfp.o)
                0x000000008001d31a                __sfp
 .text._fwalk_reent
                0x000000008001d3b8       0x6a c:/microdownload/nucleistudio/toolchain/gcc/bin/../lib/gcc/riscv-nuclei-elf/10.2.0/../../../../riscv-nuclei-elf/lib/rv32imac/ilp32\libg_nano.a(lib_a-fwalk.o)
                0x000000008001d3b8                _fwalk_reent
 .text.__swhatbuf_r
                0x000000008001d422       0x5c c:/microdownload/nucleistudio/toolchain/gcc/bin/../lib/gcc/riscv-nuclei-elf/10.2.0/../../../../riscv-nuclei-elf/lib/rv32imac/ilp32\libg_nano.a(lib_a-makebuf.o)
                0x000000008001d422                __swhatbuf_r
 .text.__smakebuf_r
                0x000000008001d47e       0xa0 c:/microdownload/nucleistudio/toolchain/gcc/bin/../lib/gcc/riscv-nuclei-elf/10.2.0/../../../../riscv-nuclei-elf/lib/rv32imac/ilp32\libg_nano.a(lib_a-makebuf.o)
                0x000000008001d47e                __smakebuf_r
 .text._free_r  0x000000008001d51e       0xa2 c:/microdownload/nucleistudio/toolchain/gcc/bin/../lib/gcc/riscv-nuclei-elf/10.2.0/../../../../riscv-nuclei-elf/lib/rv32imac/ilp32\libg_nano.a(lib_a-nano-freer.o)
                0x000000008001d51e                _free_r
 .text._malloc_r
                0x000000008001d5c0       0xd6 c:/microdownload/nucleistudio/toolchain/gcc/bin/../lib/gcc/riscv-nuclei-elf/10.2.0/../../../../riscv-nuclei-elf/lib/rv32imac/ilp32\libg_nano.a(lib_a-nano-mallocr.o)
                0x000000008001d5c0                _malloc_r
 .text.__sfputc_r
                0x000000008001d696       0x2a c:/microdownload/nucleistudio/toolchain/gcc/bin/../lib/gcc/riscv-nuclei-elf/10.2.0/../../../../riscv-nuclei-elf/lib/rv32imac/ilp32\libg_nano.a(lib_a-nano-vfprintf.o)
 .text.__sfputs_r
                0x000000008001d6c0       0x44 c:/microdownload/nucleistudio/toolchain/gcc/bin/../lib/gcc/riscv-nuclei-elf/10.2.0/../../../../riscv-nuclei-elf/lib/rv32imac/ilp32\libg_nano.a(lib_a-nano-vfprintf.o)
                0x000000008001d6c0                __sfputs_r
 .text._vfprintf_r
                0x000000008001d704      0x298 c:/microdownload/nucleistudio/toolchain/gcc/bin/../lib/gcc/riscv-nuclei-elf/10.2.0/../../../../riscv-nuclei-elf/lib/rv32imac/ilp32\libg_nano.a(lib_a-nano-vfprintf.o)
                0x000000008001d704                _vfprintf_r
                0x000000008001d704                _vfiprintf_r
 .text._printf_common
                0x000000008001d99c      0x10c c:/microdownload/nucleistudio/toolchain/gcc/bin/../lib/gcc/riscv-nuclei-elf/10.2.0/../../../../riscv-nuclei-elf/lib/rv32imac/ilp32\libg_nano.a(lib_a-nano-vfprintf_i.o)
                0x000000008001d99c                _printf_common
 .text._printf_i
                0x000000008001daa8      0x272 c:/microdownload/nucleistudio/toolchain/gcc/bin/../lib/gcc/riscv-nuclei-elf/10.2.0/../../../../riscv-nuclei-elf/lib/rv32imac/ilp32\libg_nano.a(lib_a-nano-vfprintf_i.o)
                0x000000008001daa8                _printf_i
 .text._sbrk_r  0x000000008001dd1a       0x28 c:/microdownload/nucleistudio/toolchain/gcc/bin/../lib/gcc/riscv-nuclei-elf/10.2.0/../../../../riscv-nuclei-elf/lib/rv32imac/ilp32\libg_nano.a(lib_a-sbrkr.o)
                0x000000008001dd1a                _sbrk_r
 .text.__sread  0x000000008001dd42       0x30 c:/microdownload/nucleistudio/toolchain/gcc/bin/../lib/gcc/riscv-nuclei-elf/10.2.0/../../../../riscv-nuclei-elf/lib/rv32imac/ilp32\libg_nano.a(lib_a-stdio.o)
                0x000000008001dd42                __sread
 .text.__swrite
                0x000000008001dd72       0x4e c:/microdownload/nucleistudio/toolchain/gcc/bin/../lib/gcc/riscv-nuclei-elf/10.2.0/../../../../riscv-nuclei-elf/lib/rv32imac/ilp32\libg_nano.a(lib_a-stdio.o)
                0x000000008001dd72                __swrite
 .text.__sseek  0x000000008001ddc0       0x36 c:/microdownload/nucleistudio/toolchain/gcc/bin/../lib/gcc/riscv-nuclei-elf/10.2.0/../../../../riscv-nuclei-elf/lib/rv32imac/ilp32\libg_nano.a(lib_a-stdio.o)
                0x000000008001ddc0                __sseek
 .text.__sclose
                0x000000008001ddf6        0x6 c:/microdownload/nucleistudio/toolchain/gcc/bin/../lib/gcc/riscv-nuclei-elf/10.2.0/../../../../riscv-nuclei-elf/lib/rv32imac/ilp32\libg_nano.a(lib_a-stdio.o)
                0x000000008001ddf6                __sclose
 .text._write_r
                0x000000008001ddfc       0x2c c:/microdownload/nucleistudio/toolchain/gcc/bin/../lib/gcc/riscv-nuclei-elf/10.2.0/../../../../riscv-nuclei-elf/lib/rv32imac/ilp32\libg_nano.a(lib_a-writer.o)
                0x000000008001ddfc                _write_r
 .text._close_r
                0x000000008001de28       0x28 c:/microdownload/nucleistudio/toolchain/gcc/bin/../lib/gcc/riscv-nuclei-elf/10.2.0/../../../../riscv-nuclei-elf/lib/rv32imac/ilp32\libg_nano.a(lib_a-closer.o)
                0x000000008001de28                _close_r
 .text._fstat_r
                0x000000008001de50       0x2a c:/microdownload/nucleistudio/toolchain/gcc/bin/../lib/gcc/riscv-nuclei-elf/10.2.0/../../../../riscv-nuclei-elf/lib/rv32imac/ilp32\libg_nano.a(lib_a-fstatr.o)
                0x000000008001de50                _fstat_r
 .text._isatty_r
                0x000000008001de7a       0x28 c:/microdownload/nucleistudio/toolchain/gcc/bin/../lib/gcc/riscv-nuclei-elf/10.2.0/../../../../riscv-nuclei-elf/lib/rv32imac/ilp32\libg_nano.a(lib_a-isattyr.o)
                0x000000008001de7a                _isatty_r
 .text._lseek_r
                0x000000008001dea2       0x2c c:/microdownload/nucleistudio/toolchain/gcc/bin/../lib/gcc/riscv-nuclei-elf/10.2.0/../../../../riscv-nuclei-elf/lib/rv32imac/ilp32\libg_nano.a(lib_a-lseekr.o)
                0x000000008001dea2                _lseek_r
 .text.memchr   0x000000008001dece       0x1a c:/microdownload/nucleistudio/toolchain/gcc/bin/../lib/gcc/riscv-nuclei-elf/10.2.0/../../../../riscv-nuclei-elf/lib/rv32imac/ilp32\libg_nano.a(lib_a-memchr.o)
                0x000000008001dece                memchr
 .text.__malloc_lock
                0x000000008001dee8        0x2 c:/microdownload/nucleistudio/toolchain/gcc/bin/../lib/gcc/riscv-nuclei-elf/10.2.0/../../../../riscv-nuclei-elf/lib/rv32imac/ilp32\libg_nano.a(lib_a-mlock.o)
                0x000000008001dee8                __malloc_lock
 .text.__malloc_unlock
                0x000000008001deea        0x2 c:/microdownload/nucleistudio/toolchain/gcc/bin/../lib/gcc/riscv-nuclei-elf/10.2.0/../../../../riscv-nuclei-elf/lib/rv32imac/ilp32\libg_nano.a(lib_a-mlock.o)
                0x000000008001deea                __malloc_unlock
 .text._read_r  0x000000008001deec       0x2c c:/microdownload/nucleistudio/toolchain/gcc/bin/../lib/gcc/riscv-nuclei-elf/10.2.0/../../../../riscv-nuclei-elf/lib/rv32imac/ilp32\libg_nano.a(lib_a-readr.o)
                0x000000008001deec                _read_r
 *(.gnu.linkonce.t.*)

.rodata         0x000000008001df18     0xc9c4
                0x000000008001df18                . = ALIGN (0x4)
 *(.rdata)
 *(.rodata .rodata.*)
 .rodata.system_default_exception_handler.str1.4
                0x000000008001df18       0x44 ./hbird_sdk/SoC/hbirdv2/Common/Source/system_hbirdv2.o
 .rodata.system_default_interrupt_handler.str1.4
                0x000000008001df5c       0x13 ./hbird_sdk/SoC/hbirdv2/Common/Source/system_hbirdv2.o
 *fill*         0x000000008001df6f        0x1 
 .rodata.SystemBannerPrint.str1.4
                0x000000008001df70       0x6f ./hbird_sdk/SoC/hbirdv2/Common/Source/system_hbirdv2.o
 *fill*         0x000000008001dfdf        0x1 
 .rodata.asc2_1206
                0x000000008001dfe0      0x474 ./application/ILI93xx.o
                0x000000008001dfe0                asc2_1206
 .rodata.asc2_1608
                0x000000008001e454      0x5f0 ./application/ILI93xx.o
                0x000000008001e454                asc2_1608
 .rodata.asc2_2412
                0x000000008001ea44      0xd5c ./application/ILI93xx.o
                0x000000008001ea44                asc2_2412
 .rodata.InfoNES_Reset.str1.4
                0x000000008001f7a0       0x1c ./application/InfoNES.o
 .rodata._ZL11JustHitStep
                0x000000008001f7bc      0x200 ./application/InfoNES.o
 .rodata.Map117_Write
                0x000000008001f9bc       0x1c ./application/InfoNES_Mapper.o
 .rodata.Map160_Write
                0x000000008001f9d8       0x1c ./application/InfoNES_Mapper.o
 .rodata.Map16_Write
                0x000000008001f9f4       0x34 ./application/InfoNES_Mapper.o
 .rodata.Map17_Apu
                0x000000008001fa28       0x5c ./application/InfoNES_Mapper.o
 .rodata.Map21_Write
                0x000000008001fa84       0x70 ./application/InfoNES_Mapper.o
 .rodata.Map23_Write
                0x000000008001faf4       0xd0 ./application/InfoNES_Mapper.o
 .rodata.Map26_Write
                0x000000008001fbc4       0x94 ./application/InfoNES_Mapper.o
 .rodata.Map65_Write
                0x000000008001fc58       0x38 ./application/InfoNES_Mapper.o
 .rodata.Map80_Sram
                0x000000008001fc90       0x40 ./application/InfoNES_Mapper.o
 .rodata.Map82_Sram
                0x000000008001fcd0       0x34 ./application/InfoNES_Mapper.o
 .rodata.Map83_Write
                0x000000008001fd04       0x64 ./application/InfoNES_Mapper.o
 .rodata.Map134_Apu
                0x000000008001fd68       0x20 ./application/InfoNES_Mapper.o
 .rodata.Map182_Write
                0x000000008001fd88       0x20 ./application/InfoNES_Mapper.o
 .rodata.Map249_Write
                0x000000008001fda8       0x20 ./application/InfoNES_Mapper.o
 .rodata.Map76_Write
                0x000000008001fdc8       0x20 ./application/InfoNES_Mapper.o
 .rodata.Map110_Apu
                0x000000008001fde8       0x1c ./application/InfoNES_Mapper.o
 .rodata.Map189_Write
                0x000000008001fe04       0x20 ./application/InfoNES_Mapper.o
 .rodata.Map243_Apu
                0x000000008001fe24       0x20 ./application/InfoNES_Mapper.o
 .rodata.Map246_Sram
                0x000000008001fe44       0x20 ./application/InfoNES_Mapper.o
 .rodata.Map64_Write
                0x000000008001fe64       0x40 ./application/InfoNES_Mapper.o
 .rodata.Map69_Write
                0x000000008001fea4       0x40 ./application/InfoNES_Mapper.o
 .rodata.Map88_Write
                0x000000008001fee4       0x20 ./application/InfoNES_Mapper.o
 .rodata.Map4_Write
                0x000000008001ff04       0x20 ./application/InfoNES_Mapper.o
 .rodata.Map44_Write
                0x000000008001ff24       0x20 ./application/InfoNES_Mapper.o
 .rodata.Map45_Write
                0x000000008001ff44       0x20 ./application/InfoNES_Mapper.o
 .rodata.Map47_Write
                0x000000008001ff64       0x20 ./application/InfoNES_Mapper.o
 .rodata.Map49_Write
                0x000000008001ff84       0x20 ./application/InfoNES_Mapper.o
 .rodata.Map74_Write
                0x000000008001ffa4       0x20 ./application/InfoNES_Mapper.o
 .rodata.Map95_Write
                0x000000008001ffc4       0x20 ./application/InfoNES_Mapper.o
 .rodata.Map100_Write
                0x000000008001ffe4      0x120 ./application/InfoNES_Mapper.o
 .rodata.Map109_Apu
                0x0000000080020104       0x20 ./application/InfoNES_Mapper.o
 .rodata.Map112_Write
                0x0000000080020124       0x20 ./application/InfoNES_Mapper.o
 .rodata.Map114_Write
                0x0000000080020144       0x20 ./application/InfoNES_Mapper.o
 .rodata.Map115_Write
                0x0000000080020164       0x20 ./application/InfoNES_Mapper.o
 .rodata.Map116_Write
                0x0000000080020184       0x20 ./application/InfoNES_Mapper.o
 .rodata.Map118_Write
                0x00000000800201a4       0x20 ./application/InfoNES_Mapper.o
 .rodata.Map119_Write
                0x00000000800201c4       0x20 ./application/InfoNES_Mapper.o
 .rodata.Map135_Apu
                0x00000000800201e4       0x20 ./application/InfoNES_Mapper.o
 .rodata.Map187_Write
                0x0000000080020204       0x20 ./application/InfoNES_Mapper.o
 .rodata.Map191_Apu
                0x0000000080020224       0x20 ./application/InfoNES_Mapper.o
 .rodata.Map248_Write
                0x0000000080020244       0x20 ./application/InfoNES_Mapper.o
 .rodata        0x0000000080020264       0x10 ./application/InfoNES_Mapper.o
 .rodata.K6502_Write
                0x0000000080020274       0x40 ./application/K6502.o
 .rodata.K6502_Step
                0x00000000800202b4      0x3fc ./application/K6502.o
 .rodata.switch_game.str1.4
                0x00000000800206b0       0x25 ./application/main.o
 *fill*         0x00000000800206d5        0x3 
 .rodata.nes_rom
                0x00000000800206d8     0xa010 ./application/rom.o
                0x00000000800206d8                nes_rom
 .rodata.__clz_tab
                0x000000008002a6e8      0x100 c:/microdownload/nucleistudio/toolchain/gcc/bin/../lib/gcc/riscv-nuclei-elf/10.2.0/rv32imac/ilp32\libgcc.a(_clz.o)
                0x000000008002a6e8                __clz_tab
 .rodata.__sf_fake_stderr
                0x000000008002a7e8       0x20 c:/microdownload/nucleistudio/toolchain/gcc/bin/../lib/gcc/riscv-nuclei-elf/10.2.0/../../../../riscv-nuclei-elf/lib/rv32imac/ilp32\libg_nano.a(lib_a-findfp.o)
                0x000000008002a7e8                __sf_fake_stderr
 .rodata.__sf_fake_stdin
                0x000000008002a808       0x20 c:/microdownload/nucleistudio/toolchain/gcc/bin/../lib/gcc/riscv-nuclei-elf/10.2.0/../../../../riscv-nuclei-elf/lib/rv32imac/ilp32\libg_nano.a(lib_a-findfp.o)
                0x000000008002a808                __sf_fake_stdin
 .rodata.__sf_fake_stdout
                0x000000008002a828       0x20 c:/microdownload/nucleistudio/toolchain/gcc/bin/../lib/gcc/riscv-nuclei-elf/10.2.0/../../../../riscv-nuclei-elf/lib/rv32imac/ilp32\libg_nano.a(lib_a-findfp.o)
                0x000000008002a828                __sf_fake_stdout
 .rodata._vfprintf_r.str1.4
                0x000000008002a848       0x13 c:/microdownload/nucleistudio/toolchain/gcc/bin/../lib/gcc/riscv-nuclei-elf/10.2.0/../../../../riscv-nuclei-elf/lib/rv32imac/ilp32\libg_nano.a(lib_a-nano-vfprintf.o)
 *fill*         0x000000008002a85b        0x1 
 .rodata._printf_i.str1.4
                0x000000008002a85c       0x25 c:/microdownload/nucleistudio/toolchain/gcc/bin/../lib/gcc/riscv-nuclei-elf/10.2.0/../../../../riscv-nuclei-elf/lib/rv32imac/ilp32\libg_nano.a(lib_a-nano-vfprintf_i.o)
 *fill*         0x000000008002a881        0x3 
 .rodata._printf_i
                0x000000008002a884       0x58 c:/microdownload/nucleistudio/toolchain/gcc/bin/../lib/gcc/riscv-nuclei-elf/10.2.0/../../../../riscv-nuclei-elf/lib/rv32imac/ilp32\libg_nano.a(lib_a-nano-vfprintf_i.o)
                0x000000008002a8dc                . = ALIGN (0x4)
                0x000000008002a8dc                __rt_init_start = .
 *(SORT_BY_NAME(.rti_fn*))
                0x000000008002a8dc                __rt_init_end = .
                0x000000008002a8dc                . = ALIGN (0x4)
                0x000000008002a8dc                __fsymtab_start = .
 *(FSymTab)
                0x000000008002a8dc                __fsymtab_end = .
                0x000000008002a8dc                . = ALIGN (0x4)
                0x000000008002a8dc                __vsymtab_start = .
 *(VSymTab)
                0x000000008002a8dc                __vsymtab_end = .
 *(.gnu.linkonce.r.*)

.rela.dyn       0x000000008002a8dc        0x0
 .rela.text._sbrk
                0x000000008002a8dc        0x0 ./hbird_sdk/SoC/hbirdv2/Common/Source/Stubs/close.o
 .rela.sdata.curbrk.0
                0x000000008002a8dc        0x0 ./hbird_sdk/SoC/hbirdv2/Common/Source/Stubs/close.o
 .rela.init     0x000000008002a8dc        0x0 ./hbird_sdk/SoC/hbirdv2/Common/Source/Stubs/close.o
 .rela.text.__libc_fini_array
                0x000000008002a8dc        0x0 ./hbird_sdk/SoC/hbirdv2/Common/Source/Stubs/close.o
 .rela.text.__libc_init_array
                0x000000008002a8dc        0x0 ./hbird_sdk/SoC/hbirdv2/Common/Source/Stubs/close.o
 .rela.text.__register_exitproc
                0x000000008002a8dc        0x0 ./hbird_sdk/SoC/hbirdv2/Common/Source/Stubs/close.o
 .rela.text._vfprintf_r
                0x000000008002a8dc        0x0 ./hbird_sdk/SoC/hbirdv2/Common/Source/Stubs/close.o

.fini
 *(SORT_NONE(.fini))
                0x000000008002a8dc                . = ALIGN (0x4)
                [!provide]                        PROVIDE (__etext = .)
                [!provide]                        PROVIDE (_etext = .)
                [!provide]                        PROVIDE (etext = .)
                0x000000008002a8dc                PROVIDE (_eilm = .)

.preinit_array  0x000000008002a8dc        0x0
                0x000000008002a8dc                PROVIDE (__preinit_array_start = .)
 *(.preinit_array)
                0x000000008002a8dc                PROVIDE (__preinit_array_end = .)

.init_array     0x000000008002a8dc        0x0
                0x000000008002a8dc                PROVIDE (__init_array_start = .)
 *(SORT_BY_INIT_PRIORITY(.init_array.*) SORT_BY_INIT_PRIORITY(.ctors.*))
 *(.init_array EXCLUDE_FILE(*crtend?.o *crtend.o *crtbegin?.o *crtbegin.o) .ctors)
                0x000000008002a8dc                PROVIDE (__init_array_end = .)

.fini_array     0x000000008002a8dc        0x0
                0x000000008002a8dc                PROVIDE (__fini_array_start = .)
 *(SORT_BY_INIT_PRIORITY(.fini_array.*) SORT_BY_INIT_PRIORITY(.dtors.*))
 *(.fini_array EXCLUDE_FILE(*crtend?.o *crtend.o *crtbegin?.o *crtbegin.o) .dtors)
                0x000000008002a8dc                PROVIDE (__fini_array_end = .)

.ctors
 *crtbegin.o(.ctors)
 *crtbegin?.o(.ctors)
 *(EXCLUDE_FILE(*crtend?.o *crtend.o) .ctors)
 *(SORT_BY_NAME(.ctors.*))
 *(.ctors)

.dtors
 *crtbegin.o(.dtors)
 *crtbegin?.o(.dtors)
 *(EXCLUDE_FILE(*crtend?.o *crtend.o) .dtors)
 *(SORT_BY_NAME(.dtors.*))
 *(.dtors)

.lalign         0x000000008002a8dc        0x0
                0x000000008002a8dc                . = ALIGN (0x4)
                0x000000008002a8dc                PROVIDE (_data_lma = .)

.dalign         0x0000000090000000        0x0 load address 0x000000008002a8dc
                0x0000000090000000                . = ALIGN (0x4)
                0x0000000090000000                PROVIDE (_data = .)

.data           0x0000000090000000      0x544 load address 0x000000008002a8dc
 *(.data .data.*)
 .data.PPU_MirrorTable
                0x0000000090000000       0x18 ./application/InfoNES.o
                0x0000000090000000                PPU_MirrorTable
 .data.MapperTable
                0x0000000090000018      0x430 ./application/InfoNES_Mapper.o
                0x0000000090000018                MapperTable
 .data.NesPalette
                0x0000000090000448       0x80 ./application/InfoNES_System.o
                0x0000000090000448                NesPalette
 .data.impure_data
                0x00000000900004c8       0x60 c:/microdownload/nucleistudio/toolchain/gcc/bin/../lib/gcc/riscv-nuclei-elf/10.2.0/../../../../riscv-nuclei-elf/lib/rv32imac/ilp32\libg_nano.a(lib_a-impure.o)
 *(.gnu.linkonce.d.*)
                0x0000000090000528                . = ALIGN (0x8)
                0x0000000090000d28                PROVIDE (__global_pointer$ = (. + 0x800))
 *(.sdata .sdata.* .sdata*)
 .sdata.curbrk.0
                0x0000000090000528        0x4 ./hbird_sdk/SoC/hbirdv2/Common/Source/Stubs/sbrk.o
 .sdata.SystemCoreClock
                0x000000009000052c        0x4 ./hbird_sdk/SoC/hbirdv2/Common/Source/system_hbirdv2.o
                0x000000009000052c                SystemCoreClock
 .sdata.BACK_COLOR
                0x0000000090000530        0x2 ./application/main.o
                0x0000000090000530                BACK_COLOR
 *fill*         0x0000000090000532        0x2 
 .sdata.LCD_P   0x0000000090000534        0x4 ./application/main.o
                0x0000000090000534                LCD_P
 .sdata._impure_ptr
                0x0000000090000538        0x4 c:/microdownload/nucleistudio/toolchain/gcc/bin/../lib/gcc/riscv-nuclei-elf/10.2.0/../../../../riscv-nuclei-elf/lib/rv32imac/ilp32\libg_nano.a(lib_a-impure.o)
                0x0000000090000538                _impure_ptr
 *(.gnu.linkonce.s.*)
                0x0000000090000540                . = ALIGN (0x8)
 *fill*         0x000000009000053c        0x4 
 *(.srodata.cst16)
 *(.srodata.cst8)
 *(.srodata.cst4)
 *(.srodata.cst2)
 *(.srodata .srodata.*)
 .srodata._global_impure_ptr
                0x0000000090000540        0x4 c:/microdownload/nucleistudio/toolchain/gcc/bin/../lib/gcc/riscv-nuclei-elf/10.2.0/../../../../riscv-nuclei-elf/lib/rv32imac/ilp32\libg_nano.a(lib_a-impure.o)
                0x0000000090000540                _global_impure_ptr
                0x0000000090000544                . = ALIGN (0x4)
                0x0000000090000544                PROVIDE (_edata = .)
                [!provide]                        PROVIDE (edata = .)
                [!provide]                        PROVIDE (_fbss = .)
                0x0000000090000544                PROVIDE (__bss_start = .)

.bss            0x0000000090000544    0x39a5c load address 0x000000008002ae20
 *(.sbss*)
 .sbss.ChrBufUpdate
                0x0000000090000544        0x1 ./application/InfoNES.o
                0x0000000090000544                ChrBufUpdate
 *fill*         0x0000000090000545        0x1 
 .sbss.FrameCnt
                0x0000000090000546        0x2 ./application/InfoNES.o
                0x0000000090000546                FrameCnt
 .sbss.FrameIRQ_Enable
                0x0000000090000548        0x1 ./application/InfoNES.o
                0x0000000090000548                FrameIRQ_Enable
 *fill*         0x0000000090000549        0x1 
 .sbss.FrameSkip
                0x000000009000054a        0x2 ./application/InfoNES.o
                0x000000009000054a                FrameSkip
 .sbss.FrameStep
                0x000000009000054c        0x2 ./application/InfoNES.o
                0x000000009000054c                FrameStep
 .sbss.MapperNo
                0x000000009000054e        0x1 ./application/InfoNES.o
                0x000000009000054e                MapperNo
 *fill*         0x000000009000054f        0x1 
 .sbss.PAD1_Bit
                0x0000000090000550        0x4 ./application/InfoNES.o
                0x0000000090000550                PAD1_Bit
 .sbss.PAD1_Latch
                0x0000000090000554        0x4 ./application/InfoNES.o
                0x0000000090000554                PAD1_Latch
 .sbss.PAD2_Bit
                0x0000000090000558        0x4 ./application/InfoNES.o
                0x0000000090000558                PAD2_Bit
 .sbss.PAD2_Latch
                0x000000009000055c        0x4 ./application/InfoNES.o
                0x000000009000055c                PAD2_Latch
 .sbss.PAD_System
                0x0000000090000560        0x4 ./application/InfoNES.o
                0x0000000090000560                PAD_System
 .sbss.PPU_Addr
                0x0000000090000564        0x2 ./application/InfoNES.o
                0x0000000090000564                PPU_Addr
 *fill*         0x0000000090000566        0x2 
 .sbss.PPU_BG_Base
                0x0000000090000568        0x4 ./application/InfoNES.o
                0x0000000090000568                PPU_BG_Base
 .sbss.PPU_Increment
                0x000000009000056c        0x2 ./application/InfoNES.o
                0x000000009000056c                PPU_Increment
 .sbss.PPU_Latch_Flag
                0x000000009000056e        0x1 ./application/InfoNES.o
                0x000000009000056e                PPU_Latch_Flag
 .sbss.PPU_NameTableBank
                0x000000009000056f        0x1 ./application/InfoNES.o
                0x000000009000056f                PPU_NameTableBank
 .sbss.PPU_R0   0x0000000090000570        0x1 ./application/InfoNES.o
                0x0000000090000570                PPU_R0
 .sbss.PPU_R1   0x0000000090000571        0x1 ./application/InfoNES.o
                0x0000000090000571                PPU_R1
 .sbss.PPU_R2   0x0000000090000572        0x1 ./application/InfoNES.o
                0x0000000090000572                PPU_R2
 .sbss.PPU_R3   0x0000000090000573        0x1 ./application/InfoNES.o
                0x0000000090000573                PPU_R3
 .sbss.PPU_R7   0x0000000090000574        0x1 ./application/InfoNES.o
                0x0000000090000574                PPU_R7
 *fill*         0x0000000090000575        0x3 
 .sbss.PPU_SP_Base
                0x0000000090000578        0x4 ./application/InfoNES.o
                0x0000000090000578                PPU_SP_Base
 .sbss.PPU_SP_Height
                0x000000009000057c        0x2 ./application/InfoNES.o
                0x000000009000057c                PPU_SP_Height
 .sbss.PPU_Scanline
                0x000000009000057e        0x2 ./application/InfoNES.o
                0x000000009000057e                PPU_Scanline
 .sbss.PPU_Scr_H
                0x0000000090000580        0x1 ./application/InfoNES.o
                0x0000000090000580                PPU_Scr_H
 .sbss.PPU_Scr_H_Bit
                0x0000000090000581        0x1 ./application/InfoNES.o
                0x0000000090000581                PPU_Scr_H_Bit
 .sbss.PPU_Scr_H_Bit_Next
                0x0000000090000582        0x1 ./application/InfoNES.o
                0x0000000090000582                PPU_Scr_H_Bit_Next
 .sbss.PPU_Scr_H_Byte
                0x0000000090000583        0x1 ./application/InfoNES.o
                0x0000000090000583                PPU_Scr_H_Byte
 .sbss.PPU_Scr_H_Byte_Next
                0x0000000090000584        0x1 ./application/InfoNES.o
                0x0000000090000584                PPU_Scr_H_Byte_Next
 .sbss.PPU_Scr_H_Next
                0x0000000090000585        0x1 ./application/InfoNES.o
                0x0000000090000585                PPU_Scr_H_Next
 .sbss.PPU_Scr_V
                0x0000000090000586        0x1 ./application/InfoNES.o
                0x0000000090000586                PPU_Scr_V
 .sbss.PPU_Scr_V_Bit
                0x0000000090000587        0x1 ./application/InfoNES.o
                0x0000000090000587                PPU_Scr_V_Bit
 .sbss.PPU_Scr_V_Bit_Next
                0x0000000090000588        0x1 ./application/InfoNES.o
                0x0000000090000588                PPU_Scr_V_Bit_Next
 .sbss.PPU_Scr_V_Byte
                0x0000000090000589        0x1 ./application/InfoNES.o
                0x0000000090000589                PPU_Scr_V_Byte
 .sbss.PPU_Scr_V_Byte_Next
                0x000000009000058a        0x1 ./application/InfoNES.o
                0x000000009000058a                PPU_Scr_V_Byte_Next
 .sbss.PPU_Scr_V_Next
                0x000000009000058b        0x1 ./application/InfoNES.o
                0x000000009000058b                PPU_Scr_V_Next
 .sbss.PPU_Temp
                0x000000009000058c        0x2 ./application/InfoNES.o
                0x000000009000058c                PPU_Temp
 .sbss.PPU_UpDown_Clip
                0x000000009000058e        0x1 ./application/InfoNES.o
                0x000000009000058e                PPU_UpDown_Clip
 *fill*         0x000000009000058f        0x1 
 .sbss.ROM      0x0000000090000590        0x4 ./application/InfoNES.o
                0x0000000090000590                ROM
 .sbss.ROMBANK0
                0x0000000090000594        0x4 ./application/InfoNES.o
                0x0000000090000594                ROMBANK0
 .sbss.ROMBANK1
                0x0000000090000598        0x4 ./application/InfoNES.o
                0x0000000090000598                ROMBANK1
 .sbss.ROMBANK2
                0x000000009000059c        0x4 ./application/InfoNES.o
                0x000000009000059c                ROMBANK2
 .sbss.ROMBANK3
                0x00000000900005a0        0x4 ./application/InfoNES.o
                0x00000000900005a0                ROMBANK3
 .sbss.ROM_FourScr
                0x00000000900005a4        0x1 ./application/InfoNES.o
                0x00000000900005a4                ROM_FourScr
 .sbss.ROM_Mirroring
                0x00000000900005a5        0x1 ./application/InfoNES.o
                0x00000000900005a5                ROM_Mirroring
 .sbss.ROM_SRAM
                0x00000000900005a6        0x1 ./application/InfoNES.o
                0x00000000900005a6                ROM_SRAM
 .sbss.ROM_Trainer
                0x00000000900005a7        0x1 ./application/InfoNES.o
                0x00000000900005a7                ROM_Trainer
 .sbss.SRAMBANK
                0x00000000900005a8        0x4 ./application/InfoNES.o
                0x00000000900005a8                SRAMBANK
 .sbss.SpriteJustHit
                0x00000000900005ac        0x4 ./application/InfoNES.o
                0x00000000900005ac                SpriteJustHit
 .sbss.VROM     0x00000000900005b0        0x4 ./application/InfoNES.o
                0x00000000900005b0                VROM
 .sbss.byVramWriteEnable
                0x00000000900005b4        0x1 ./application/InfoNES.o
                0x00000000900005b4                byVramWriteEnable
 .sbss.Map100_Chr0
                0x00000000900005b5        0x1 ./application/InfoNES_Mapper.o
                0x00000000900005b5                Map100_Chr0
 .sbss.Map100_Chr1
                0x00000000900005b6        0x1 ./application/InfoNES_Mapper.o
                0x00000000900005b6                Map100_Chr1
 .sbss.Map100_Chr2
                0x00000000900005b7        0x1 ./application/InfoNES_Mapper.o
                0x00000000900005b7                Map100_Chr2
 .sbss.Map100_Chr3
                0x00000000900005b8        0x1 ./application/InfoNES_Mapper.o
                0x00000000900005b8                Map100_Chr3
 .sbss.Map100_Chr4
                0x00000000900005b9        0x1 ./application/InfoNES_Mapper.o
                0x00000000900005b9                Map100_Chr4
 .sbss.Map100_Chr5
                0x00000000900005ba        0x1 ./application/InfoNES_Mapper.o
                0x00000000900005ba                Map100_Chr5
 .sbss.Map100_Chr6
                0x00000000900005bb        0x1 ./application/InfoNES_Mapper.o
                0x00000000900005bb                Map100_Chr6
 .sbss.Map100_Chr7
                0x00000000900005bc        0x1 ./application/InfoNES_Mapper.o
                0x00000000900005bc                Map100_Chr7
 .sbss.Map100_IRQ_Cnt
                0x00000000900005bd        0x1 ./application/InfoNES_Mapper.o
                0x00000000900005bd                Map100_IRQ_Cnt
 .sbss.Map100_IRQ_Enable
                0x00000000900005be        0x1 ./application/InfoNES_Mapper.o
                0x00000000900005be                Map100_IRQ_Enable
 .sbss.Map100_IRQ_Latch
                0x00000000900005bf        0x1 ./application/InfoNES_Mapper.o
                0x00000000900005bf                Map100_IRQ_Latch
 .sbss.Map100_Prg0
                0x00000000900005c0        0x1 ./application/InfoNES_Mapper.o
                0x00000000900005c0                Map100_Prg0
 .sbss.Map100_Prg1
                0x00000000900005c1        0x1 ./application/InfoNES_Mapper.o
                0x00000000900005c1                Map100_Prg1
 .sbss.Map100_Prg2
                0x00000000900005c2        0x1 ./application/InfoNES_Mapper.o
                0x00000000900005c2                Map100_Prg2
 .sbss.Map100_Prg3
                0x00000000900005c3        0x1 ./application/InfoNES_Mapper.o
                0x00000000900005c3                Map100_Prg3
 .sbss.Map100_Reg
                0x00000000900005c4        0x8 ./application/InfoNES_Mapper.o
                0x00000000900005c4                Map100_Reg
 .sbss.Map105_Bits
                0x00000000900005cc        0x1 ./application/InfoNES_Mapper.o
                0x00000000900005cc                Map105_Bits
 *fill*         0x00000000900005cd        0x3 
 .sbss.Map105_IRQ_Counter
                0x00000000900005d0        0x4 ./application/InfoNES_Mapper.o
                0x00000000900005d0                Map105_IRQ_Counter
 .sbss.Map105_IRQ_Enable
                0x00000000900005d4        0x1 ./application/InfoNES_Mapper.o
                0x00000000900005d4                Map105_IRQ_Enable
 .sbss.Map105_Init_State
                0x00000000900005d5        0x1 ./application/InfoNES_Mapper.o
                0x00000000900005d5                Map105_Init_State
 *fill*         0x00000000900005d6        0x2 
 .sbss.Map105_Reg
                0x00000000900005d8        0x4 ./application/InfoNES_Mapper.o
                0x00000000900005d8                Map105_Reg
 .sbss.Map105_Write_Count
                0x00000000900005dc        0x1 ./application/InfoNES_Mapper.o
                0x00000000900005dc                Map105_Write_Count
 .sbss.Map109_Chr0
                0x00000000900005dd        0x1 ./application/InfoNES_Mapper.o
                0x00000000900005dd                Map109_Chr0
 .sbss.Map109_Chr1
                0x00000000900005de        0x1 ./application/InfoNES_Mapper.o
                0x00000000900005de                Map109_Chr1
 .sbss.Map109_Chr2
                0x00000000900005df        0x1 ./application/InfoNES_Mapper.o
                0x00000000900005df                Map109_Chr2
 .sbss.Map109_Chr3
                0x00000000900005e0        0x1 ./application/InfoNES_Mapper.o
                0x00000000900005e0                Map109_Chr3
 .sbss.Map109_Chrmode0
                0x00000000900005e1        0x1 ./application/InfoNES_Mapper.o
                0x00000000900005e1                Map109_Chrmode0
 .sbss.Map109_Chrmode1
                0x00000000900005e2        0x1 ./application/InfoNES_Mapper.o
                0x00000000900005e2                Map109_Chrmode1
 .sbss.Map109_Reg
                0x00000000900005e3        0x1 ./application/InfoNES_Mapper.o
                0x00000000900005e3                Map109_Reg
 .sbss.Map110_Reg0
                0x00000000900005e4        0x1 ./application/InfoNES_Mapper.o
                0x00000000900005e4                Map110_Reg0
 .sbss.Map110_Reg1
                0x00000000900005e5        0x1 ./application/InfoNES_Mapper.o
                0x00000000900005e5                Map110_Reg1
 *fill*         0x00000000900005e6        0x2 
 .sbss.Map112_Chr01
                0x00000000900005e8        0x4 ./application/InfoNES_Mapper.o
                0x00000000900005e8                Map112_Chr01
 .sbss.Map112_Chr23
                0x00000000900005ec        0x4 ./application/InfoNES_Mapper.o
                0x00000000900005ec                Map112_Chr23
 .sbss.Map112_Chr4
                0x00000000900005f0        0x4 ./application/InfoNES_Mapper.o
                0x00000000900005f0                Map112_Chr4
 .sbss.Map112_Chr5
                0x00000000900005f4        0x4 ./application/InfoNES_Mapper.o
                0x00000000900005f4                Map112_Chr5
 .sbss.Map112_Chr6
                0x00000000900005f8        0x4 ./application/InfoNES_Mapper.o
                0x00000000900005f8                Map112_Chr6
 .sbss.Map112_Chr7
                0x00000000900005fc        0x4 ./application/InfoNES_Mapper.o
                0x00000000900005fc                Map112_Chr7
 .sbss.Map112_IRQ_Cnt
                0x0000000090000600        0x1 ./application/InfoNES_Mapper.o
                0x0000000090000600                Map112_IRQ_Cnt
 .sbss.Map112_IRQ_Enable
                0x0000000090000601        0x1 ./application/InfoNES_Mapper.o
                0x0000000090000601                Map112_IRQ_Enable
 .sbss.Map112_IRQ_Latch
                0x0000000090000602        0x1 ./application/InfoNES_Mapper.o
                0x0000000090000602                Map112_IRQ_Latch
 *fill*         0x0000000090000603        0x1 
 .sbss.Map112_Prg0
                0x0000000090000604        0x4 ./application/InfoNES_Mapper.o
                0x0000000090000604                Map112_Prg0
 .sbss.Map112_Prg1
                0x0000000090000608        0x4 ./application/InfoNES_Mapper.o
                0x0000000090000608                Map112_Prg1
 .sbss.Map112_Regs
                0x000000009000060c        0x8 ./application/InfoNES_Mapper.o
                0x000000009000060c                Map112_Regs
 .sbss.Map114_Chr01
                0x0000000090000614        0x4 ./application/InfoNES_Mapper.o
                0x0000000090000614                Map114_Chr01
 .sbss.Map114_Chr23
                0x0000000090000618        0x4 ./application/InfoNES_Mapper.o
                0x0000000090000618                Map114_Chr23
 .sbss.Map114_Chr4
                0x000000009000061c        0x4 ./application/InfoNES_Mapper.o
                0x000000009000061c                Map114_Chr4
 .sbss.Map114_Chr5
                0x0000000090000620        0x4 ./application/InfoNES_Mapper.o
                0x0000000090000620                Map114_Chr5
 .sbss.Map114_Chr6
                0x0000000090000624        0x4 ./application/InfoNES_Mapper.o
                0x0000000090000624                Map114_Chr6
 .sbss.Map114_Chr7
                0x0000000090000628        0x4 ./application/InfoNES_Mapper.o
                0x0000000090000628                Map114_Chr7
 .sbss.Map114_IRQ_Cnt
                0x000000009000062c        0x1 ./application/InfoNES_Mapper.o
                0x000000009000062c                Map114_IRQ_Cnt
 .sbss.Map114_IRQ_Enable
                0x000000009000062d        0x1 ./application/InfoNES_Mapper.o
                0x000000009000062d                Map114_IRQ_Enable
 .sbss.Map114_IRQ_Latch
                0x000000009000062e        0x1 ./application/InfoNES_Mapper.o
                0x000000009000062e                Map114_IRQ_Latch
 *fill*         0x000000009000062f        0x1 
 .sbss.Map114_Prg0
                0x0000000090000630        0x4 ./application/InfoNES_Mapper.o
                0x0000000090000630                Map114_Prg0
 .sbss.Map114_Prg1
                0x0000000090000634        0x4 ./application/InfoNES_Mapper.o
                0x0000000090000634                Map114_Prg1
 .sbss.Map114_Regs
                0x0000000090000638        0x8 ./application/InfoNES_Mapper.o
                0x0000000090000638                Map114_Regs
 .sbss.Map115_Chr0
                0x0000000090000640        0x1 ./application/InfoNES_Mapper.o
                0x0000000090000640                Map115_Chr0
 .sbss.Map115_Chr1
                0x0000000090000641        0x1 ./application/InfoNES_Mapper.o
                0x0000000090000641                Map115_Chr1
 .sbss.Map115_Chr2
                0x0000000090000642        0x1 ./application/InfoNES_Mapper.o
                0x0000000090000642                Map115_Chr2
 .sbss.Map115_Chr3
                0x0000000090000643        0x1 ./application/InfoNES_Mapper.o
                0x0000000090000643                Map115_Chr3
 .sbss.Map115_Chr4
                0x0000000090000644        0x1 ./application/InfoNES_Mapper.o
                0x0000000090000644                Map115_Chr4
 .sbss.Map115_Chr5
                0x0000000090000645        0x1 ./application/InfoNES_Mapper.o
                0x0000000090000645                Map115_Chr5
 .sbss.Map115_Chr6
                0x0000000090000646        0x1 ./application/InfoNES_Mapper.o
                0x0000000090000646                Map115_Chr6
 .sbss.Map115_Chr7
                0x0000000090000647        0x1 ./application/InfoNES_Mapper.o
                0x0000000090000647                Map115_Chr7
 .sbss.Map115_ExChrSwitch
                0x0000000090000648        0x1 ./application/InfoNES_Mapper.o
                0x0000000090000648                Map115_ExChrSwitch
 .sbss.Map115_ExPrgSwitch
                0x0000000090000649        0x1 ./application/InfoNES_Mapper.o
                0x0000000090000649                Map115_ExPrgSwitch
 .sbss.Map115_IRQ_Counter
                0x000000009000064a        0x1 ./application/InfoNES_Mapper.o
                0x000000009000064a                Map115_IRQ_Counter
 .sbss.Map115_IRQ_Enable
                0x000000009000064b        0x1 ./application/InfoNES_Mapper.o
                0x000000009000064b                Map115_IRQ_Enable
 .sbss.Map115_IRQ_Latch
                0x000000009000064c        0x1 ./application/InfoNES_Mapper.o
                0x000000009000064c                Map115_IRQ_Latch
 .sbss.Map115_Prg0
                0x000000009000064d        0x1 ./application/InfoNES_Mapper.o
                0x000000009000064d                Map115_Prg0
 .sbss.Map115_Prg0L
                0x000000009000064e        0x1 ./application/InfoNES_Mapper.o
                0x000000009000064e                Map115_Prg0L
 .sbss.Map115_Prg1
                0x000000009000064f        0x1 ./application/InfoNES_Mapper.o
                0x000000009000064f                Map115_Prg1
 .sbss.Map115_Prg1L
                0x0000000090000650        0x1 ./application/InfoNES_Mapper.o
                0x0000000090000650                Map115_Prg1L
 .sbss.Map115_Prg2
                0x0000000090000651        0x1 ./application/InfoNES_Mapper.o
                0x0000000090000651                Map115_Prg2
 .sbss.Map115_Prg3
                0x0000000090000652        0x1 ./application/InfoNES_Mapper.o
                0x0000000090000652                Map115_Prg3
 *fill*         0x0000000090000653        0x1 
 .sbss.Map115_Reg
                0x0000000090000654        0x8 ./application/InfoNES_Mapper.o
                0x0000000090000654                Map115_Reg
 .sbss.Map116_Chr0
                0x000000009000065c        0x1 ./application/InfoNES_Mapper.o
                0x000000009000065c                Map116_Chr0
 .sbss.Map116_Chr1
                0x000000009000065d        0x1 ./application/InfoNES_Mapper.o
                0x000000009000065d                Map116_Chr1
 .sbss.Map116_Chr2
                0x000000009000065e        0x1 ./application/InfoNES_Mapper.o
                0x000000009000065e                Map116_Chr2
 .sbss.Map116_Chr3
                0x000000009000065f        0x1 ./application/InfoNES_Mapper.o
                0x000000009000065f                Map116_Chr3
 .sbss.Map116_Chr4
                0x0000000090000660        0x1 ./application/InfoNES_Mapper.o
                0x0000000090000660                Map116_Chr4
 .sbss.Map116_Chr5
                0x0000000090000661        0x1 ./application/InfoNES_Mapper.o
                0x0000000090000661                Map116_Chr5
 .sbss.Map116_Chr6
                0x0000000090000662        0x1 ./application/InfoNES_Mapper.o
                0x0000000090000662                Map116_Chr6
 .sbss.Map116_Chr7
                0x0000000090000663        0x1 ./application/InfoNES_Mapper.o
                0x0000000090000663                Map116_Chr7
 .sbss.Map116_ExChrSwitch
                0x0000000090000664        0x1 ./application/InfoNES_Mapper.o
                0x0000000090000664                Map116_ExChrSwitch
 .sbss.Map116_ExPrgSwitch
                0x0000000090000665        0x1 ./application/InfoNES_Mapper.o
                0x0000000090000665                Map116_ExPrgSwitch
 .sbss.Map116_IRQ_Counter
                0x0000000090000666        0x1 ./application/InfoNES_Mapper.o
                0x0000000090000666                Map116_IRQ_Counter
 .sbss.Map116_IRQ_Enable
                0x0000000090000667        0x1 ./application/InfoNES_Mapper.o
                0x0000000090000667                Map116_IRQ_Enable
 .sbss.Map116_IRQ_Latch
                0x0000000090000668        0x1 ./application/InfoNES_Mapper.o
                0x0000000090000668                Map116_IRQ_Latch
 .sbss.Map116_Prg0
                0x0000000090000669        0x1 ./application/InfoNES_Mapper.o
                0x0000000090000669                Map116_Prg0
 .sbss.Map116_Prg0L
                0x000000009000066a        0x1 ./application/InfoNES_Mapper.o
                0x000000009000066a                Map116_Prg0L
 .sbss.Map116_Prg1
                0x000000009000066b        0x1 ./application/InfoNES_Mapper.o
                0x000000009000066b                Map116_Prg1
 .sbss.Map116_Prg1L
                0x000000009000066c        0x1 ./application/InfoNES_Mapper.o
                0x000000009000066c                Map116_Prg1L
 .sbss.Map116_Prg2
                0x000000009000066d        0x1 ./application/InfoNES_Mapper.o
                0x000000009000066d                Map116_Prg2
 .sbss.Map116_Prg3
                0x000000009000066e        0x1 ./application/InfoNES_Mapper.o
                0x000000009000066e                Map116_Prg3
 *fill*         0x000000009000066f        0x1 
 .sbss.Map116_Reg
                0x0000000090000670        0x8 ./application/InfoNES_Mapper.o
                0x0000000090000670                Map116_Reg
 .sbss.Map117_IRQ_Enable1
                0x0000000090000678        0x1 ./application/InfoNES_Mapper.o
                0x0000000090000678                Map117_IRQ_Enable1
 .sbss.Map117_IRQ_Enable2
                0x0000000090000679        0x1 ./application/InfoNES_Mapper.o
                0x0000000090000679                Map117_IRQ_Enable2
 .sbss.Map117_IRQ_Line
                0x000000009000067a        0x1 ./application/InfoNES_Mapper.o
                0x000000009000067a                Map117_IRQ_Line
 *fill*         0x000000009000067b        0x1 
 .sbss.Map118_Chr0
                0x000000009000067c        0x4 ./application/InfoNES_Mapper.o
                0x000000009000067c                Map118_Chr0
 .sbss.Map118_Chr1
                0x0000000090000680        0x4 ./application/InfoNES_Mapper.o
                0x0000000090000680                Map118_Chr1
 .sbss.Map118_Chr2
                0x0000000090000684        0x4 ./application/InfoNES_Mapper.o
                0x0000000090000684                Map118_Chr2
 .sbss.Map118_Chr3
                0x0000000090000688        0x4 ./application/InfoNES_Mapper.o
                0x0000000090000688                Map118_Chr3
 .sbss.Map118_Chr4
                0x000000009000068c        0x4 ./application/InfoNES_Mapper.o
                0x000000009000068c                Map118_Chr4
 .sbss.Map118_Chr5
                0x0000000090000690        0x4 ./application/InfoNES_Mapper.o
                0x0000000090000690                Map118_Chr5
 .sbss.Map118_Chr6
                0x0000000090000694        0x4 ./application/InfoNES_Mapper.o
                0x0000000090000694                Map118_Chr6
 .sbss.Map118_Chr7
                0x0000000090000698        0x4 ./application/InfoNES_Mapper.o
                0x0000000090000698                Map118_Chr7
 .sbss.Map118_IRQ_Cnt
                0x000000009000069c        0x1 ./application/InfoNES_Mapper.o
                0x000000009000069c                Map118_IRQ_Cnt
 .sbss.Map118_IRQ_Enable
                0x000000009000069d        0x1 ./application/InfoNES_Mapper.o
                0x000000009000069d                Map118_IRQ_Enable
 .sbss.Map118_IRQ_Latch
                0x000000009000069e        0x1 ./application/InfoNES_Mapper.o
                0x000000009000069e                Map118_IRQ_Latch
 *fill*         0x000000009000069f        0x1 
 .sbss.Map118_Prg0
                0x00000000900006a0        0x4 ./application/InfoNES_Mapper.o
                0x00000000900006a0                Map118_Prg0
 .sbss.Map118_Prg1
                0x00000000900006a4        0x4 ./application/InfoNES_Mapper.o
                0x00000000900006a4                Map118_Prg1
 .sbss.Map118_Regs
                0x00000000900006a8        0x8 ./application/InfoNES_Mapper.o
                0x00000000900006a8                Map118_Regs
 .sbss.Map119_Chr01
                0x00000000900006b0        0x1 ./application/InfoNES_Mapper.o
                0x00000000900006b0                Map119_Chr01
 .sbss.Map119_Chr23
                0x00000000900006b1        0x1 ./application/InfoNES_Mapper.o
                0x00000000900006b1                Map119_Chr23
 .sbss.Map119_Chr4
                0x00000000900006b2        0x1 ./application/InfoNES_Mapper.o
                0x00000000900006b2                Map119_Chr4
 .sbss.Map119_Chr5
                0x00000000900006b3        0x1 ./application/InfoNES_Mapper.o
                0x00000000900006b3                Map119_Chr5
 .sbss.Map119_Chr6
                0x00000000900006b4        0x1 ./application/InfoNES_Mapper.o
                0x00000000900006b4                Map119_Chr6
 .sbss.Map119_Chr7
                0x00000000900006b5        0x1 ./application/InfoNES_Mapper.o
                0x00000000900006b5                Map119_Chr7
 .sbss.Map119_IRQ_Counter
                0x00000000900006b6        0x1 ./application/InfoNES_Mapper.o
                0x00000000900006b6                Map119_IRQ_Counter
 .sbss.Map119_IRQ_Enable
                0x00000000900006b7        0x1 ./application/InfoNES_Mapper.o
                0x00000000900006b7                Map119_IRQ_Enable
 .sbss.Map119_IRQ_Latch
                0x00000000900006b8        0x1 ./application/InfoNES_Mapper.o
                0x00000000900006b8                Map119_IRQ_Latch
 .sbss.Map119_Prg0
                0x00000000900006b9        0x1 ./application/InfoNES_Mapper.o
                0x00000000900006b9                Map119_Prg0
 .sbss.Map119_Prg1
                0x00000000900006ba        0x1 ./application/InfoNES_Mapper.o
                0x00000000900006ba                Map119_Prg1
 *fill*         0x00000000900006bb        0x1 
 .sbss.Map119_Reg
                0x00000000900006bc        0x8 ./application/InfoNES_Mapper.o
                0x00000000900006bc                Map119_Reg
 .sbss.Map119_WeSram
                0x00000000900006c4        0x1 ./application/InfoNES_Mapper.o
                0x00000000900006c4                Map119_WeSram
 .sbss.Map134_Chr
                0x00000000900006c5        0x1 ./application/InfoNES_Mapper.o
                0x00000000900006c5                Map134_Chr
 .sbss.Map134_Cmd
                0x00000000900006c6        0x1 ./application/InfoNES_Mapper.o
                0x00000000900006c6                Map134_Cmd
 .sbss.Map134_Prg
                0x00000000900006c7        0x1 ./application/InfoNES_Mapper.o
                0x00000000900006c7                Map134_Prg
 .sbss.Map135_Chr0h
                0x00000000900006c8        0x1 ./application/InfoNES_Mapper.o
                0x00000000900006c8                Map135_Chr0h
 .sbss.Map135_Chr0l
                0x00000000900006c9        0x1 ./application/InfoNES_Mapper.o
                0x00000000900006c9                Map135_Chr0l
 .sbss.Map135_Chr1h
                0x00000000900006ca        0x1 ./application/InfoNES_Mapper.o
                0x00000000900006ca                Map135_Chr1h
 .sbss.Map135_Chr1l
                0x00000000900006cb        0x1 ./application/InfoNES_Mapper.o
                0x00000000900006cb                Map135_Chr1l
 .sbss.Map135_Chrch
                0x00000000900006cc        0x1 ./application/InfoNES_Mapper.o
                0x00000000900006cc                Map135_Chrch
 .sbss.Map135_Cmd
                0x00000000900006cd        0x1 ./application/InfoNES_Mapper.o
                0x00000000900006cd                Map135_Cmd
 .sbss.Map160_IRQ_Cnt
                0x00000000900006ce        0x1 ./application/InfoNES_Mapper.o
                0x00000000900006ce                Map160_IRQ_Cnt
 .sbss.Map160_IRQ_Enable
                0x00000000900006cf        0x1 ./application/InfoNES_Mapper.o
                0x00000000900006cf                Map160_IRQ_Enable
 .sbss.Map160_IRQ_Latch
                0x00000000900006d0        0x1 ./application/InfoNES_Mapper.o
                0x00000000900006d0                Map160_IRQ_Latch
 .sbss.Map160_Refresh_Type
                0x00000000900006d1        0x1 ./application/InfoNES_Mapper.o
                0x00000000900006d1                Map160_Refresh_Type
 *fill*         0x00000000900006d2        0x2 
 .sbss.Map16_IRQ_Cnt
                0x00000000900006d4        0x4 ./application/InfoNES_Mapper.o
                0x00000000900006d4                Map16_IRQ_Cnt
 .sbss.Map16_IRQ_Enable
                0x00000000900006d8        0x1 ./application/InfoNES_Mapper.o
                0x00000000900006d8                Map16_IRQ_Enable
 *fill*         0x00000000900006d9        0x3 
 .sbss.Map16_IRQ_Latch
                0x00000000900006dc        0x4 ./application/InfoNES_Mapper.o
                0x00000000900006dc                Map16_IRQ_Latch
 .sbss.Map16_Regs
                0x00000000900006e0        0x3 ./application/InfoNES_Mapper.o
                0x00000000900006e0                Map16_Regs
 *fill*         0x00000000900006e3        0x1 
 .sbss.Map17_IRQ_Cnt
                0x00000000900006e4        0x4 ./application/InfoNES_Mapper.o
                0x00000000900006e4                Map17_IRQ_Cnt
 .sbss.Map17_IRQ_Enable
                0x00000000900006e8        0x1 ./application/InfoNES_Mapper.o
                0x00000000900006e8                Map17_IRQ_Enable
 *fill*         0x00000000900006e9        0x3 
 .sbss.Map17_IRQ_Latch
                0x00000000900006ec        0x4 ./application/InfoNES_Mapper.o
                0x00000000900006ec                Map17_IRQ_Latch
 .sbss.Map182_IRQ_Cnt
                0x00000000900006f0        0x1 ./application/InfoNES_Mapper.o
                0x00000000900006f0                Map182_IRQ_Cnt
 .sbss.Map182_IRQ_Enable
                0x00000000900006f1        0x1 ./application/InfoNES_Mapper.o
                0x00000000900006f1                Map182_IRQ_Enable
 *fill*         0x00000000900006f2        0x2 
 .sbss.Map182_Regs
                0x00000000900006f4        0x1 ./application/InfoNES_Mapper.o
                0x00000000900006f4                Map182_Regs
 *fill*         0x00000000900006f5        0x3 
 .sbss.Map183_IRQ_Counter
                0x00000000900006f8        0x4 ./application/InfoNES_Mapper.o
                0x00000000900006f8                Map183_IRQ_Counter
 .sbss.Map183_IRQ_Enable
                0x00000000900006fc        0x1 ./application/InfoNES_Mapper.o
                0x00000000900006fc                Map183_IRQ_Enable
 *fill*         0x00000000900006fd        0x3 
 .sbss.Map183_Reg
                0x0000000090000700        0x8 ./application/InfoNES_Mapper.o
                0x0000000090000700                Map183_Reg
 .sbss.Map187_Bank
                0x0000000090000708        0x8 ./application/InfoNES_Mapper.o
                0x0000000090000708                Map187_Bank
 .sbss.Map187_ChrMode
                0x0000000090000710        0x1 ./application/InfoNES_Mapper.o
                0x0000000090000710                Map187_ChrMode
 .sbss.Map187_ExtEnable
                0x0000000090000711        0x1 ./application/InfoNES_Mapper.o
                0x0000000090000711                Map187_ExtEnable
 .sbss.Map187_ExtMode
                0x0000000090000712        0x1 ./application/InfoNES_Mapper.o
                0x0000000090000712                Map187_ExtMode
 .sbss.Map187_IRQ_Counter
                0x0000000090000713        0x1 ./application/InfoNES_Mapper.o
                0x0000000090000713                Map187_IRQ_Counter
 .sbss.Map187_IRQ_Enable
                0x0000000090000714        0x1 ./application/InfoNES_Mapper.o
                0x0000000090000714                Map187_IRQ_Enable
 .sbss.Map187_IRQ_Latch
                0x0000000090000715        0x1 ./application/InfoNES_Mapper.o
                0x0000000090000715                Map187_IRQ_Latch
 .sbss.Map187_IRQ_Occur
                0x0000000090000716        0x1 ./application/InfoNES_Mapper.o
                0x0000000090000716                Map187_IRQ_Occur
 .sbss.Map187_LastWrite
                0x0000000090000717        0x1 ./application/InfoNES_Mapper.o
                0x0000000090000717                Map187_LastWrite
 .sbss.Map187_Prg
                0x0000000090000718        0x4 ./application/InfoNES_Mapper.o
                0x0000000090000718                Map187_Prg
 .sbss.Map189_IRQ_Cnt
                0x000000009000071c        0x1 ./application/InfoNES_Mapper.o
                0x000000009000071c                Map189_IRQ_Cnt
 .sbss.Map189_IRQ_Enable
                0x000000009000071d        0x1 ./application/InfoNES_Mapper.o
                0x000000009000071d                Map189_IRQ_Enable
 .sbss.Map189_IRQ_Latch
                0x000000009000071e        0x1 ./application/InfoNES_Mapper.o
                0x000000009000071e                Map189_IRQ_Latch
 *fill*         0x000000009000071f        0x1 
 .sbss.Map189_Regs
                0x0000000090000720        0x1 ./application/InfoNES_Mapper.o
                0x0000000090000720                Map189_Regs
 *fill*         0x0000000090000721        0x1 
 .sbss.Map18_IRQ_Cnt
                0x0000000090000722        0x2 ./application/InfoNES_Mapper.o
                0x0000000090000722                Map18_IRQ_Cnt
 .sbss.Map18_IRQ_Enable
                0x0000000090000724        0x1 ./application/InfoNES_Mapper.o
                0x0000000090000724                Map18_IRQ_Enable
 *fill*         0x0000000090000725        0x1 
 .sbss.Map18_IRQ_Latch
                0x0000000090000726        0x2 ./application/InfoNES_Mapper.o
                0x0000000090000726                Map18_IRQ_Latch
 .sbss.Map191_Chr0
                0x0000000090000728        0x1 ./application/InfoNES_Mapper.o
                0x0000000090000728                Map191_Chr0
 .sbss.Map191_Chr1
                0x0000000090000729        0x1 ./application/InfoNES_Mapper.o
                0x0000000090000729                Map191_Chr1
 .sbss.Map191_Chr2
                0x000000009000072a        0x1 ./application/InfoNES_Mapper.o
                0x000000009000072a                Map191_Chr2
 .sbss.Map191_Chr3
                0x000000009000072b        0x1 ./application/InfoNES_Mapper.o
                0x000000009000072b                Map191_Chr3
 .sbss.Map191_Highbank
                0x000000009000072c        0x1 ./application/InfoNES_Mapper.o
                0x000000009000072c                Map191_Highbank
 .sbss.Map191_Prg0
                0x000000009000072d        0x1 ./application/InfoNES_Mapper.o
                0x000000009000072d                Map191_Prg0
 *fill*         0x000000009000072e        0x2 
 .sbss.Map191_Reg
                0x0000000090000730        0x8 ./application/InfoNES_Mapper.o
                0x0000000090000730                Map191_Reg
 .sbss.Map1_256K_base
                0x0000000090000738        0x4 ./application/InfoNES_Mapper.o
                0x0000000090000738                Map1_256K_base
 .sbss.Map1_Cnt
                0x000000009000073c        0x4 ./application/InfoNES_Mapper.o
                0x000000009000073c                Map1_Cnt
 .sbss.Map1_HI1
                0x0000000090000740        0x4 ./application/InfoNES_Mapper.o
                0x0000000090000740                Map1_HI1
 .sbss.Map1_HI2
                0x0000000090000744        0x4 ./application/InfoNES_Mapper.o
                0x0000000090000744                Map1_HI2
 .sbss.Map1_Last_Write_Addr
                0x0000000090000748        0x2 ./application/InfoNES_Mapper.o
                0x0000000090000748                Map1_Last_Write_Addr
 .sbss.Map1_Latch
                0x000000009000074a        0x1 ./application/InfoNES_Mapper.o
                0x000000009000074a                Map1_Latch
 *fill*         0x000000009000074b        0x1 
 .sbss.Map1_Regs
                0x000000009000074c        0x4 ./application/InfoNES_Mapper.o
                0x000000009000074c                Map1_Regs
 .sbss.Map1_Size
                0x0000000090000750        0x4 ./application/InfoNES_Mapper.o
                0x0000000090000750                Map1_Size
 .sbss.Map1_bank1
                0x0000000090000754        0x4 ./application/InfoNES_Mapper.o
                0x0000000090000754                Map1_bank1
 .sbss.Map1_bank2
                0x0000000090000758        0x4 ./application/InfoNES_Mapper.o
                0x0000000090000758                Map1_bank2
 .sbss.Map1_bank3
                0x000000009000075c        0x4 ./application/InfoNES_Mapper.o
                0x000000009000075c                Map1_bank3
 .sbss.Map1_bank4
                0x0000000090000760        0x4 ./application/InfoNES_Mapper.o
                0x0000000090000760                Map1_bank4
 .sbss.Map1_swap
                0x0000000090000764        0x4 ./application/InfoNES_Mapper.o
                0x0000000090000764                Map1_swap
 .sbss.Map21_IRQ_Cnt
                0x0000000090000768        0x1 ./application/InfoNES_Mapper.o
                0x0000000090000768                Map21_IRQ_Cnt
 .sbss.Map21_IRQ_Enable
                0x0000000090000769        0x1 ./application/InfoNES_Mapper.o
                0x0000000090000769                Map21_IRQ_Enable
 .sbss.Map21_IRQ_Latch
                0x000000009000076a        0x1 ./application/InfoNES_Mapper.o
                0x000000009000076a                Map21_IRQ_Latch
 *fill*         0x000000009000076b        0x1 
 .sbss.Map226_Reg
                0x000000009000076c        0x2 ./application/InfoNES_Mapper.o
                0x000000009000076c                Map226_Reg
 .sbss.Map230_RomSw
                0x000000009000076e        0x1 ./application/InfoNES_Mapper.o
                0x000000009000076e                Map230_RomSw
 *fill*         0x000000009000076f        0x1 
 .sbss.Map232_Regs
                0x0000000090000770        0x2 ./application/InfoNES_Mapper.o
                0x0000000090000770                Map232_Regs
 *fill*         0x0000000090000772        0x2 
 .sbss.Map234_Reg
                0x0000000090000774        0x2 ./application/InfoNES_Mapper.o
                0x0000000090000774                Map234_Reg
 .sbss.Map236_Bank
                0x0000000090000776        0x1 ./application/InfoNES_Mapper.o
                0x0000000090000776                Map236_Bank
 .sbss.Map236_Mode
                0x0000000090000777        0x1 ./application/InfoNES_Mapper.o
                0x0000000090000777                Map236_Mode
 .sbss.Map23_IRQ_Cnt
                0x0000000090000778        0x1 ./application/InfoNES_Mapper.o
                0x0000000090000778                Map23_IRQ_Cnt
 .sbss.Map23_IRQ_Enable
                0x0000000090000779        0x1 ./application/InfoNES_Mapper.o
                0x0000000090000779                Map23_IRQ_Enable
 .sbss.Map23_IRQ_Latch
                0x000000009000077a        0x1 ./application/InfoNES_Mapper.o
                0x000000009000077a                Map23_IRQ_Latch
 *fill*         0x000000009000077b        0x1 
 .sbss.Map243_Regs
                0x000000009000077c        0x4 ./application/InfoNES_Mapper.o
                0x000000009000077c                Map243_Regs
 .sbss.Map245_IRQ_Counter
                0x0000000090000780        0x1 ./application/InfoNES_Mapper.o
                0x0000000090000780                Map245_IRQ_Counter
 .sbss.Map245_IRQ_Enable
                0x0000000090000781        0x1 ./application/InfoNES_Mapper.o
                0x0000000090000781                Map245_IRQ_Enable
 .sbss.Map245_IRQ_Latch
                0x0000000090000782        0x1 ./application/InfoNES_Mapper.o
                0x0000000090000782                Map245_IRQ_Latch
 .sbss.Map245_IRQ_Request
                0x0000000090000783        0x1 ./application/InfoNES_Mapper.o
                0x0000000090000783                Map245_IRQ_Request
 .sbss.Map245_Prg0
                0x0000000090000784        0x1 ./application/InfoNES_Mapper.o
                0x0000000090000784                Map245_Prg0
 .sbss.Map245_Prg1
                0x0000000090000785        0x1 ./application/InfoNES_Mapper.o
                0x0000000090000785                Map245_Prg1
 *fill*         0x0000000090000786        0x2 
 .sbss.Map245_Reg
                0x0000000090000788        0x8 ./application/InfoNES_Mapper.o
                0x0000000090000788                Map245_Reg
 .sbss.Map245_WeSram
                0x0000000090000790        0x1 ./application/InfoNES_Mapper.o
                0x0000000090000790                Map245_WeSram
 .sbss.Map248_Chr01
                0x0000000090000791        0x1 ./application/InfoNES_Mapper.o
                0x0000000090000791                Map248_Chr01
 .sbss.Map248_Chr23
                0x0000000090000792        0x1 ./application/InfoNES_Mapper.o
                0x0000000090000792                Map248_Chr23
 .sbss.Map248_Chr4
                0x0000000090000793        0x1 ./application/InfoNES_Mapper.o
                0x0000000090000793                Map248_Chr4
 .sbss.Map248_Chr5
                0x0000000090000794        0x1 ./application/InfoNES_Mapper.o
                0x0000000090000794                Map248_Chr5
 .sbss.Map248_Chr6
                0x0000000090000795        0x1 ./application/InfoNES_Mapper.o
                0x0000000090000795                Map248_Chr6
 .sbss.Map248_Chr7
                0x0000000090000796        0x1 ./application/InfoNES_Mapper.o
                0x0000000090000796                Map248_Chr7
 .sbss.Map248_IRQ_Counter
                0x0000000090000797        0x1 ./application/InfoNES_Mapper.o
                0x0000000090000797                Map248_IRQ_Counter
 .sbss.Map248_IRQ_Enable
                0x0000000090000798        0x1 ./application/InfoNES_Mapper.o
                0x0000000090000798                Map248_IRQ_Enable
 .sbss.Map248_IRQ_Latch
                0x0000000090000799        0x1 ./application/InfoNES_Mapper.o
                0x0000000090000799                Map248_IRQ_Latch
 .sbss.Map248_IRQ_Request
                0x000000009000079a        0x1 ./application/InfoNES_Mapper.o
                0x000000009000079a                Map248_IRQ_Request
 .sbss.Map248_Prg0
                0x000000009000079b        0x1 ./application/InfoNES_Mapper.o
                0x000000009000079b                Map248_Prg0
 .sbss.Map248_Prg1
                0x000000009000079c        0x1 ./application/InfoNES_Mapper.o
                0x000000009000079c                Map248_Prg1
 *fill*         0x000000009000079d        0x3 
 .sbss.Map248_Reg
                0x00000000900007a0        0x8 ./application/InfoNES_Mapper.o
                0x00000000900007a0                Map248_Reg
 .sbss.Map248_WeSram
                0x00000000900007a8        0x1 ./application/InfoNES_Mapper.o
                0x00000000900007a8                Map248_WeSram
 .sbss.Map249_IRQ_Counter
                0x00000000900007a9        0x1 ./application/InfoNES_Mapper.o
                0x00000000900007a9                Map249_IRQ_Counter
 .sbss.Map249_IRQ_Enable
                0x00000000900007aa        0x1 ./application/InfoNES_Mapper.o
                0x00000000900007aa                Map249_IRQ_Enable
 .sbss.Map249_IRQ_Latch
                0x00000000900007ab        0x1 ./application/InfoNES_Mapper.o
                0x00000000900007ab                Map249_IRQ_Latch
 .sbss.Map249_IRQ_Request
                0x00000000900007ac        0x1 ./application/InfoNES_Mapper.o
                0x00000000900007ac                Map249_IRQ_Request
 *fill*         0x00000000900007ad        0x3 
 .sbss.Map249_Reg
                0x00000000900007b0        0x8 ./application/InfoNES_Mapper.o
                0x00000000900007b0                Map249_Reg
 .sbss.Map249_Spdata
                0x00000000900007b8        0x1 ./application/InfoNES_Mapper.o
                0x00000000900007b8                Map249_Spdata
 .sbss.Map24_IRQ_Count
                0x00000000900007b9        0x1 ./application/InfoNES_Mapper.o
                0x00000000900007b9                Map24_IRQ_Count
 .sbss.Map24_IRQ_Latch
                0x00000000900007ba        0x1 ./application/InfoNES_Mapper.o
                0x00000000900007ba                Map24_IRQ_Latch
 .sbss.Map24_IRQ_State
                0x00000000900007bb        0x1 ./application/InfoNES_Mapper.o
                0x00000000900007bb                Map24_IRQ_State
 .sbss.Map251_Breg
                0x00000000900007bc        0x4 ./application/InfoNES_Mapper.o
                0x00000000900007bc                Map251_Breg
 .sbss.Map252_IRQ_Clock
                0x00000000900007c0        0x4 ./application/InfoNES_Mapper.o
                0x00000000900007c0                Map252_IRQ_Clock
 .sbss.Map252_IRQ_Counter
                0x00000000900007c4        0x1 ./application/InfoNES_Mapper.o
                0x00000000900007c4                Map252_IRQ_Counter
 .sbss.Map252_IRQ_Enable
                0x00000000900007c5        0x1 ./application/InfoNES_Mapper.o
                0x00000000900007c5                Map252_IRQ_Enable
 .sbss.Map252_IRQ_Latch
                0x00000000900007c6        0x1 ./application/InfoNES_Mapper.o
                0x00000000900007c6                Map252_IRQ_Latch
 .sbss.Map252_IRQ_Occur
                0x00000000900007c7        0x1 ./application/InfoNES_Mapper.o
                0x00000000900007c7                Map252_IRQ_Occur
 .sbss.Map255_Reg
                0x00000000900007c8        0x4 ./application/InfoNES_Mapper.o
                0x00000000900007c8                Map255_Reg
 .sbss.Map25_Bank_Selector
                0x00000000900007cc        0x1 ./application/InfoNES_Mapper.o
                0x00000000900007cc                Map25_Bank_Selector
 .sbss.Map25_IRQ_Count
                0x00000000900007cd        0x1 ./application/InfoNES_Mapper.o
                0x00000000900007cd                Map25_IRQ_Count
 .sbss.Map25_IRQ_Latch
                0x00000000900007ce        0x1 ./application/InfoNES_Mapper.o
                0x00000000900007ce                Map25_IRQ_Latch
 .sbss.Map25_IRQ_State
                0x00000000900007cf        0x1 ./application/InfoNES_Mapper.o
                0x00000000900007cf                Map25_IRQ_State
 .sbss.Map26_IRQ_Cnt
                0x00000000900007d0        0x1 ./application/InfoNES_Mapper.o
                0x00000000900007d0                Map26_IRQ_Cnt
 .sbss.Map26_IRQ_Enable
                0x00000000900007d1        0x1 ./application/InfoNES_Mapper.o
                0x00000000900007d1                Map26_IRQ_Enable
 .sbss.Map26_IRQ_Latch
                0x00000000900007d2        0x1 ./application/InfoNES_Mapper.o
                0x00000000900007d2                Map26_IRQ_Latch
 .sbss.Map32_Saved
                0x00000000900007d3        0x1 ./application/InfoNES_Mapper.o
                0x00000000900007d3                Map32_Saved
 .sbss.Map33_IRQ_Cnt
                0x00000000900007d4        0x1 ./application/InfoNES_Mapper.o
                0x00000000900007d4                Map33_IRQ_Cnt
 .sbss.Map33_IRQ_Enable
                0x00000000900007d5        0x1 ./application/InfoNES_Mapper.o
                0x00000000900007d5                Map33_IRQ_Enable
 *fill*         0x00000000900007d6        0x2 
 .sbss.Map33_Regs
                0x00000000900007d8        0x8 ./application/InfoNES_Mapper.o
                0x00000000900007d8                Map33_Regs
 .sbss.Map33_Switch
                0x00000000900007e0        0x1 ./application/InfoNES_Mapper.o
                0x00000000900007e0                Map33_Switch
 .sbss.Map40_IRQ_Enable
                0x00000000900007e1        0x1 ./application/InfoNES_Mapper.o
                0x00000000900007e1                Map40_IRQ_Enable
 *fill*         0x00000000900007e2        0x2 
 .sbss.Map40_Line_To_IRQ
                0x00000000900007e4        0x4 ./application/InfoNES_Mapper.o
                0x00000000900007e4                Map40_Line_To_IRQ
 .sbss.Map41_Regs
                0x00000000900007e8        0x2 ./application/InfoNES_Mapper.o
                0x00000000900007e8                Map41_Regs
 .sbss.Map42_IRQ_Cnt
                0x00000000900007ea        0x1 ./application/InfoNES_Mapper.o
                0x00000000900007ea                Map42_IRQ_Cnt
 .sbss.Map42_IRQ_Enable
                0x00000000900007eb        0x1 ./application/InfoNES_Mapper.o
                0x00000000900007eb                Map42_IRQ_Enable
 .sbss.Map43_IRQ_Cnt
                0x00000000900007ec        0x4 ./application/InfoNES_Mapper.o
                0x00000000900007ec                Map43_IRQ_Cnt
 .sbss.Map43_IRQ_Enable
                0x00000000900007f0        0x1 ./application/InfoNES_Mapper.o
                0x00000000900007f0                Map43_IRQ_Enable
 *fill*         0x00000000900007f1        0x3 
 .sbss.Map44_Chr01
                0x00000000900007f4        0x4 ./application/InfoNES_Mapper.o
                0x00000000900007f4                Map44_Chr01
 .sbss.Map44_Chr23
                0x00000000900007f8        0x4 ./application/InfoNES_Mapper.o
                0x00000000900007f8                Map44_Chr23
 .sbss.Map44_Chr4
                0x00000000900007fc        0x4 ./application/InfoNES_Mapper.o
                0x00000000900007fc                Map44_Chr4
 .sbss.Map44_Chr5
                0x0000000090000800        0x4 ./application/InfoNES_Mapper.o
                0x0000000090000800                Map44_Chr5
 .sbss.Map44_Chr6
                0x0000000090000804        0x4 ./application/InfoNES_Mapper.o
                0x0000000090000804                Map44_Chr6
 .sbss.Map44_Chr7
                0x0000000090000808        0x4 ./application/InfoNES_Mapper.o
                0x0000000090000808                Map44_Chr7
 .sbss.Map44_IRQ_Cnt
                0x000000009000080c        0x1 ./application/InfoNES_Mapper.o
                0x000000009000080c                Map44_IRQ_Cnt
 .sbss.Map44_IRQ_Enable
                0x000000009000080d        0x1 ./application/InfoNES_Mapper.o
                0x000000009000080d                Map44_IRQ_Enable
 .sbss.Map44_IRQ_Latch
                0x000000009000080e        0x1 ./application/InfoNES_Mapper.o
                0x000000009000080e                Map44_IRQ_Latch
 *fill*         0x000000009000080f        0x1 
 .sbss.Map44_Prg0
                0x0000000090000810        0x4 ./application/InfoNES_Mapper.o
                0x0000000090000810                Map44_Prg0
 .sbss.Map44_Prg1
                0x0000000090000814        0x4 ./application/InfoNES_Mapper.o
                0x0000000090000814                Map44_Prg1
 .sbss.Map44_Regs
                0x0000000090000818        0x8 ./application/InfoNES_Mapper.o
                0x0000000090000818                Map44_Regs
 .sbss.Map44_Rom_Bank
                0x0000000090000820        0x4 ./application/InfoNES_Mapper.o
                0x0000000090000820                Map44_Rom_Bank
 .sbss.Map45_Chr0
                0x0000000090000824        0x4 ./application/InfoNES_Mapper.o
                0x0000000090000824                Map45_Chr0
 .sbss.Map45_Chr1
                0x0000000090000828        0x4 ./application/InfoNES_Mapper.o
                0x0000000090000828                Map45_Chr1
 .sbss.Map45_Chr2
                0x000000009000082c        0x4 ./application/InfoNES_Mapper.o
                0x000000009000082c                Map45_Chr2
 .sbss.Map45_Chr3
                0x0000000090000830        0x4 ./application/InfoNES_Mapper.o
                0x0000000090000830                Map45_Chr3
 .sbss.Map45_Chr4
                0x0000000090000834        0x4 ./application/InfoNES_Mapper.o
                0x0000000090000834                Map45_Chr4
 .sbss.Map45_Chr5
                0x0000000090000838        0x4 ./application/InfoNES_Mapper.o
                0x0000000090000838                Map45_Chr5
 .sbss.Map45_Chr6
                0x000000009000083c        0x4 ./application/InfoNES_Mapper.o
                0x000000009000083c                Map45_Chr6
 .sbss.Map45_Chr7
                0x0000000090000840        0x4 ./application/InfoNES_Mapper.o
                0x0000000090000840                Map45_Chr7
 .sbss.Map45_IRQ_Cnt
                0x0000000090000844        0x1 ./application/InfoNES_Mapper.o
                0x0000000090000844                Map45_IRQ_Cnt
 .sbss.Map45_IRQ_Enable
                0x0000000090000845        0x1 ./application/InfoNES_Mapper.o
                0x0000000090000845                Map45_IRQ_Enable
 .sbss.Map45_IRQ_Latch
                0x0000000090000846        0x1 ./application/InfoNES_Mapper.o
                0x0000000090000846                Map45_IRQ_Latch
 *fill*         0x0000000090000847        0x1 
 .sbss.Map45_Prg0
                0x0000000090000848        0x4 ./application/InfoNES_Mapper.o
                0x0000000090000848                Map45_Prg0
 .sbss.Map45_Prg1
                0x000000009000084c        0x4 ./application/InfoNES_Mapper.o
                0x000000009000084c                Map45_Prg1
 .sbss.Map45_Prg2
                0x0000000090000850        0x4 ./application/InfoNES_Mapper.o
                0x0000000090000850                Map45_Prg2
 .sbss.Map45_Prg3
                0x0000000090000854        0x4 ./application/InfoNES_Mapper.o
                0x0000000090000854                Map45_Prg3
 .sbss.Map45_Regs
                0x0000000090000858        0x7 ./application/InfoNES_Mapper.o
                0x0000000090000858                Map45_Regs
 *fill*         0x000000009000085f        0x1 
 .sbss.Map46_Regs
                0x0000000090000860        0x4 ./application/InfoNES_Mapper.o
                0x0000000090000860                Map46_Regs
 .sbss.Map47_Chr01
                0x0000000090000864        0x4 ./application/InfoNES_Mapper.o
                0x0000000090000864                Map47_Chr01
 .sbss.Map47_Chr23
                0x0000000090000868        0x4 ./application/InfoNES_Mapper.o
                0x0000000090000868                Map47_Chr23
 .sbss.Map47_Chr4
                0x000000009000086c        0x4 ./application/InfoNES_Mapper.o
                0x000000009000086c                Map47_Chr4
 .sbss.Map47_Chr5
                0x0000000090000870        0x4 ./application/InfoNES_Mapper.o
                0x0000000090000870                Map47_Chr5
 .sbss.Map47_Chr6
                0x0000000090000874        0x4 ./application/InfoNES_Mapper.o
                0x0000000090000874                Map47_Chr6
 .sbss.Map47_Chr7
                0x0000000090000878        0x4 ./application/InfoNES_Mapper.o
                0x0000000090000878                Map47_Chr7
 .sbss.Map47_IRQ_Cnt
                0x000000009000087c        0x1 ./application/InfoNES_Mapper.o
                0x000000009000087c                Map47_IRQ_Cnt
 .sbss.Map47_IRQ_Enable
                0x000000009000087d        0x1 ./application/InfoNES_Mapper.o
                0x000000009000087d                Map47_IRQ_Enable
 .sbss.Map47_IRQ_Latch
                0x000000009000087e        0x1 ./application/InfoNES_Mapper.o
                0x000000009000087e                Map47_IRQ_Latch
 *fill*         0x000000009000087f        0x1 
 .sbss.Map47_Prg0
                0x0000000090000880        0x4 ./application/InfoNES_Mapper.o
                0x0000000090000880                Map47_Prg0
 .sbss.Map47_Prg1
                0x0000000090000884        0x4 ./application/InfoNES_Mapper.o
                0x0000000090000884                Map47_Prg1
 .sbss.Map47_Regs
                0x0000000090000888        0x8 ./application/InfoNES_Mapper.o
                0x0000000090000888                Map47_Regs
 .sbss.Map47_Rom_Bank
                0x0000000090000890        0x4 ./application/InfoNES_Mapper.o
                0x0000000090000890                Map47_Rom_Bank
 .sbss.Map48_IRQ_Cnt
                0x0000000090000894        0x1 ./application/InfoNES_Mapper.o
                0x0000000090000894                Map48_IRQ_Cnt
 .sbss.Map48_IRQ_Enable
                0x0000000090000895        0x1 ./application/InfoNES_Mapper.o
                0x0000000090000895                Map48_IRQ_Enable
 *fill*         0x0000000090000896        0x2 
 .sbss.Map48_Regs
                0x0000000090000898        0x1 ./application/InfoNES_Mapper.o
                0x0000000090000898                Map48_Regs
 *fill*         0x0000000090000899        0x3 
 .sbss.Map49_Chr01
                0x000000009000089c        0x4 ./application/InfoNES_Mapper.o
                0x000000009000089c                Map49_Chr01
 .sbss.Map49_Chr23
                0x00000000900008a0        0x4 ./application/InfoNES_Mapper.o
                0x00000000900008a0                Map49_Chr23
 .sbss.Map49_Chr4
                0x00000000900008a4        0x4 ./application/InfoNES_Mapper.o
                0x00000000900008a4                Map49_Chr4
 .sbss.Map49_Chr5
                0x00000000900008a8        0x4 ./application/InfoNES_Mapper.o
                0x00000000900008a8                Map49_Chr5
 .sbss.Map49_Chr6
                0x00000000900008ac        0x4 ./application/InfoNES_Mapper.o
                0x00000000900008ac                Map49_Chr6
 .sbss.Map49_Chr7
                0x00000000900008b0        0x4 ./application/InfoNES_Mapper.o
                0x00000000900008b0                Map49_Chr7
 .sbss.Map49_IRQ_Cnt
                0x00000000900008b4        0x1 ./application/InfoNES_Mapper.o
                0x00000000900008b4                Map49_IRQ_Cnt
 .sbss.Map49_IRQ_Enable
                0x00000000900008b5        0x1 ./application/InfoNES_Mapper.o
                0x00000000900008b5                Map49_IRQ_Enable
 .sbss.Map49_IRQ_Latch
                0x00000000900008b6        0x1 ./application/InfoNES_Mapper.o
                0x00000000900008b6                Map49_IRQ_Latch
 *fill*         0x00000000900008b7        0x1 
 .sbss.Map49_Prg0
                0x00000000900008b8        0x4 ./application/InfoNES_Mapper.o
                0x00000000900008b8                Map49_Prg0
 .sbss.Map49_Prg1
                0x00000000900008bc        0x4 ./application/InfoNES_Mapper.o
                0x00000000900008bc                Map49_Prg1
 .sbss.Map49_Regs
                0x00000000900008c0        0x3 ./application/InfoNES_Mapper.o
                0x00000000900008c0                Map49_Regs
 *fill*         0x00000000900008c3        0x1 
 .sbss.Map4_Chr01
                0x00000000900008c4        0x4 ./application/InfoNES_Mapper.o
                0x00000000900008c4                Map4_Chr01
 .sbss.Map4_Chr23
                0x00000000900008c8        0x4 ./application/InfoNES_Mapper.o
                0x00000000900008c8                Map4_Chr23
 .sbss.Map4_Chr4
                0x00000000900008cc        0x4 ./application/InfoNES_Mapper.o
                0x00000000900008cc                Map4_Chr4
 .sbss.Map4_Chr5
                0x00000000900008d0        0x4 ./application/InfoNES_Mapper.o
                0x00000000900008d0                Map4_Chr5
 .sbss.Map4_Chr6
                0x00000000900008d4        0x4 ./application/InfoNES_Mapper.o
                0x00000000900008d4                Map4_Chr6
 .sbss.Map4_Chr7
                0x00000000900008d8        0x4 ./application/InfoNES_Mapper.o
                0x00000000900008d8                Map4_Chr7
 .sbss.Map4_IRQ_Cnt
                0x00000000900008dc        0x1 ./application/InfoNES_Mapper.o
                0x00000000900008dc                Map4_IRQ_Cnt
 .sbss.Map4_IRQ_Enable
                0x00000000900008dd        0x1 ./application/InfoNES_Mapper.o
                0x00000000900008dd                Map4_IRQ_Enable
 .sbss.Map4_IRQ_Latch
                0x00000000900008de        0x1 ./application/InfoNES_Mapper.o
                0x00000000900008de                Map4_IRQ_Latch
 .sbss.Map4_IRQ_Present
                0x00000000900008df        0x1 ./application/InfoNES_Mapper.o
                0x00000000900008df                Map4_IRQ_Present
 .sbss.Map4_IRQ_Present_Vbl
                0x00000000900008e0        0x1 ./application/InfoNES_Mapper.o
                0x00000000900008e0                Map4_IRQ_Present_Vbl
 .sbss.Map4_IRQ_Request
                0x00000000900008e1        0x1 ./application/InfoNES_Mapper.o
                0x00000000900008e1                Map4_IRQ_Request
 *fill*         0x00000000900008e2        0x2 
 .sbss.Map4_Prg0
                0x00000000900008e4        0x4 ./application/InfoNES_Mapper.o
                0x00000000900008e4                Map4_Prg0
 .sbss.Map4_Prg1
                0x00000000900008e8        0x4 ./application/InfoNES_Mapper.o
                0x00000000900008e8                Map4_Prg1
 .sbss.Map4_Regs
                0x00000000900008ec        0x8 ./application/InfoNES_Mapper.o
                0x00000000900008ec                Map4_Regs
 .sbss.Map50_IRQ_Enable
                0x00000000900008f4        0x1 ./application/InfoNES_Mapper.o
                0x00000000900008f4                Map50_IRQ_Enable
 *fill*         0x00000000900008f5        0x3 
 .sbss.Map51_Bank
                0x00000000900008f8        0x4 ./application/InfoNES_Mapper.o
                0x00000000900008f8                Map51_Bank
 .sbss.Map51_Mode
                0x00000000900008fc        0x4 ./application/InfoNES_Mapper.o
                0x00000000900008fc                Map51_Mode
 .sbss.Map57_Reg
                0x0000000090000900        0x1 ./application/InfoNES_Mapper.o
                0x0000000090000900                Map57_Reg
 .sbss.Map64_Chr
                0x0000000090000901        0x1 ./application/InfoNES_Mapper.o
                0x0000000090000901                Map64_Chr
 .sbss.Map64_Cmd
                0x0000000090000902        0x1 ./application/InfoNES_Mapper.o
                0x0000000090000902                Map64_Cmd
 .sbss.Map64_Prg
                0x0000000090000903        0x1 ./application/InfoNES_Mapper.o
                0x0000000090000903                Map64_Prg
 .sbss.Map65_IRQ_Cnt
                0x0000000090000904        0x4 ./application/InfoNES_Mapper.o
                0x0000000090000904                Map65_IRQ_Cnt
 .sbss.Map65_IRQ_Enable
                0x0000000090000908        0x1 ./application/InfoNES_Mapper.o
                0x0000000090000908                Map65_IRQ_Enable
 *fill*         0x0000000090000909        0x3 
 .sbss.Map65_IRQ_Latch
                0x000000009000090c        0x4 ./application/InfoNES_Mapper.o
                0x000000009000090c                Map65_IRQ_Latch
 .sbss.Map67_IRQ_Cnt
                0x0000000090000910        0x1 ./application/InfoNES_Mapper.o
                0x0000000090000910                Map67_IRQ_Cnt
 .sbss.Map67_IRQ_Enable
                0x0000000090000911        0x1 ./application/InfoNES_Mapper.o
                0x0000000090000911                Map67_IRQ_Enable
 .sbss.Map67_IRQ_Latch
                0x0000000090000912        0x1 ./application/InfoNES_Mapper.o
                0x0000000090000912                Map67_IRQ_Latch
 *fill*         0x0000000090000913        0x1 
 .sbss.Map68_Regs
                0x0000000090000914        0x4 ./application/InfoNES_Mapper.o
                0x0000000090000914                Map68_Regs
 .sbss.Map69_IRQ_Cnt
                0x0000000090000918        0x4 ./application/InfoNES_Mapper.o
                0x0000000090000918                Map69_IRQ_Cnt
 .sbss.Map69_IRQ_Enable
                0x000000009000091c        0x1 ./application/InfoNES_Mapper.o
                0x000000009000091c                Map69_IRQ_Enable
 *fill*         0x000000009000091d        0x3 
 .sbss.Map69_Regs
                0x0000000090000920        0x1 ./application/InfoNES_Mapper.o
                0x0000000090000920                Map69_Regs
 *fill*         0x0000000090000921        0x3 
 .sbss.Map73_IRQ_Cnt
                0x0000000090000924        0x4 ./application/InfoNES_Mapper.o
                0x0000000090000924                Map73_IRQ_Cnt
 .sbss.Map73_IRQ_Enable
                0x0000000090000928        0x1 ./application/InfoNES_Mapper.o
                0x0000000090000928                Map73_IRQ_Enable
 *fill*         0x0000000090000929        0x3 
 .sbss.Map74_Chr01
                0x000000009000092c        0x4 ./application/InfoNES_Mapper.o
                0x000000009000092c                Map74_Chr01
 .sbss.Map74_Chr23
                0x0000000090000930        0x4 ./application/InfoNES_Mapper.o
                0x0000000090000930                Map74_Chr23
 .sbss.Map74_Chr4
                0x0000000090000934        0x4 ./application/InfoNES_Mapper.o
                0x0000000090000934                Map74_Chr4
 .sbss.Map74_Chr5
                0x0000000090000938        0x4 ./application/InfoNES_Mapper.o
                0x0000000090000938                Map74_Chr5
 .sbss.Map74_Chr6
                0x000000009000093c        0x4 ./application/InfoNES_Mapper.o
                0x000000009000093c                Map74_Chr6
 .sbss.Map74_Chr7
                0x0000000090000940        0x4 ./application/InfoNES_Mapper.o
                0x0000000090000940                Map74_Chr7
 .sbss.Map74_IRQ_Cnt
                0x0000000090000944        0x1 ./application/InfoNES_Mapper.o
                0x0000000090000944                Map74_IRQ_Cnt
 .sbss.Map74_IRQ_Enable
                0x0000000090000945        0x1 ./application/InfoNES_Mapper.o
                0x0000000090000945                Map74_IRQ_Enable
 .sbss.Map74_IRQ_Latch
                0x0000000090000946        0x1 ./application/InfoNES_Mapper.o
                0x0000000090000946                Map74_IRQ_Latch
 .sbss.Map74_IRQ_Present
                0x0000000090000947        0x1 ./application/InfoNES_Mapper.o
                0x0000000090000947                Map74_IRQ_Present
 .sbss.Map74_IRQ_Present_Vbl
                0x0000000090000948        0x1 ./application/InfoNES_Mapper.o
                0x0000000090000948                Map74_IRQ_Present_Vbl
 .sbss.Map74_IRQ_Request
                0x0000000090000949        0x1 ./application/InfoNES_Mapper.o
                0x0000000090000949                Map74_IRQ_Request
 *fill*         0x000000009000094a        0x2 
 .sbss.Map74_Prg0
                0x000000009000094c        0x4 ./application/InfoNES_Mapper.o
                0x000000009000094c                Map74_Prg0
 .sbss.Map74_Prg1
                0x0000000090000950        0x4 ./application/InfoNES_Mapper.o
                0x0000000090000950                Map74_Prg1
 .sbss.Map74_Regs
                0x0000000090000954        0x8 ./application/InfoNES_Mapper.o
                0x0000000090000954                Map74_Regs
 .sbss.Map75_Regs
                0x000000009000095c        0x2 ./application/InfoNES_Mapper.o
                0x000000009000095c                Map75_Regs
 .sbss.Map76_Reg
                0x000000009000095e        0x1 ./application/InfoNES_Mapper.o
                0x000000009000095e                Map76_Reg
 *fill*         0x000000009000095f        0x1 
 .sbss.Map82_Regs
                0x0000000090000960        0x1 ./application/InfoNES_Mapper.o
                0x0000000090000960                Map82_Regs
 *fill*         0x0000000090000961        0x3 
 .sbss.Map83_Chr_Bank
                0x0000000090000964        0x4 ./application/InfoNES_Mapper.o
                0x0000000090000964                Map83_Chr_Bank
 .sbss.Map83_IRQ_Cnt
                0x0000000090000968        0x4 ./application/InfoNES_Mapper.o
                0x0000000090000968                Map83_IRQ_Cnt
 .sbss.Map83_IRQ_Enabled
                0x000000009000096c        0x1 ./application/InfoNES_Mapper.o
                0x000000009000096c                Map83_IRQ_Enabled
 *fill*         0x000000009000096d        0x3 
 .sbss.Map83_Regs
                0x0000000090000970        0x3 ./application/InfoNES_Mapper.o
                0x0000000090000970                Map83_Regs
 *fill*         0x0000000090000973        0x1 
 .sbss.Map88_Regs
                0x0000000090000974        0x1 ./application/InfoNES_Mapper.o
                0x0000000090000974                Map88_Regs
 .sbss.Map90_Chr_Bank_Size
                0x0000000090000975        0x1 ./application/InfoNES_Mapper.o
                0x0000000090000975                Map90_Chr_Bank_Size
 *fill*         0x0000000090000976        0x2 
 .sbss.Map90_Chr_High_Reg
                0x0000000090000978        0x8 ./application/InfoNES_Mapper.o
                0x0000000090000978                Map90_Chr_High_Reg
 .sbss.Map90_Chr_Low_Reg
                0x0000000090000980        0x8 ./application/InfoNES_Mapper.o
                0x0000000090000980                Map90_Chr_Low_Reg
 .sbss.Map90_IRQ_Cnt
                0x0000000090000988        0x1 ./application/InfoNES_Mapper.o
                0x0000000090000988                Map90_IRQ_Cnt
 .sbss.Map90_IRQ_Enable
                0x0000000090000989        0x1 ./application/InfoNES_Mapper.o
                0x0000000090000989                Map90_IRQ_Enable
 .sbss.Map90_IRQ_Latch
                0x000000009000098a        0x1 ./application/InfoNES_Mapper.o
                0x000000009000098a                Map90_IRQ_Latch
 .sbss.Map90_Mirror_Mode
                0x000000009000098b        0x1 ./application/InfoNES_Mapper.o
                0x000000009000098b                Map90_Mirror_Mode
 .sbss.Map90_Mirror_Type
                0x000000009000098c        0x1 ./application/InfoNES_Mapper.o
                0x000000009000098c                Map90_Mirror_Type
 *fill*         0x000000009000098d        0x3 
 .sbss.Map90_Nam_High_Reg
                0x0000000090000990        0x4 ./application/InfoNES_Mapper.o
                0x0000000090000990                Map90_Nam_High_Reg
 .sbss.Map90_Nam_Low_Reg
                0x0000000090000994        0x4 ./application/InfoNES_Mapper.o
                0x0000000090000994                Map90_Nam_Low_Reg
 .sbss.Map90_Prg_Bank_6000
                0x0000000090000998        0x1 ./application/InfoNES_Mapper.o
                0x0000000090000998                Map90_Prg_Bank_6000
 .sbss.Map90_Prg_Bank_E000
                0x0000000090000999        0x1 ./application/InfoNES_Mapper.o
                0x0000000090000999                Map90_Prg_Bank_E000
 .sbss.Map90_Prg_Bank_Size
                0x000000009000099a        0x1 ./application/InfoNES_Mapper.o
                0x000000009000099a                Map90_Prg_Bank_Size
 *fill*         0x000000009000099b        0x1 
 .sbss.Map90_Prg_Reg
                0x000000009000099c        0x4 ./application/InfoNES_Mapper.o
                0x000000009000099c                Map90_Prg_Reg
 .sbss.Map90_Value1
                0x00000000900009a0        0x4 ./application/InfoNES_Mapper.o
                0x00000000900009a0                Map90_Value1
 .sbss.Map90_Value2
                0x00000000900009a4        0x4 ./application/InfoNES_Mapper.o
                0x00000000900009a4                Map90_Value2
 .sbss.Map95_Chr01
                0x00000000900009a8        0x4 ./application/InfoNES_Mapper.o
                0x00000000900009a8                Map95_Chr01
 .sbss.Map95_Chr23
                0x00000000900009ac        0x4 ./application/InfoNES_Mapper.o
                0x00000000900009ac                Map95_Chr23
 .sbss.Map95_Chr4
                0x00000000900009b0        0x4 ./application/InfoNES_Mapper.o
                0x00000000900009b0                Map95_Chr4
 .sbss.Map95_Chr5
                0x00000000900009b4        0x4 ./application/InfoNES_Mapper.o
                0x00000000900009b4                Map95_Chr5
 .sbss.Map95_Chr6
                0x00000000900009b8        0x4 ./application/InfoNES_Mapper.o
                0x00000000900009b8                Map95_Chr6
 .sbss.Map95_Chr7
                0x00000000900009bc        0x4 ./application/InfoNES_Mapper.o
                0x00000000900009bc                Map95_Chr7
 .sbss.Map95_Prg0
                0x00000000900009c0        0x4 ./application/InfoNES_Mapper.o
                0x00000000900009c0                Map95_Prg0
 .sbss.Map95_Prg1
                0x00000000900009c4        0x4 ./application/InfoNES_Mapper.o
                0x00000000900009c4                Map95_Prg1
 .sbss.Map95_Regs
                0x00000000900009c8        0x1 ./application/InfoNES_Mapper.o
                0x00000000900009c8                Map95_Regs
 *fill*         0x00000000900009c9        0x3 
 .sbss.Map96_Reg
                0x00000000900009cc        0x2 ./application/InfoNES_Mapper.o
                0x00000000900009cc                Map96_Reg
 .sbss.Map99_Coin
                0x00000000900009ce        0x1 ./application/InfoNES_Mapper.o
                0x00000000900009ce                Map99_Coin
 *fill*         0x00000000900009cf        0x1 
 .sbss.MapperApu
                0x00000000900009d0        0x4 ./application/InfoNES_Mapper.o
                0x00000000900009d0                MapperApu
 .sbss.MapperHSync
                0x00000000900009d4        0x4 ./application/InfoNES_Mapper.o
                0x00000000900009d4                MapperHSync
 .sbss.MapperInit
                0x00000000900009d8        0x4 ./application/InfoNES_Mapper.o
                0x00000000900009d8                MapperInit
 .sbss.MapperPPU
                0x00000000900009dc        0x4 ./application/InfoNES_Mapper.o
                0x00000000900009dc                MapperPPU
 .sbss.MapperReadApu
                0x00000000900009e0        0x4 ./application/InfoNES_Mapper.o
                0x00000000900009e0                MapperReadApu
 .sbss.MapperRenderScreen
                0x00000000900009e4        0x4 ./application/InfoNES_Mapper.o
                0x00000000900009e4                MapperRenderScreen
 .sbss.MapperSram
                0x00000000900009e8        0x4 ./application/InfoNES_Mapper.o
                0x00000000900009e8                MapperSram
 .sbss.MapperVSync
                0x00000000900009ec        0x4 ./application/InfoNES_Mapper.o
                0x00000000900009ec                MapperVSync
 .sbss.MapperWrite
                0x00000000900009f0        0x4 ./application/InfoNES_Mapper.o
                0x00000000900009f0                MapperWrite
 .sbss.latch1   0x00000000900009f4        0x3 ./application/InfoNES_Mapper.o
                0x00000000900009f4                latch1
 *fill*         0x00000000900009f7        0x1 
 .sbss.latch2   0x00000000900009f8        0x3 ./application/InfoNES_Mapper.o
                0x00000000900009f8                latch2
 *fill*         0x00000000900009fb        0x1 
 .sbss.latch3   0x00000000900009fc        0x3 ./application/InfoNES_Mapper.o
                0x00000000900009fc                latch3
 *fill*         0x00000000900009ff        0x1 
 .sbss.latch4   0x0000000090000a00        0x3 ./application/InfoNES_Mapper.o
                0x0000000090000a00                latch4
 .sbss.A        0x0000000090000a03        0x1 ./application/K6502.o
                0x0000000090000a03                A
 .sbss.F        0x0000000090000a04        0x1 ./application/K6502.o
                0x0000000090000a04                F
 .sbss.IRQ_State
                0x0000000090000a05        0x1 ./application/K6502.o
                0x0000000090000a05                IRQ_State
 .sbss.IRQ_Wiring
                0x0000000090000a06        0x1 ./application/K6502.o
                0x0000000090000a06                IRQ_Wiring
 .sbss.NMI_State
                0x0000000090000a07        0x1 ./application/K6502.o
                0x0000000090000a07                NMI_State
 .sbss.NMI_Wiring
                0x0000000090000a08        0x1 ./application/K6502.o
                0x0000000090000a08                NMI_Wiring
 *fill*         0x0000000090000a09        0x1 
 .sbss.PC       0x0000000090000a0a        0x2 ./application/K6502.o
                0x0000000090000a0a                PC
 .sbss.SP       0x0000000090000a0c        0x1 ./application/K6502.o
                0x0000000090000a0c                SP
 .sbss.X        0x0000000090000a0d        0x1 ./application/K6502.o
                0x0000000090000a0d                X
 .sbss.Y        0x0000000090000a0e        0x1 ./application/K6502.o
                0x0000000090000a0e                Y
 *fill*         0x0000000090000a0f        0x1 
 .sbss.g_wPassedClocks
                0x0000000090000a10        0x2 ./application/K6502.o
                0x0000000090000a10                g_wPassedClocks
 .sbss.POINT_COLOR
                0x0000000090000a12        0x2 ./application/main.o
                0x0000000090000a12                POINT_COLOR
 .sbss.key_data
                0x0000000090000a14        0x1 ./application/main.o
                0x0000000090000a14                key_data
 *fill*         0x0000000090000a15        0x3 
 .sbss.errno    0x0000000090000a18        0x4 c:/microdownload/nucleistudio/toolchain/gcc/bin/../lib/gcc/riscv-nuclei-elf/10.2.0/../../../../riscv-nuclei-elf/lib/rv32imac/ilp32\libg_nano.a(lib_a-reent.o)
                0x0000000090000a18                errno
 .sbss._global_atexit
                0x0000000090000a1c        0x4 c:/microdownload/nucleistudio/toolchain/gcc/bin/../lib/gcc/riscv-nuclei-elf/10.2.0/../../../../riscv-nuclei-elf/lib/rv32imac/ilp32\libg_nano.a(lib_a-__call_atexit.o)
                0x0000000090000a1c                _global_atexit
 .sbss.__malloc_free_list
                0x0000000090000a20        0x4 c:/microdownload/nucleistudio/toolchain/gcc/bin/../lib/gcc/riscv-nuclei-elf/10.2.0/../../../../riscv-nuclei-elf/lib/rv32imac/ilp32\libg_nano.a(lib_a-nano-mallocr.o)
                0x0000000090000a20                __malloc_free_list
 .sbss.__malloc_sbrk_start
                0x0000000090000a24        0x4 c:/microdownload/nucleistudio/toolchain/gcc/bin/../lib/gcc/riscv-nuclei-elf/10.2.0/../../../../riscv-nuclei-elf/lib/rv32imac/ilp32\libg_nano.a(lib_a-nano-mallocr.o)
                0x0000000090000a24                __malloc_sbrk_start
 *(.gnu.linkonce.sb.*)
 *(.bss .bss.*)
 .bss.SystemCoreInterruptHandlers
                0x0000000090000a28       0x28 ./hbird_sdk/SoC/hbirdv2/Common/Source/system_hbirdv2.o
 .bss.SystemExceptionHandlers
                0x0000000090000a50       0x2c ./hbird_sdk/SoC/hbirdv2/Common/Source/system_hbirdv2.o
 .bss.SystemExtInterruptHandlers
                0x0000000090000a7c       0x44 ./hbird_sdk/SoC/hbirdv2/Common/Source/system_hbirdv2.o
 .bss.ChrBuf    0x0000000090000ac0     0x8000 ./application/InfoNES.o
                0x0000000090000ac0                ChrBuf
 .bss.NesHeader
                0x0000000090008ac0       0x10 ./application/InfoNES.o
                0x0000000090008ac0                NesHeader
 .bss.PPUBANK   0x0000000090008ad0       0x40 ./application/InfoNES.o
                0x0000000090008ad0                PPUBANK
 .bss.PPURAM    0x0000000090008b10     0x4000 ./application/InfoNES.o
                0x0000000090008b10                PPURAM
 .bss.PPU_ScanTable
                0x000000009000cb10      0x107 ./application/InfoNES.o
                0x000000009000cb10                PPU_ScanTable
 *fill*         0x000000009000cc17        0x1 
 .bss.PalTable  0x000000009000cc18       0x40 ./application/InfoNES.o
                0x000000009000cc18                PalTable
 .bss.RAM       0x000000009000cc58     0x2000 ./application/InfoNES.o
                0x000000009000cc58                RAM
 .bss.SPRRAM    0x000000009000ec58      0x100 ./application/InfoNES.o
                0x000000009000ec58                SPRRAM
 .bss.SRAM      0x000000009000ed58     0x2000 ./application/InfoNES.o
                0x000000009000ed58                SRAM
 .bss.WorkFrame
                0x0000000090010d58    0x1e000 ./application/InfoNES.o
                0x0000000090010d58                WorkFrame
 .bss._ZZ16InfoNES_SetupChrE11pbyPrevBank
                0x000000009002ed58       0x20 ./application/InfoNES.o
 .bss.DRAM      0x000000009002ed78     0xa000 ./application/InfoNES_Mapper.o
                0x000000009002ed78                DRAM
 .bss.Map185_Dummy_Chr_Rom
                0x0000000090038d78      0x400 ./application/InfoNES_Mapper.o
                0x0000000090038d78                Map185_Dummy_Chr_Rom
 .bss.Map187_Chr
                0x0000000090039178       0x20 ./application/InfoNES_Mapper.o
                0x0000000090039178                Map187_Chr
 .bss.Map18_Regs
                0x0000000090039198        0xb ./application/InfoNES_Mapper.o
                0x0000000090039198                Map18_Regs
 *fill*         0x00000000900391a3        0x1 
 .bss.Map21_Regs
                0x00000000900391a4        0xa ./application/InfoNES_Mapper.o
                0x00000000900391a4                Map21_Regs
 *fill*         0x00000000900391ae        0x2 
 .bss.Map23_Regs
                0x00000000900391b0        0x9 ./application/InfoNES_Mapper.o
                0x00000000900391b0                Map23_Regs
 *fill*         0x00000000900391b9        0x3 
 .bss.Map251_Reg
                0x00000000900391bc        0xb ./application/InfoNES_Mapper.o
                0x00000000900391bc                Map251_Reg
 *fill*         0x00000000900391c7        0x1 
 .bss.Map252_Reg
                0x00000000900391c8        0x9 ./application/InfoNES_Mapper.o
                0x00000000900391c8                Map252_Reg
 *fill*         0x00000000900391d1        0x3 
 .bss.Map25_VBank
                0x00000000900391d4       0x10 ./application/InfoNES_Mapper.o
                0x00000000900391d4                Map25_VBank
 .bss.Map45_C   0x00000000900391e4       0x20 ./application/InfoNES_Mapper.o
                0x00000000900391e4                Map45_C
 .bss.Map45_P   0x0000000090039204       0x10 ./application/InfoNES_Mapper.o
                0x0000000090039204                Map45_P
 .bss.g_ASLTable
                0x0000000090039214      0x200 ./application/K6502.o
                0x0000000090039214                g_ASLTable
 .bss.g_LSRTable
                0x0000000090039414      0x200 ./application/K6502.o
                0x0000000090039414                g_LSRTable
 .bss.g_ROLTable
                0x0000000090039614      0x400 ./application/K6502.o
                0x0000000090039614                g_ROLTable
 .bss.g_RORTable
                0x0000000090039a14      0x400 ./application/K6502.o
                0x0000000090039a14                g_RORTable
 .bss.g_byTestTable
                0x0000000090039e14      0x100 ./application/K6502.o
                0x0000000090039e14                g_byTestTable
 .bss._global_atexit0
                0x0000000090039f14       0x8c c:/microdownload/nucleistudio/toolchain/gcc/bin/../lib/gcc/riscv-nuclei-elf/10.2.0/../../../../riscv-nuclei-elf/lib/rv32imac/ilp32\libg_nano.a(lib_a-__atexit.o)
 *(.gnu.linkonce.b.*)
 *(COMMON)
                0x0000000090039fa0                . = ALIGN (0x4)
                0x0000000090039fa0                . = ALIGN (0x8)
                0x0000000090039fa0                PROVIDE (_end = .)
                [!provide]                        PROVIDE (end = .)

.stack          0x000000009007f800      0x800 load address 0x000000008002ae20
                0x000000009007f800                PROVIDE (_heap_end = .)
                0x0000000000000800                . = __stack_size
 *fill*         0x000000009007f800      0x800 
                0x0000000090080000                PROVIDE (_sp = .)
OUTPUT(nes_test.elf elf32-littleriscv)

.debug_info     0x0000000000000000    0x12812
 .debug_info    0x0000000000000000       0xac ./hbird_sdk/SoC/hbirdv2/Common/Source/Stubs/close.o
 .debug_info    0x00000000000000ac      0x2c8 ./hbird_sdk/SoC/hbirdv2/Common/Source/Stubs/fstat.o
 .debug_info    0x0000000000000374       0xa0 ./hbird_sdk/SoC/hbirdv2/Common/Source/Stubs/isatty.o
 .debug_info    0x0000000000000414       0xbd ./hbird_sdk/SoC/hbirdv2/Common/Source/Stubs/lseek.o
 .debug_info    0x00000000000004d1      0x240 ./hbird_sdk/SoC/hbirdv2/Common/Source/Stubs/read.o
 .debug_info    0x0000000000000711       0xea ./hbird_sdk/SoC/hbirdv2/Common/Source/Stubs/sbrk.o
 .debug_info    0x00000000000007fb      0x2b2 ./hbird_sdk/SoC/hbirdv2/Common/Source/Stubs/write.o
 .debug_info    0x0000000000000aad       0x26 ./hbird_sdk/SoC/hbirdv2/Common/Source/GCC/intexc_hbirdv2.o
 .debug_info    0x0000000000000ad3       0x26 ./hbird_sdk/SoC/hbirdv2/Common/Source/GCC/startup_hbirdv2.o
 .debug_info    0x0000000000000af9      0x386 ./hbird_sdk/SoC/hbirdv2/Common/Source/Drivers/hbirdv2_gpio.o
 .debug_info    0x0000000000000e7f      0x539 ./hbird_sdk/SoC/hbirdv2/Common/Source/Drivers/hbirdv2_uart.o
 .debug_info    0x00000000000013b8      0x32c ./hbird_sdk/SoC/hbirdv2/Common/Source/hbirdv2_common.o
 .debug_info    0x00000000000016e4      0xf76 ./hbird_sdk/SoC/hbirdv2/Common/Source/system_hbirdv2.o
 .debug_info    0x000000000000265a      0xae5 ./application/ILI93xx.o
 .debug_info    0x000000000000313f     0x1049 ./application/InfoNES.o
 .debug_info    0x0000000000004188     0xaf4f ./application/InfoNES_Mapper.o
 .debug_info    0x000000000000f0d7      0x629 ./application/InfoNES_System.o
 .debug_info    0x000000000000f700     0x21e7 ./application/K6502.o
 .debug_info    0x00000000000118e7      0x62d ./application/main.o
 .debug_info    0x0000000000011f14       0x59 ./application/rom.o
 .debug_info    0x0000000000011f6d      0x7c0 c:/microdownload/nucleistudio/toolchain/gcc/bin/../lib/gcc/riscv-nuclei-elf/10.2.0/rv32imac/ilp32\libgcc.a(_udivdi3.o)
 .debug_info    0x000000000001272d       0xe5 c:/microdownload/nucleistudio/toolchain/gcc/bin/../lib/gcc/riscv-nuclei-elf/10.2.0/rv32imac/ilp32\libgcc.a(_clz.o)

.debug_abbrev   0x0000000000000000     0x22a9
 .debug_abbrev  0x0000000000000000       0x6a ./hbird_sdk/SoC/hbirdv2/Common/Source/Stubs/close.o
 .debug_abbrev  0x000000000000006a       0xc9 ./hbird_sdk/SoC/hbirdv2/Common/Source/Stubs/fstat.o
 .debug_abbrev  0x0000000000000133       0x57 ./hbird_sdk/SoC/hbirdv2/Common/Source/Stubs/isatty.o
 .debug_abbrev  0x000000000000018a       0x68 ./hbird_sdk/SoC/hbirdv2/Common/Source/Stubs/lseek.o
 .debug_abbrev  0x00000000000001f2      0x110 ./hbird_sdk/SoC/hbirdv2/Common/Source/Stubs/read.o
 .debug_abbrev  0x0000000000000302       0xa8 ./hbird_sdk/SoC/hbirdv2/Common/Source/Stubs/sbrk.o
 .debug_abbrev  0x00000000000003aa      0x13c ./hbird_sdk/SoC/hbirdv2/Common/Source/Stubs/write.o
 .debug_abbrev  0x00000000000004e6       0x14 ./hbird_sdk/SoC/hbirdv2/Common/Source/GCC/intexc_hbirdv2.o
 .debug_abbrev  0x00000000000004fa       0x14 ./hbird_sdk/SoC/hbirdv2/Common/Source/GCC/startup_hbirdv2.o
 .debug_abbrev  0x000000000000050e       0xf2 ./hbird_sdk/SoC/hbirdv2/Common/Source/Drivers/hbirdv2_gpio.o
 .debug_abbrev  0x0000000000000600      0x15f ./hbird_sdk/SoC/hbirdv2/Common/Source/Drivers/hbirdv2_uart.o
 .debug_abbrev  0x000000000000075f      0x1c0 ./hbird_sdk/SoC/hbirdv2/Common/Source/hbirdv2_common.o
 .debug_abbrev  0x000000000000091f      0x4a9 ./hbird_sdk/SoC/hbirdv2/Common/Source/system_hbirdv2.o
 .debug_abbrev  0x0000000000000dc8      0x2fb ./application/ILI93xx.o
 .debug_abbrev  0x00000000000010c3      0x2e0 ./application/InfoNES.o
 .debug_abbrev  0x00000000000013a3      0x4eb ./application/InfoNES_Mapper.o
 .debug_abbrev  0x000000000000188e      0x2ae ./application/InfoNES_System.o
 .debug_abbrev  0x0000000000001b3c      0x2fb ./application/K6502.o
 .debug_abbrev  0x0000000000001e37      0x21e ./application/main.o
 .debug_abbrev  0x0000000000002055       0x47 ./application/rom.o
 .debug_abbrev  0x000000000000209c      0x19d c:/microdownload/nucleistudio/toolchain/gcc/bin/../lib/gcc/riscv-nuclei-elf/10.2.0/rv32imac/ilp32\libgcc.a(_udivdi3.o)
 .debug_abbrev  0x0000000000002239       0x70 c:/microdownload/nucleistudio/toolchain/gcc/bin/../lib/gcc/riscv-nuclei-elf/10.2.0/rv32imac/ilp32\libgcc.a(_clz.o)

.debug_loc      0x0000000000000000    0x102d1
 .debug_loc     0x0000000000000000       0x21 ./hbird_sdk/SoC/hbirdv2/Common/Source/Stubs/close.o
 .debug_loc     0x0000000000000021       0x2e ./hbird_sdk/SoC/hbirdv2/Common/Source/Stubs/fstat.o
 .debug_loc     0x000000000000004f       0x21 ./hbird_sdk/SoC/hbirdv2/Common/Source/Stubs/isatty.o
 .debug_loc     0x0000000000000070       0x21 ./hbird_sdk/SoC/hbirdv2/Common/Source/Stubs/lseek.o
 .debug_loc     0x0000000000000091       0xa8 ./hbird_sdk/SoC/hbirdv2/Common/Source/Stubs/read.o
 .debug_loc     0x0000000000000139       0x21 ./hbird_sdk/SoC/hbirdv2/Common/Source/Stubs/sbrk.o
 .debug_loc     0x000000000000015a       0xe9 ./hbird_sdk/SoC/hbirdv2/Common/Source/Stubs/write.o
 .debug_loc     0x0000000000000243      0x42c ./hbird_sdk/SoC/hbirdv2/Common/Source/Drivers/hbirdv2_gpio.o
 .debug_loc     0x000000000000066f      0x45c ./hbird_sdk/SoC/hbirdv2/Common/Source/Drivers/hbirdv2_uart.o
 .debug_loc     0x0000000000000acb       0xa9 ./hbird_sdk/SoC/hbirdv2/Common/Source/hbirdv2_common.o
 .debug_loc     0x0000000000000b74      0x690 ./hbird_sdk/SoC/hbirdv2/Common/Source/system_hbirdv2.o
 .debug_loc     0x0000000000001204      0xe56 ./application/ILI93xx.o
 .debug_loc     0x000000000000205a      0x9e5 ./application/InfoNES.o
 .debug_loc     0x0000000000002a3f     0xb34b ./application/InfoNES_Mapper.o
 .debug_loc     0x000000000000dd8a      0x21a ./application/InfoNES_System.o
 .debug_loc     0x000000000000dfa4     0x1732 ./application/K6502.o
 .debug_loc     0x000000000000f6d6       0x1e ./application/main.o
 .debug_loc     0x000000000000f6f4      0xbdd c:/microdownload/nucleistudio/toolchain/gcc/bin/../lib/gcc/riscv-nuclei-elf/10.2.0/rv32imac/ilp32\libgcc.a(_udivdi3.o)

.debug_aranges  0x0000000000000000     0x11b8
 .debug_aranges
                0x0000000000000000       0x20 ./hbird_sdk/SoC/hbirdv2/Common/Source/Stubs/close.o
 .debug_aranges
                0x0000000000000020       0x20 ./hbird_sdk/SoC/hbirdv2/Common/Source/Stubs/fstat.o
 .debug_aranges
                0x0000000000000040       0x20 ./hbird_sdk/SoC/hbirdv2/Common/Source/Stubs/isatty.o
 .debug_aranges
                0x0000000000000060       0x20 ./hbird_sdk/SoC/hbirdv2/Common/Source/Stubs/lseek.o
 .debug_aranges
                0x0000000000000080       0x20 ./hbird_sdk/SoC/hbirdv2/Common/Source/Stubs/read.o
 .debug_aranges
                0x00000000000000a0       0x20 ./hbird_sdk/SoC/hbirdv2/Common/Source/Stubs/sbrk.o
 .debug_aranges
                0x00000000000000c0       0x20 ./hbird_sdk/SoC/hbirdv2/Common/Source/Stubs/write.o
 .debug_aranges
                0x00000000000000e0       0x20 ./hbird_sdk/SoC/hbirdv2/Common/Source/GCC/intexc_hbirdv2.o
 .debug_aranges
                0x0000000000000100       0x20 ./hbird_sdk/SoC/hbirdv2/Common/Source/GCC/startup_hbirdv2.o
 .debug_aranges
                0x0000000000000120       0x60 ./hbird_sdk/SoC/hbirdv2/Common/Source/Drivers/hbirdv2_gpio.o
 .debug_aranges
                0x0000000000000180       0x98 ./hbird_sdk/SoC/hbirdv2/Common/Source/Drivers/hbirdv2_uart.o
 .debug_aranges
                0x0000000000000218       0x30 ./hbird_sdk/SoC/hbirdv2/Common/Source/hbirdv2_common.o
 .debug_aranges
                0x0000000000000248       0x98 ./hbird_sdk/SoC/hbirdv2/Common/Source/system_hbirdv2.o
 .debug_aranges
                0x00000000000002e0       0x90 ./application/ILI93xx.o
 .debug_aranges
                0x0000000000000370       0x78 ./application/InfoNES.o
 .debug_aranges
                0x00000000000003e8      0xc80 ./application/InfoNES_Mapper.o
 .debug_aranges
                0x0000000000001068       0x78 ./application/InfoNES_System.o
 .debug_aranges
                0x00000000000010e0       0x48 ./application/K6502.o
 .debug_aranges
                0x0000000000001128       0x40 ./application/main.o
 .debug_aranges
                0x0000000000001168       0x18 ./application/rom.o
 .debug_aranges
                0x0000000000001180       0x20 c:/microdownload/nucleistudio/toolchain/gcc/bin/../lib/gcc/riscv-nuclei-elf/10.2.0/rv32imac/ilp32\libgcc.a(_udivdi3.o)
 .debug_aranges
                0x00000000000011a0       0x18 c:/microdownload/nucleistudio/toolchain/gcc/bin/../lib/gcc/riscv-nuclei-elf/10.2.0/rv32imac/ilp32\libgcc.a(_clz.o)

.debug_ranges   0x0000000000000000     0x2298
 .debug_ranges  0x0000000000000000       0x10 ./hbird_sdk/SoC/hbirdv2/Common/Source/Stubs/close.o
 .debug_ranges  0x0000000000000010       0x10 ./hbird_sdk/SoC/hbirdv2/Common/Source/Stubs/fstat.o
 .debug_ranges  0x0000000000000020       0x10 ./hbird_sdk/SoC/hbirdv2/Common/Source/Stubs/isatty.o
 .debug_ranges  0x0000000000000030       0x10 ./hbird_sdk/SoC/hbirdv2/Common/Source/Stubs/lseek.o
 .debug_ranges  0x0000000000000040       0x10 ./hbird_sdk/SoC/hbirdv2/Common/Source/Stubs/read.o
 .debug_ranges  0x0000000000000050       0x10 ./hbird_sdk/SoC/hbirdv2/Common/Source/Stubs/sbrk.o
 .debug_ranges  0x0000000000000060       0x10 ./hbird_sdk/SoC/hbirdv2/Common/Source/Stubs/write.o
 .debug_ranges  0x0000000000000070       0x50 ./hbird_sdk/SoC/hbirdv2/Common/Source/Drivers/hbirdv2_gpio.o
 .debug_ranges  0x00000000000000c0       0x88 ./hbird_sdk/SoC/hbirdv2/Common/Source/Drivers/hbirdv2_uart.o
 .debug_ranges  0x0000000000000148       0x80 ./hbird_sdk/SoC/hbirdv2/Common/Source/hbirdv2_common.o
 .debug_ranges  0x00000000000001c8      0x150 ./hbird_sdk/SoC/hbirdv2/Common/Source/system_hbirdv2.o
 .debug_ranges  0x0000000000000318       0xf0 ./application/ILI93xx.o
 .debug_ranges  0x0000000000000408       0xd0 ./application/InfoNES.o
 .debug_ranges  0x00000000000004d8     0x1500 ./application/InfoNES_Mapper.o
 .debug_ranges  0x00000000000019d8       0xa0 ./application/InfoNES_System.o
 .debug_ranges  0x0000000000001a78      0x6c8 ./application/K6502.o
 .debug_ranges  0x0000000000002140       0x50 ./application/main.o
 .debug_ranges  0x0000000000002190      0x108 c:/microdownload/nucleistudio/toolchain/gcc/bin/../lib/gcc/riscv-nuclei-elf/10.2.0/rv32imac/ilp32\libgcc.a(_udivdi3.o)

.debug_line     0x0000000000000000    0x4648a
 .debug_line    0x0000000000000000       0x88 ./hbird_sdk/SoC/hbirdv2/Common/Source/Stubs/close.o
 .debug_line    0x0000000000000088      0x1b8 ./hbird_sdk/SoC/hbirdv2/Common/Source/Stubs/fstat.o
 .debug_line    0x0000000000000240       0x77 ./hbird_sdk/SoC/hbirdv2/Common/Source/Stubs/isatty.o
 .debug_line    0x00000000000002b7       0x76 ./hbird_sdk/SoC/hbirdv2/Common/Source/Stubs/lseek.o
 .debug_line    0x000000000000032d      0x286 ./hbird_sdk/SoC/hbirdv2/Common/Source/Stubs/read.o
 .debug_line    0x00000000000005b3      0x13f ./hbird_sdk/SoC/hbirdv2/Common/Source/Stubs/sbrk.o
 .debug_line    0x00000000000006f2      0x31d ./hbird_sdk/SoC/hbirdv2/Common/Source/Stubs/write.o
 .debug_line    0x0000000000000a0f       0x97 ./hbird_sdk/SoC/hbirdv2/Common/Source/GCC/intexc_hbirdv2.o
 .debug_line    0x0000000000000aa6      0x163 ./hbird_sdk/SoC/hbirdv2/Common/Source/GCC/startup_hbirdv2.o
 .debug_line    0x0000000000000c09      0x67e ./hbird_sdk/SoC/hbirdv2/Common/Source/Drivers/hbirdv2_gpio.o
 .debug_line    0x0000000000001287      0x973 ./hbird_sdk/SoC/hbirdv2/Common/Source/Drivers/hbirdv2_uart.o
 .debug_line    0x0000000000001bfa      0x48b ./hbird_sdk/SoC/hbirdv2/Common/Source/hbirdv2_common.o
 .debug_line    0x0000000000002085      0xd12 ./hbird_sdk/SoC/hbirdv2/Common/Source/system_hbirdv2.o
 .debug_line    0x0000000000002d97     0x1265 ./application/ILI93xx.o
 .debug_line    0x0000000000003ffc     0x25d9 ./application/InfoNES.o
 .debug_line    0x00000000000065d5    0x36aae ./application/InfoNES_Mapper.o
 .debug_line    0x000000000003d083      0x97a ./application/InfoNES_System.o
 .debug_line    0x000000000003d9fd     0x7d0c ./application/K6502.o
 .debug_line    0x0000000000045709      0x570 ./application/main.o
 .debug_line    0x0000000000045c79       0x35 ./application/rom.o
 .debug_line    0x0000000000045cae      0x769 c:/microdownload/nucleistudio/toolchain/gcc/bin/../lib/gcc/riscv-nuclei-elf/10.2.0/rv32imac/ilp32\libgcc.a(_udivdi3.o)
 .debug_line    0x0000000000046417       0x73 c:/microdownload/nucleistudio/toolchain/gcc/bin/../lib/gcc/riscv-nuclei-elf/10.2.0/rv32imac/ilp32\libgcc.a(_clz.o)

.debug_str      0x0000000000000000     0x4a2d
 .debug_str     0x0000000000000000      0x174 ./hbird_sdk/SoC/hbirdv2/Common/Source/Stubs/close.o
                                        0x1b9 (size before relaxing)
 .debug_str     0x0000000000000174      0x141 ./hbird_sdk/SoC/hbirdv2/Common/Source/Stubs/fstat.o
                                        0x30a (size before relaxing)
 .debug_str     0x00000000000002b5       0x3e ./hbird_sdk/SoC/hbirdv2/Common/Source/Stubs/isatty.o
                                        0x1b5 (size before relaxing)
 .debug_str     0x00000000000002f3       0x4a ./hbird_sdk/SoC/hbirdv2/Common/Source/Stubs/lseek.o
                                        0x1c6 (size before relaxing)
 .debug_str     0x000000000000033d       0x66 ./hbird_sdk/SoC/hbirdv2/Common/Source/Stubs/read.o
                                        0x20e (size before relaxing)
 .debug_str     0x00000000000003a3       0x5a ./hbird_sdk/SoC/hbirdv2/Common/Source/Stubs/sbrk.o
                                        0x1d6 (size before relaxing)
 .debug_str     0x00000000000003fd       0x49 ./hbird_sdk/SoC/hbirdv2/Common/Source/Stubs/write.o
                                        0x219 (size before relaxing)
 .debug_str     0x0000000000000446       0x4a ./hbird_sdk/SoC/hbirdv2/Common/Source/GCC/intexc_hbirdv2.o
                                         0x7f (size before relaxing)
 .debug_str     0x0000000000000490       0x3d ./hbird_sdk/SoC/hbirdv2/Common/Source/GCC/startup_hbirdv2.o
                                         0x80 (size before relaxing)
 .debug_str     0x00000000000004cd      0x18d ./hbird_sdk/SoC/hbirdv2/Common/Source/Drivers/hbirdv2_gpio.o
                                        0x320 (size before relaxing)
 .debug_str     0x000000000000065a      0x204 ./hbird_sdk/SoC/hbirdv2/Common/Source/Drivers/hbirdv2_uart.o
                                        0x3e2 (size before relaxing)
 .debug_str     0x000000000000085e      0x128 ./hbird_sdk/SoC/hbirdv2/Common/Source/hbirdv2_common.o
                                        0x2c0 (size before relaxing)
 .debug_str     0x0000000000000986      0x596 ./hbird_sdk/SoC/hbirdv2/Common/Source/system_hbirdv2.o
                                        0x801 (size before relaxing)
 .debug_str     0x0000000000000f1c      0x19f ./application/ILI93xx.o
                                        0x356 (size before relaxing)
 .debug_str     0x00000000000010bb      0x695 ./application/InfoNES.o
                                        0x783 (size before relaxing)
 .debug_str     0x0000000000001750     0x2c78 ./application/InfoNES_Mapper.o
                                       0x2f4f (size before relaxing)
 .debug_str     0x00000000000043c8      0x149 ./application/InfoNES_System.o
                                        0x45b (size before relaxing)
 .debug_str     0x0000000000004511      0x13a ./application/K6502.o
                                        0x508 (size before relaxing)
 .debug_str     0x000000000000464b       0x59 ./application/main.o
                                        0x578 (size before relaxing)
 .debug_str     0x00000000000046a4       0x15 ./application/rom.o
                                        0x11a (size before relaxing)
 .debug_str     0x00000000000046b9      0x29d c:/microdownload/nucleistudio/toolchain/gcc/bin/../lib/gcc/riscv-nuclei-elf/10.2.0/rv32imac/ilp32\libgcc.a(_udivdi3.o)
                                        0x360 (size before relaxing)
 .debug_str     0x0000000000004956       0xd7 c:/microdownload/nucleistudio/toolchain/gcc/bin/../lib/gcc/riscv-nuclei-elf/10.2.0/rv32imac/ilp32\libgcc.a(_clz.o)
                                        0x2a7 (size before relaxing)

.comment        0x0000000000000000       0x12
 .comment       0x0000000000000000       0x12 ./hbird_sdk/SoC/hbirdv2/Common/Source/Stubs/close.o
                                         0x13 (size before relaxing)
 .comment       0x0000000000000012       0x13 ./hbird_sdk/SoC/hbirdv2/Common/Source/Stubs/fstat.o
 .comment       0x0000000000000012       0x13 ./hbird_sdk/SoC/hbirdv2/Common/Source/Stubs/isatty.o
 .comment       0x0000000000000012       0x13 ./hbird_sdk/SoC/hbirdv2/Common/Source/Stubs/lseek.o
 .comment       0x0000000000000012       0x13 ./hbird_sdk/SoC/hbirdv2/Common/Source/Stubs/read.o
 .comment       0x0000000000000012       0x13 ./hbird_sdk/SoC/hbirdv2/Common/Source/Stubs/sbrk.o
 .comment       0x0000000000000012       0x13 ./hbird_sdk/SoC/hbirdv2/Common/Source/Stubs/write.o
 .comment       0x0000000000000012       0x13 ./hbird_sdk/SoC/hbirdv2/Common/Source/Drivers/hbirdv2_gpio.o
 .comment       0x0000000000000012       0x13 ./hbird_sdk/SoC/hbirdv2/Common/Source/Drivers/hbirdv2_uart.o
 .comment       0x0000000000000012       0x13 ./hbird_sdk/SoC/hbirdv2/Common/Source/hbirdv2_common.o
 .comment       0x0000000000000012       0x13 ./hbird_sdk/SoC/hbirdv2/Common/Source/system_hbirdv2.o
 .comment       0x0000000000000012       0x13 ./application/ILI93xx.o
 .comment       0x0000000000000012       0x13 ./application/InfoNES.o
 .comment       0x0000000000000012       0x13 ./application/InfoNES_Mapper.o
 .comment       0x0000000000000012       0x13 ./application/InfoNES_System.o
 .comment       0x0000000000000012       0x13 ./application/K6502.o
 .comment       0x0000000000000012       0x13 ./application/main.o
 .comment       0x0000000000000012       0x13 ./application/rom.o
 .comment       0x0000000000000012       0x13 c:/microdownload/nucleistudio/toolchain/gcc/bin/../lib/gcc/riscv-nuclei-elf/10.2.0/rv32imac/ilp32\libgcc.a(_udivdi3.o)
 .comment       0x0000000000000012       0x13 c:/microdownload/nucleistudio/toolchain/gcc/bin/../lib/gcc/riscv-nuclei-elf/10.2.0/rv32imac/ilp32\libgcc.a(_clz.o)
 .comment       0x0000000000000012       0x13 c:/microdownload/nucleistudio/toolchain/gcc/bin/../lib/gcc/riscv-nuclei-elf/10.2.0/../../../../riscv-nuclei-elf/lib/rv32imac/ilp32\libg_nano.a(lib_a-atexit.o)
 .comment       0x0000000000000012       0x13 c:/microdownload/nucleistudio/toolchain/gcc/bin/../lib/gcc/riscv-nuclei-elf/10.2.0/../../../../riscv-nuclei-elf/lib/rv32imac/ilp32\libg_nano.a(lib_a-fini.o)
 .comment       0x0000000000000012       0x13 c:/microdownload/nucleistudio/toolchain/gcc/bin/../lib/gcc/riscv-nuclei-elf/10.2.0/../../../../riscv-nuclei-elf/lib/rv32imac/ilp32\libg_nano.a(lib_a-init.o)
 .comment       0x0000000000000012       0x13 c:/microdownload/nucleistudio/toolchain/gcc/bin/../lib/gcc/riscv-nuclei-elf/10.2.0/../../../../riscv-nuclei-elf/lib/rv32imac/ilp32\libg_nano.a(lib_a-memcpy.o)
 .comment       0x0000000000000012       0x13 c:/microdownload/nucleistudio/toolchain/gcc/bin/../lib/gcc/riscv-nuclei-elf/10.2.0/../../../../riscv-nuclei-elf/lib/rv32imac/ilp32\libg_nano.a(lib_a-printf.o)
 .comment       0x0000000000000012       0x13 c:/microdownload/nucleistudio/toolchain/gcc/bin/../lib/gcc/riscv-nuclei-elf/10.2.0/../../../../riscv-nuclei-elf/lib/rv32imac/ilp32\libg_nano.a(lib_a-puts.o)
 .comment       0x0000000000000012       0x13 c:/microdownload/nucleistudio/toolchain/gcc/bin/../lib/gcc/riscv-nuclei-elf/10.2.0/../../../../riscv-nuclei-elf/lib/rv32imac/ilp32\libg_nano.a(lib_a-reent.o)
 .comment       0x0000000000000012       0x13 c:/microdownload/nucleistudio/toolchain/gcc/bin/../lib/gcc/riscv-nuclei-elf/10.2.0/../../../../riscv-nuclei-elf/lib/rv32imac/ilp32\libg_nano.a(lib_a-sysisatty.o)
 .comment       0x0000000000000012       0x13 c:/microdownload/nucleistudio/toolchain/gcc/bin/../lib/gcc/riscv-nuclei-elf/10.2.0/../../../../riscv-nuclei-elf/lib/rv32imac/ilp32\libg_nano.a(lib_a-wbuf.o)
 .comment       0x0000000000000012       0x13 c:/microdownload/nucleistudio/toolchain/gcc/bin/../lib/gcc/riscv-nuclei-elf/10.2.0/../../../../riscv-nuclei-elf/lib/rv32imac/ilp32\libg_nano.a(lib_a-wsetup.o)
 .comment       0x0000000000000012       0x13 c:/microdownload/nucleistudio/toolchain/gcc/bin/../lib/gcc/riscv-nuclei-elf/10.2.0/../../../../riscv-nuclei-elf/lib/rv32imac/ilp32\libg_nano.a(lib_a-__atexit.o)
 .comment       0x0000000000000012       0x13 c:/microdownload/nucleistudio/toolchain/gcc/bin/../lib/gcc/riscv-nuclei-elf/10.2.0/../../../../riscv-nuclei-elf/lib/rv32imac/ilp32\libg_nano.a(lib_a-__call_atexit.o)
 .comment       0x0000000000000012       0x13 c:/microdownload/nucleistudio/toolchain/gcc/bin/../lib/gcc/riscv-nuclei-elf/10.2.0/../../../../riscv-nuclei-elf/lib/rv32imac/ilp32\libg_nano.a(lib_a-fflush.o)
 .comment       0x0000000000000012       0x13 c:/microdownload/nucleistudio/toolchain/gcc/bin/../lib/gcc/riscv-nuclei-elf/10.2.0/../../../../riscv-nuclei-elf/lib/rv32imac/ilp32\libg_nano.a(lib_a-findfp.o)
 .comment       0x0000000000000012       0x13 c:/microdownload/nucleistudio/toolchain/gcc/bin/../lib/gcc/riscv-nuclei-elf/10.2.0/../../../../riscv-nuclei-elf/lib/rv32imac/ilp32\libg_nano.a(lib_a-fwalk.o)
 .comment       0x0000000000000012       0x13 c:/microdownload/nucleistudio/toolchain/gcc/bin/../lib/gcc/riscv-nuclei-elf/10.2.0/../../../../riscv-nuclei-elf/lib/rv32imac/ilp32\libg_nano.a(lib_a-impure.o)
 .comment       0x0000000000000012       0x13 c:/microdownload/nucleistudio/toolchain/gcc/bin/../lib/gcc/riscv-nuclei-elf/10.2.0/../../../../riscv-nuclei-elf/lib/rv32imac/ilp32\libg_nano.a(lib_a-makebuf.o)
 .comment       0x0000000000000012       0x13 c:/microdownload/nucleistudio/toolchain/gcc/bin/../lib/gcc/riscv-nuclei-elf/10.2.0/../../../../riscv-nuclei-elf/lib/rv32imac/ilp32\libg_nano.a(lib_a-nano-freer.o)
 .comment       0x0000000000000012       0x13 c:/microdownload/nucleistudio/toolchain/gcc/bin/../lib/gcc/riscv-nuclei-elf/10.2.0/../../../../riscv-nuclei-elf/lib/rv32imac/ilp32\libg_nano.a(lib_a-nano-mallocr.o)
 .comment       0x0000000000000012       0x13 c:/microdownload/nucleistudio/toolchain/gcc/bin/../lib/gcc/riscv-nuclei-elf/10.2.0/../../../../riscv-nuclei-elf/lib/rv32imac/ilp32\libg_nano.a(lib_a-nano-vfprintf.o)
 .comment       0x0000000000000012       0x13 c:/microdownload/nucleistudio/toolchain/gcc/bin/../lib/gcc/riscv-nuclei-elf/10.2.0/../../../../riscv-nuclei-elf/lib/rv32imac/ilp32\libg_nano.a(lib_a-nano-vfprintf_i.o)
 .comment       0x0000000000000012       0x13 c:/microdownload/nucleistudio/toolchain/gcc/bin/../lib/gcc/riscv-nuclei-elf/10.2.0/../../../../riscv-nuclei-elf/lib/rv32imac/ilp32\libg_nano.a(lib_a-sbrkr.o)
 .comment       0x0000000000000012       0x13 c:/microdownload/nucleistudio/toolchain/gcc/bin/../lib/gcc/riscv-nuclei-elf/10.2.0/../../../../riscv-nuclei-elf/lib/rv32imac/ilp32\libg_nano.a(lib_a-stdio.o)
 .comment       0x0000000000000012       0x13 c:/microdownload/nucleistudio/toolchain/gcc/bin/../lib/gcc/riscv-nuclei-elf/10.2.0/../../../../riscv-nuclei-elf/lib/rv32imac/ilp32\libg_nano.a(lib_a-writer.o)
 .comment       0x0000000000000012       0x13 c:/microdownload/nucleistudio/toolchain/gcc/bin/../lib/gcc/riscv-nuclei-elf/10.2.0/../../../../riscv-nuclei-elf/lib/rv32imac/ilp32\libg_nano.a(lib_a-closer.o)
 .comment       0x0000000000000012       0x13 c:/microdownload/nucleistudio/toolchain/gcc/bin/../lib/gcc/riscv-nuclei-elf/10.2.0/../../../../riscv-nuclei-elf/lib/rv32imac/ilp32\libg_nano.a(lib_a-fstatr.o)
 .comment       0x0000000000000012       0x13 c:/microdownload/nucleistudio/toolchain/gcc/bin/../lib/gcc/riscv-nuclei-elf/10.2.0/../../../../riscv-nuclei-elf/lib/rv32imac/ilp32\libg_nano.a(lib_a-isattyr.o)
 .comment       0x0000000000000012       0x13 c:/microdownload/nucleistudio/toolchain/gcc/bin/../lib/gcc/riscv-nuclei-elf/10.2.0/../../../../riscv-nuclei-elf/lib/rv32imac/ilp32\libg_nano.a(lib_a-lseekr.o)
 .comment       0x0000000000000012       0x13 c:/microdownload/nucleistudio/toolchain/gcc/bin/../lib/gcc/riscv-nuclei-elf/10.2.0/../../../../riscv-nuclei-elf/lib/rv32imac/ilp32\libg_nano.a(lib_a-memchr.o)
 .comment       0x0000000000000012       0x13 c:/microdownload/nucleistudio/toolchain/gcc/bin/../lib/gcc/riscv-nuclei-elf/10.2.0/../../../../riscv-nuclei-elf/lib/rv32imac/ilp32\libg_nano.a(lib_a-mlock.o)
 .comment       0x0000000000000012       0x13 c:/microdownload/nucleistudio/toolchain/gcc/bin/../lib/gcc/riscv-nuclei-elf/10.2.0/../../../../riscv-nuclei-elf/lib/rv32imac/ilp32\libg_nano.a(lib_a-readr.o)

.riscv.attributes
                0x0000000000000000       0x2f
 .riscv.attributes
                0x0000000000000000       0x2b ./hbird_sdk/SoC/hbirdv2/Common/Source/Stubs/close.o
 .riscv.attributes
                0x000000000000002b       0x2b ./hbird_sdk/SoC/hbirdv2/Common/Source/Stubs/fstat.o
 .riscv.attributes
                0x0000000000000056       0x2b ./hbird_sdk/SoC/hbirdv2/Common/Source/Stubs/isatty.o
 .riscv.attributes
                0x0000000000000081       0x2b ./hbird_sdk/SoC/hbirdv2/Common/Source/Stubs/lseek.o
 .riscv.attributes
                0x00000000000000ac       0x2b ./hbird_sdk/SoC/hbirdv2/Common/Source/Stubs/read.o
 .riscv.attributes
                0x00000000000000d7       0x2b ./hbird_sdk/SoC/hbirdv2/Common/Source/Stubs/sbrk.o
 .riscv.attributes
                0x0000000000000102       0x2b ./hbird_sdk/SoC/hbirdv2/Common/Source/Stubs/write.o
 .riscv.attributes
                0x000000000000012d       0x2d ./hbird_sdk/SoC/hbirdv2/Common/Source/GCC/intexc_hbirdv2.o
 .riscv.attributes
                0x000000000000015a       0x2d ./hbird_sdk/SoC/hbirdv2/Common/Source/GCC/startup_hbirdv2.o
 .riscv.attributes
                0x0000000000000187       0x2b ./hbird_sdk/SoC/hbirdv2/Common/Source/Drivers/hbirdv2_gpio.o
 .riscv.attributes
                0x00000000000001b2       0x2b ./hbird_sdk/SoC/hbirdv2/Common/Source/Drivers/hbirdv2_uart.o
 .riscv.attributes
                0x00000000000001dd       0x2f ./hbird_sdk/SoC/hbirdv2/Common/Source/hbirdv2_common.o
 .riscv.attributes
                0x000000000000020c       0x2f ./hbird_sdk/SoC/hbirdv2/Common/Source/system_hbirdv2.o
 .riscv.attributes
                0x000000000000023b       0x2b ./application/ILI93xx.o
 .riscv.attributes
                0x0000000000000266       0x2b ./application/InfoNES.o
 .riscv.attributes
                0x0000000000000291       0x2b ./application/InfoNES_Mapper.o
 .riscv.attributes
                0x00000000000002bc       0x2b ./application/InfoNES_System.o
 .riscv.attributes
                0x00000000000002e7       0x2b ./application/K6502.o
 .riscv.attributes
                0x0000000000000312       0x2f ./application/main.o
 .riscv.attributes
                0x0000000000000341       0x2b ./application/rom.o
 .riscv.attributes
                0x000000000000036c       0x2b c:/microdownload/nucleistudio/toolchain/gcc/bin/../lib/gcc/riscv-nuclei-elf/10.2.0/rv32imac/ilp32\libgcc.a(_udivdi3.o)
 .riscv.attributes
                0x0000000000000397       0x2b c:/microdownload/nucleistudio/toolchain/gcc/bin/../lib/gcc/riscv-nuclei-elf/10.2.0/rv32imac/ilp32\libgcc.a(_clz.o)
 .riscv.attributes
                0x00000000000003c2       0x2b c:/microdownload/nucleistudio/toolchain/gcc/bin/../lib/gcc/riscv-nuclei-elf/10.2.0/../../../../riscv-nuclei-elf/lib/rv32imac/ilp32\libg_nano.a(lib_a-atexit.o)
 .riscv.attributes
                0x00000000000003ed       0x2b c:/microdownload/nucleistudio/toolchain/gcc/bin/../lib/gcc/riscv-nuclei-elf/10.2.0/../../../../riscv-nuclei-elf/lib/rv32imac/ilp32\libg_nano.a(lib_a-fini.o)
 .riscv.attributes
                0x0000000000000418       0x2b c:/microdownload/nucleistudio/toolchain/gcc/bin/../lib/gcc/riscv-nuclei-elf/10.2.0/../../../../riscv-nuclei-elf/lib/rv32imac/ilp32\libg_nano.a(lib_a-init.o)
 .riscv.attributes
                0x0000000000000443       0x2b c:/microdownload/nucleistudio/toolchain/gcc/bin/../lib/gcc/riscv-nuclei-elf/10.2.0/../../../../riscv-nuclei-elf/lib/rv32imac/ilp32\libg_nano.a(lib_a-memcpy.o)
 .riscv.attributes
                0x000000000000046e       0x29 c:/microdownload/nucleistudio/toolchain/gcc/bin/../lib/gcc/riscv-nuclei-elf/10.2.0/../../../../riscv-nuclei-elf/lib/rv32imac/ilp32\libg_nano.a(lib_a-memset.o)
 .riscv.attributes
                0x0000000000000497       0x2b c:/microdownload/nucleistudio/toolchain/gcc/bin/../lib/gcc/riscv-nuclei-elf/10.2.0/../../../../riscv-nuclei-elf/lib/rv32imac/ilp32\libg_nano.a(lib_a-printf.o)
 .riscv.attributes
                0x00000000000004c2       0x2b c:/microdownload/nucleistudio/toolchain/gcc/bin/../lib/gcc/riscv-nuclei-elf/10.2.0/../../../../riscv-nuclei-elf/lib/rv32imac/ilp32\libg_nano.a(lib_a-puts.o)
 .riscv.attributes
                0x00000000000004ed       0x2b c:/microdownload/nucleistudio/toolchain/gcc/bin/../lib/gcc/riscv-nuclei-elf/10.2.0/../../../../riscv-nuclei-elf/lib/rv32imac/ilp32\libg_nano.a(lib_a-reent.o)
 .riscv.attributes
                0x0000000000000518       0x2b c:/microdownload/nucleistudio/toolchain/gcc/bin/../lib/gcc/riscv-nuclei-elf/10.2.0/../../../../riscv-nuclei-elf/lib/rv32imac/ilp32\libg_nano.a(lib_a-sysisatty.o)
 .riscv.attributes
                0x0000000000000543       0x2b c:/microdownload/nucleistudio/toolchain/gcc/bin/../lib/gcc/riscv-nuclei-elf/10.2.0/../../../../riscv-nuclei-elf/lib/rv32imac/ilp32\libg_nano.a(lib_a-wbuf.o)
 .riscv.attributes
                0x000000000000056e       0x2b c:/microdownload/nucleistudio/toolchain/gcc/bin/../lib/gcc/riscv-nuclei-elf/10.2.0/../../../../riscv-nuclei-elf/lib/rv32imac/ilp32\libg_nano.a(lib_a-wsetup.o)
 .riscv.attributes
                0x0000000000000599       0x2b c:/microdownload/nucleistudio/toolchain/gcc/bin/../lib/gcc/riscv-nuclei-elf/10.2.0/../../../../riscv-nuclei-elf/lib/rv32imac/ilp32\libg_nano.a(lib_a-__atexit.o)
 .riscv.attributes
                0x00000000000005c4       0x2b c:/microdownload/nucleistudio/toolchain/gcc/bin/../lib/gcc/riscv-nuclei-elf/10.2.0/../../../../riscv-nuclei-elf/lib/rv32imac/ilp32\libg_nano.a(lib_a-__call_atexit.o)
 .riscv.attributes
                0x00000000000005ef       0x2b c:/microdownload/nucleistudio/toolchain/gcc/bin/../lib/gcc/riscv-nuclei-elf/10.2.0/../../../../riscv-nuclei-elf/lib/rv32imac/ilp32\libg_nano.a(lib_a-fflush.o)
 .riscv.attributes
                0x000000000000061a       0x2b c:/microdownload/nucleistudio/toolchain/gcc/bin/../lib/gcc/riscv-nuclei-elf/10.2.0/../../../../riscv-nuclei-elf/lib/rv32imac/ilp32\libg_nano.a(lib_a-findfp.o)
 .riscv.attributes
                0x0000000000000645       0x2b c:/microdownload/nucleistudio/toolchain/gcc/bin/../lib/gcc/riscv-nuclei-elf/10.2.0/../../../../riscv-nuclei-elf/lib/rv32imac/ilp32\libg_nano.a(lib_a-fwalk.o)
 .riscv.attributes
                0x0000000000000670       0x2b c:/microdownload/nucleistudio/toolchain/gcc/bin/../lib/gcc/riscv-nuclei-elf/10.2.0/../../../../riscv-nuclei-elf/lib/rv32imac/ilp32\libg_nano.a(lib_a-impure.o)
 .riscv.attributes
                0x000000000000069b       0x2b c:/microdownload/nucleistudio/toolchain/gcc/bin/../lib/gcc/riscv-nuclei-elf/10.2.0/../../../../riscv-nuclei-elf/lib/rv32imac/ilp32\libg_nano.a(lib_a-makebuf.o)
 .riscv.attributes
                0x00000000000006c6       0x2b c:/microdownload/nucleistudio/toolchain/gcc/bin/../lib/gcc/riscv-nuclei-elf/10.2.0/../../../../riscv-nuclei-elf/lib/rv32imac/ilp32\libg_nano.a(lib_a-nano-freer.o)
 .riscv.attributes
                0x00000000000006f1       0x2b c:/microdownload/nucleistudio/toolchain/gcc/bin/../lib/gcc/riscv-nuclei-elf/10.2.0/../../../../riscv-nuclei-elf/lib/rv32imac/ilp32\libg_nano.a(lib_a-nano-mallocr.o)
 .riscv.attributes
                0x000000000000071c       0x2b c:/microdownload/nucleistudio/toolchain/gcc/bin/../lib/gcc/riscv-nuclei-elf/10.2.0/../../../../riscv-nuclei-elf/lib/rv32imac/ilp32\libg_nano.a(lib_a-nano-vfprintf.o)
 .riscv.attributes
                0x0000000000000747       0x2b c:/microdownload/nucleistudio/toolchain/gcc/bin/../lib/gcc/riscv-nuclei-elf/10.2.0/../../../../riscv-nuclei-elf/lib/rv32imac/ilp32\libg_nano.a(lib_a-nano-vfprintf_i.o)
 .riscv.attributes
                0x0000000000000772       0x2b c:/microdownload/nucleistudio/toolchain/gcc/bin/../lib/gcc/riscv-nuclei-elf/10.2.0/../../../../riscv-nuclei-elf/lib/rv32imac/ilp32\libg_nano.a(lib_a-sbrkr.o)
 .riscv.attributes
                0x000000000000079d       0x2b c:/microdownload/nucleistudio/toolchain/gcc/bin/../lib/gcc/riscv-nuclei-elf/10.2.0/../../../../riscv-nuclei-elf/lib/rv32imac/ilp32\libg_nano.a(lib_a-stdio.o)
 .riscv.attributes
                0x00000000000007c8       0x2b c:/microdownload/nucleistudio/toolchain/gcc/bin/../lib/gcc/riscv-nuclei-elf/10.2.0/../../../../riscv-nuclei-elf/lib/rv32imac/ilp32\libg_nano.a(lib_a-writer.o)
 .riscv.attributes
                0x00000000000007f3       0x2b c:/microdownload/nucleistudio/toolchain/gcc/bin/../lib/gcc/riscv-nuclei-elf/10.2.0/../../../../riscv-nuclei-elf/lib/rv32imac/ilp32\libg_nano.a(lib_a-closer.o)
 .riscv.attributes
                0x000000000000081e       0x2b c:/microdownload/nucleistudio/toolchain/gcc/bin/../lib/gcc/riscv-nuclei-elf/10.2.0/../../../../riscv-nuclei-elf/lib/rv32imac/ilp32\libg_nano.a(lib_a-fstatr.o)
 .riscv.attributes
                0x0000000000000849       0x2b c:/microdownload/nucleistudio/toolchain/gcc/bin/../lib/gcc/riscv-nuclei-elf/10.2.0/../../../../riscv-nuclei-elf/lib/rv32imac/ilp32\libg_nano.a(lib_a-isattyr.o)
 .riscv.attributes
                0x0000000000000874       0x2b c:/microdownload/nucleistudio/toolchain/gcc/bin/../lib/gcc/riscv-nuclei-elf/10.2.0/../../../../riscv-nuclei-elf/lib/rv32imac/ilp32\libg_nano.a(lib_a-lseekr.o)
 .riscv.attributes
                0x000000000000089f       0x2b c:/microdownload/nucleistudio/toolchain/gcc/bin/../lib/gcc/riscv-nuclei-elf/10.2.0/../../../../riscv-nuclei-elf/lib/rv32imac/ilp32\libg_nano.a(lib_a-memchr.o)
 .riscv.attributes
                0x00000000000008ca       0x2b c:/microdownload/nucleistudio/toolchain/gcc/bin/../lib/gcc/riscv-nuclei-elf/10.2.0/../../../../riscv-nuclei-elf/lib/rv32imac/ilp32\libg_nano.a(lib_a-mlock.o)
 .riscv.attributes
                0x00000000000008f5       0x2b c:/microdownload/nucleistudio/toolchain/gcc/bin/../lib/gcc/riscv-nuclei-elf/10.2.0/../../../../riscv-nuclei-elf/lib/rv32imac/ilp32\libg_nano.a(lib_a-readr.o)

.debug_frame    0x0000000000000000      0x8dc
 .debug_frame   0x0000000000000000       0x20 ./hbird_sdk/SoC/hbirdv2/Common/Source/Stubs/close.o
 .debug_frame   0x0000000000000020       0x20 ./hbird_sdk/SoC/hbirdv2/Common/Source/Stubs/fstat.o
 .debug_frame   0x0000000000000040       0x20 ./hbird_sdk/SoC/hbirdv2/Common/Source/Stubs/isatty.o
 .debug_frame   0x0000000000000060       0x20 ./hbird_sdk/SoC/hbirdv2/Common/Source/Stubs/lseek.o
 .debug_frame   0x0000000000000080       0x30 ./hbird_sdk/SoC/hbirdv2/Common/Source/Stubs/read.o
 .debug_frame   0x00000000000000b0       0x20 ./hbird_sdk/SoC/hbirdv2/Common/Source/Stubs/sbrk.o
 .debug_frame   0x00000000000000d0       0x40 ./hbird_sdk/SoC/hbirdv2/Common/Source/Stubs/write.o
 .debug_frame   0x0000000000000110       0xa0 ./hbird_sdk/SoC/hbirdv2/Common/Source/Drivers/hbirdv2_gpio.o
 .debug_frame   0x00000000000001b0      0x110 ./hbird_sdk/SoC/hbirdv2/Common/Source/Drivers/hbirdv2_uart.o
 .debug_frame   0x00000000000002c0       0x6c ./hbird_sdk/SoC/hbirdv2/Common/Source/hbirdv2_common.o
 .debug_frame   0x000000000000032c      0x180 ./hbird_sdk/SoC/hbirdv2/Common/Source/system_hbirdv2.o
 .debug_frame   0x00000000000004ac      0x248 ./application/ILI93xx.o
 .debug_frame   0x00000000000006f4      0x140 ./application/InfoNES_System.o
 .debug_frame   0x0000000000000834       0xa8 ./application/main.o
