
gameMenu.elf:     file format elf32-littleriscv
gameMenu.elf
architecture: riscv:rv32, flags 0x00000112:
EXEC_P, HAS_SYMS, D_PAGED
start address 0x80000000

Program Header:
    LOAD off    0x00001000 vaddr 0x80000000 paddr 0x80000000 align 2**12
         filesz 0x000043f8 memsz 0x000043f8 flags r-x
    LOAD off    0x00006000 vaddr 0x90000000 paddr 0x800043f8 align 2**12
         filesz 0x00000084 memsz 0x00000084 flags rw-
    LOAD off    0x00000084 vaddr 0x90000084 paddr 0x90000084 align 2**12
         filesz 0x00000000 memsz 0x0000013c flags rw-
    LOAD off    0x00000800 vaddr 0x9000f800 paddr 0x900001c0 align 2**12
         filesz 0x00000000 memsz 0x00000800 flags rw-

Sections:
Idx Name              Size      VMA       LMA       File off  Algn  Flags
  0 .init             000000b4  80000000  80000000  00001000  2**0  CONTENTS, ALLOC, LOAD, READONLY, CODE
  1 .ilalign          00000000  800000b4  800000b4  00006084  2**0  CONTENTS
  2 .text             000027fc  800000b4  800000b4  000010b4  2**2  CONTENTS, ALLOC, LOAD, READONLY, CODE
  3 .rodata           00001b48  800028b0  800028b0  000038b0  2**2  CONTENTS, ALLOC, LOAD, READONLY, DATA
  4 .lalign           00000000  800043f8  800043f8  00006084  2**0  CONTENTS
  5 .dalign           00000000  90000000  90000000  00006084  2**0  CONTENTS
  6 .data             00000084  90000000  800043f8  00006000  2**2  CONTENTS, ALLOC, LOAD, DATA
  7 .bss              0000013c  90000084  90000084  00006084  2**2  ALLOC
  8 .stack            00000800  9000f800  900001c0  00006800  2**0  ALLOC
  9 .debug_info       00004582  00000000  00000000  00006084  2**0  CONTENTS, READONLY, DEBUGGING, OCTETS
 10 .debug_abbrev     0000157b  00000000  00000000  0000a606  2**0  CONTENTS, READONLY, DEBUGGING, OCTETS
 11 .debug_loc        00002d9b  00000000  00000000  0000bb81  2**0  CONTENTS, READONLY, DEBUGGING, OCTETS
 12 .debug_aranges    00000420  00000000  00000000  0000e920  2**3  CONTENTS, READONLY, DEBUGGING, OCTETS
 13 .debug_ranges     000005d0  00000000  00000000  0000ed40  2**0  CONTENTS, READONLY, DEBUGGING, OCTETS
 14 .debug_line       00005e74  00000000  00000000  0000f310  2**0  CONTENTS, READONLY, DEBUGGING, OCTETS
 15 .debug_str        00001566  00000000  00000000  00015184  2**0  CONTENTS, READONLY, DEBUGGING, OCTETS
 16 .comment          00000012  00000000  00000000  000166ea  2**0  CONTENTS, READONLY
 17 .riscv.attributes 0000002f  00000000  00000000  000166fc  2**0  CONTENTS, READONLY
 18 .debug_frame      000008b0  00000000  00000000  0001672c  2**2  CONTENTS, READONLY, DEBUGGING, OCTETS
SYMBOL TABLE:
80000000 l    d  .init	00000000 .init
800000b4 l    d  .ilalign	00000000 .ilalign
800000b4 l    d  .text	00000000 .text
800028b0 l    d  .rodata	00000000 .rodata
800043f8 l    d  .lalign	00000000 .lalign
90000000 l    d  .dalign	00000000 .dalign
90000000 l    d  .data	00000000 .data
90000084 l    d  .bss	00000000 .bss
9000f800 l    d  .stack	00000000 .stack
00000000 l    d  .debug_info	00000000 .debug_info
00000000 l    d  .debug_abbrev	00000000 .debug_abbrev
00000000 l    d  .debug_loc	00000000 .debug_loc
00000000 l    d  .debug_aranges	00000000 .debug_aranges
00000000 l    d  .debug_ranges	00000000 .debug_ranges
00000000 l    d  .debug_line	00000000 .debug_line
00000000 l    d  .debug_str	00000000 .debug_str
00000000 l    d  .comment	00000000 .comment
00000000 l    d  .riscv.attributes	00000000 .riscv.attributes
00000000 l    d  .debug_frame	00000000 .debug_frame
00000000 l    df *ABS*	00000000 main.c
00000000 l    df *ABS*	00000000 close.c
00000000 l    df *ABS*	00000000 fstat.c
00000000 l    df *ABS*	00000000 isatty.c
00000000 l    df *ABS*	00000000 lseek.c
00000000 l    df *ABS*	00000000 read.c
00000000 l    df *ABS*	00000000 sbrk.c
90000060 l     O .data	00000004 curbrk.0
00000000 l    df *ABS*	00000000 write.c
00000000 l    df *ABS*	00000000 hbirdv2_gpio.c
00000000 l    df *ABS*	00000000 hbirdv2_uart.c
00000000 l    df *ABS*	00000000 hbirdv2_common.c
00000000 l    df *ABS*	00000000 system_hbirdv2.c
800003fa l     F .text	00000044 system_default_exception_handler
8000043e l     F .text	00000048 system_default_interrupt_handler
9000009c l     O .bss	00000028 SystemCoreInterruptHandlers
900000c4 l     O .bss	0000002c SystemExceptionHandlers
900000f0 l     O .bss	00000044 SystemExtInterruptHandlers
00000000 l    df *ABS*	00000000 lcd.c
00000000 l    df *ABS*	00000000 libgcc2.c
00000000 l    df *ABS*	00000000 atexit.c
00000000 l    df *ABS*	00000000 fini.c
00000000 l    df *ABS*	00000000 init.c
00000000 l    df *ABS*	00000000 printf.c
00000000 l    df *ABS*	00000000 puts.c
00000000 l    df *ABS*	00000000 sysisatty.c
00000000 l    df *ABS*	00000000 wbuf.c
00000000 l    df *ABS*	00000000 wsetup.c
00000000 l    df *ABS*	00000000 __atexit.c
90000134 l     O .bss	0000008c _global_atexit0
00000000 l    df *ABS*	00000000 fflush.c
00000000 l    df *ABS*	00000000 findfp.c
80001ba2 l     F .text	00000068 std
00000000 l    df *ABS*	00000000 fwalk.c
00000000 l    df *ABS*	00000000 makebuf.c
00000000 l    df *ABS*	00000000 nano-mallocr.c
00000000 l    df *ABS*	00000000 nano-mallocr.c
00000000 l    df *ABS*	00000000 nano-vfprintf.c
80002036 l     F .text	0000002a __sfputc_r
00000000 l    df *ABS*	00000000 nano-vfprintf_i.c
00000000 l    df *ABS*	00000000 sbrkr.c
00000000 l    df *ABS*	00000000 stdio.c
00000000 l    df *ABS*	00000000 writer.c
00000000 l    df *ABS*	00000000 closer.c
00000000 l    df *ABS*	00000000 fstatr.c
00000000 l    df *ABS*	00000000 isattyr.c
00000000 l    df *ABS*	00000000 lseekr.c
00000000 l    df *ABS*	00000000 memchr.c
00000000 l    df *ABS*	00000000 mlock.c
00000000 l    df *ABS*	00000000 readr.c
00000000 l    df *ABS*	00000000 libgcc2.c
00000000 l    df *ABS*	00000000 impure.c
90000000 l     O .data	00000060 impure_data
00000000 l    df *ABS*	00000000 
800043f8 l       .rodata	00000000 __fini_array_end
800043f8 l       .rodata	00000000 __fini_array_start
800043f8 l       .rodata	00000000 __init_array_end
800043f8 l       .rodata	00000000 __preinit_array_end
800043f8 l       .rodata	00000000 __init_array_start
800043f8 l       .rodata	00000000 __preinit_array_start
80002812 g     F .text	00000028 _isatty_r
800007bc g     F .text	000002a4 LCD_ShowChar
800016d8 g     F .text	000000da _puts_r
8000283a g     F .text	0000002c _lseek_r
90000068 g     O .data	00000002 BACK_COLOR
80000524 g     F .text	00000046 PLIC_Register_IRQ
8000169e g     F .text	0000003a printf
90000860 g       .data	00000000 __global_pointer$
80002758 g     F .text	00000036 __sseek
80001c5a g     F .text	00000066 __sinit
800017be g     F .text	000000c0 __swbuf_r
80001c14 g     F .text	00000046 __sfmoreglue
80002882 g     F .text	00000002 __malloc_unlock
80002978 g     O .rodata	00000474 asc2_1206
80000ee0 g     F .text	000000aa drawSwitchMusicChart
8000065c g     F .text	0000002c LCD_Clear
800027e8 g     F .text	0000002a _fstat_r
9000008c g     O .bss	00000004 errno
00000800 g       *ABS*	00000000 __stack_size
90000086 g     O .bss	00000002 POINT_COLOR
80000304 g     F .text	00000014 uart_write
800043f8 g       .rodata	00000000 __rt_init_start
800043f8 g       .rodata	00000000 __fsymtab_end
800000b4 g       .ilalign	00000000 _ilm_lma
90000089 g     O .bss	00000001 listIdx
80001c0a g     F .text	0000000a _cleanup_r
800017b2 g     F .text	00000008 puts
800043f8 g       .rodata	00000000 __rt_init_end
90000064 g     O .data	00000004 SystemCoreClock
800017ba g     F .text	00000004 isatty
800000de  w    F .text	0000001a _fstat
80000398 g     F .text	00000012 get_cpu_freq
9000008a g     O .bss	00000001 musicItemIdx
800026b2 g     F .text	00000028 _sbrk_r
800033dc g     O .rodata	00000d5c asc2_2412
80002884 g     F .text	0000002c _read_r
800043f8 g       .rodata	00000000 _eilm
9000f800 g       .stack	00000000 _heap_end
800000f8  w    F .text	00000004 _isatty
90000080 g     O .data	00000004 _global_impure_ptr
80001598 g     F .text	0000005e __libc_init_array
800011f8 g     F .text	00000360 .hidden __udivdi3
80000122  w    F .text	0000002c _sbrk
800002c0 g     F .text	0000000a gpio_clear_interrupt
80000658 g     F .text	00000002 _init
80001562 g     F .text	00000036 __libc_fini_array
8000023a g     F .text	00000016 gpio_enable_input
800000b4 g       .ilalign	00000000 _ilm
8000056a g     F .text	000000ec _premain_init
800003aa g     F .text	00000050 delay_1ms
80004304 g     O .rodata	00000020 __sf_fake_stderr
80000f8a g     F .text	00000042 SwitchGameChartInit
90000084 g     O .bss	00000001 LCDinverse
80000494 g     F .text	00000090 core_trap_handler
80002060 g     F .text	00000042 __sfputs_r
800002ca g     F .text	0000003a uart_init
80002866 g     F .text	0000001a memchr
80001ebe g     F .text	000000a2 _free_r
90000090 g     O .bss	00000004 _global_atexit
80000250 g     F .text	00000070 gpio_enable_interrupt
90010000 g       .stack	00000000 _sp
80000000 g     F .init	00000000 _start
800000fc  w    F .text	00000004 _lseek
80001984 g     F .text	00000074 __register_exitproc
80000b04 g     F .text	0000008c plic_btn_handler
800027c0 g     F .text	00000028 _close_r
8000187e g     F .text	00000106 __swsetup_r
80001cc0 g     F .text	0000009a __sfp
800026da g     F .text	00000030 __sread
80002880 g     F .text	00000002 __malloc_lock
80001b3e g     F .text	00000064 _fflush_r
80000ca2 g     F .text	00000058 musicChange
80004324 g     O .rodata	00000020 __sf_fake_stdin
90000084 g       .bss	00000000 __bss_start
9000008b g     O .bss	00000001 tableItemIdx
800015f6 g     F .text	000000a8 memset
800000b4 g     F .text	00000020 main
80002dec g     O .rodata	000005f0 asc2_1608
800001b0  w      .text	00000000 trap_entry
8000278e g     F .text	00000006 __sclose
80001f60 g     F .text	000000d6 _malloc_r
800043f8 g       .rodata	00000000 __vsymtab_start
80000486 g     F .text	0000000e SystemInit
80000688 g     F .text	00000134 LCD_Fill
8000065a g     F .text	00000002 _fini
8000169e g     F .text	0000003a iprintf
80004204 g     O .rodata	00000100 .hidden __clz_tab
800011ea g     F .text	0000000e switch_game
80001558 g     F .text	0000000a atexit
80000d84 g     F .text	0000015c drawSwitchGameChart
80002794 g     F .text	0000002c _write_r
90000088 g     O .bss	00000001 key_data
80002336 g     F .text	0000010c _printf_common
90000078 g     O .data	00000004 _impure_ptr
800019f8 g     F .text	00000146 __sflush_r
90000000 g       .dalign	00000000 _data
800043f8 g       .rodata	00000000 __vsymtab_end
8000032e g     F .text	0000006a measure_cpu_freq
80000fcc g     F .text	0000021e SwitchGameChartRunKey
80001dc4 g     F .text	0000005c __swhatbuf_r
90000070 g     O .data	00000004 Music_P
8000014e  w    F .text	00000062 _write
90000084 g       .bss	00000000 _edata
80000656 g     F .text	00000002 _postmain_fini
80000cfa g     F .text	0000008a drawListTable
900001c0 g       .bss	00000000 _end
800043f8 g       .lalign	00000000 _data_lma
80000bc6 g     F .text	000000dc GameChange
80000318 g     F .text	00000016 uart_read
8000270a g     F .text	0000004e __swrite
800020a2 g     F .text	00000294 _vfiprintf_r
80001d5a g     F .text	0000006a _fwalk_reent
80004344 g     O .rodata	00000020 __sf_fake_stdout
80000100  w    F .text	00000022 _read
80000a60 g     F .text	000000a4 LCD_ShowString
80001e20 g     F .text	0000009e __smakebuf_r
80002442 g     F .text	00000270 _printf_i
90000098 g     O .bss	00000004 __malloc_sbrk_start
90000094 g     O .bss	00000004 __malloc_free_list
800043f8 g       .rodata	00000000 __fsymtab_start
90000074 g     O .data	00000001 musicAmp
800020a2 g     F .text	00000294 _vfprintf_r
9000006c g     O .data	00000004 LCD_P
80000228 g     F .text	00000012 gpio_iof_config
800000d4  w    F .text	0000000a _close
80000b90 g     F .text	00000036 plic_init



Disassembly of section .init:

80000000 <_start>:
_start():
C:\NucleiStudio_workspace\HBirdv2_Prj\gameMenu\Debug/../hbird_sdk/SoC/hbirdv2/Common/Source/GCC/startup_hbirdv2.S:40
 * Reset Handler called on controller reset
 */
_start:
    /* ===== Startup Stage 1 ===== */
    /* Disable Global Interrupt */
    csrc CSR_MSTATUS, MSTATUS_MIE
80000000:	30047073          	csrci	mstatus,8
C:\NucleiStudio_workspace\HBirdv2_Prj\gameMenu\Debug/../hbird_sdk/SoC/hbirdv2/Common/Source/GCC/startup_hbirdv2.S:42
    /* Disable all interrupts controlled by CSR MIE */
    csrw CSR_MIE, 0x0
80000004:	30405073          	csrwi	mie,0
C:\NucleiStudio_workspace\HBirdv2_Prj\gameMenu\Debug/../hbird_sdk/SoC/hbirdv2/Common/Source/GCC/startup_hbirdv2.S:47

    /* Initialize GP and Stack Pointer SP */
    .option push
    .option norelax
    la gp, __global_pointer$
80000008:	10001197          	auipc	gp,0x10001
8000000c:	85818193          	addi	gp,gp,-1960 # 90000860 <__global_pointer$>
C:\NucleiStudio_workspace\HBirdv2_Prj\gameMenu\Debug/../hbird_sdk/SoC/hbirdv2/Common/Source/GCC/startup_hbirdv2.S:49
    .option pop
    la sp, _sp
80000010:	10010117          	auipc	sp,0x10010
80000014:	ff010113          	addi	sp,sp,-16 # 90010000 <_sp>
C:\NucleiStudio_workspace\HBirdv2_Prj\gameMenu\Debug/../hbird_sdk/SoC/hbirdv2/Common/Source/GCC/startup_hbirdv2.S:54

    /*
     * Set Trap Entry MTVEC to trap_entry
     */
    la t0, trap_entry
80000018:	00000297          	auipc	t0,0x0
8000001c:	19828293          	addi	t0,t0,408 # 800001b0 <trap_entry>
C:\NucleiStudio_workspace\HBirdv2_Prj\gameMenu\Debug/../hbird_sdk/SoC/hbirdv2/Common/Source/GCC/startup_hbirdv2.S:55
    csrw CSR_MTVEC, t0
80000020:	30529073          	csrw	mtvec,t0
C:\NucleiStudio_workspace\HBirdv2_Prj\gameMenu\Debug/../hbird_sdk/SoC/hbirdv2/Common/Source/GCC/startup_hbirdv2.S:58

    /* Direct Mode: All exceptions set pc to BASE. */
    csrc CSR_MTVEC, 0x3
80000024:	3051f073          	csrci	mtvec,3
C:\NucleiStudio_workspace\HBirdv2_Prj\gameMenu\Debug/../hbird_sdk/SoC/hbirdv2/Common/Source/GCC/startup_hbirdv2.S:74
    /* ===== Startup Stage 3 ===== */
    /*
     * Load code section frm FLASH to ILM
     * when code LMA is different with VMA
     */
    la a0, _ilm_lma
80000028:	00000517          	auipc	a0,0x0
8000002c:	08c50513          	addi	a0,a0,140 # 800000b4 <main>
C:\NucleiStudio_workspace\HBirdv2_Prj\gameMenu\Debug/../hbird_sdk/SoC/hbirdv2/Common/Source/GCC/startup_hbirdv2.S:75
    la a1, _ilm
80000030:	00000597          	auipc	a1,0x0
80000034:	08458593          	addi	a1,a1,132 # 800000b4 <main>
C:\NucleiStudio_workspace\HBirdv2_Prj\gameMenu\Debug/../hbird_sdk/SoC/hbirdv2/Common/Source/GCC/startup_hbirdv2.S:77
    /* If the ILM phy-address same as the logic-address, then quit */
    beq a0, a1, 2f
80000038:	02b50063          	beq	a0,a1,80000058 <_start+0x58>
C:\NucleiStudio_workspace\HBirdv2_Prj\gameMenu\Debug/../hbird_sdk/SoC/hbirdv2/Common/Source/GCC/startup_hbirdv2.S:78
    la a2, _eilm
8000003c:	00004617          	auipc	a2,0x4
80000040:	3bc60613          	addi	a2,a2,956 # 800043f8 <__fsymtab_end>
C:\NucleiStudio_workspace\HBirdv2_Prj\gameMenu\Debug/../hbird_sdk/SoC/hbirdv2/Common/Source/GCC/startup_hbirdv2.S:79
    bgeu a1, a2, 2f
80000044:	00c5fa63          	bgeu	a1,a2,80000058 <_start+0x58>
C:\NucleiStudio_workspace\HBirdv2_Prj\gameMenu\Debug/../hbird_sdk/SoC/hbirdv2/Common/Source/GCC/startup_hbirdv2.S:83

1:
    /* Load code section if necessary */
    lw t0, (a0)
80000048:	00052283          	lw	t0,0(a0)
C:\NucleiStudio_workspace\HBirdv2_Prj\gameMenu\Debug/../hbird_sdk/SoC/hbirdv2/Common/Source/GCC/startup_hbirdv2.S:84
    sw t0, (a1)
8000004c:	0055a023          	sw	t0,0(a1)
C:\NucleiStudio_workspace\HBirdv2_Prj\gameMenu\Debug/../hbird_sdk/SoC/hbirdv2/Common/Source/GCC/startup_hbirdv2.S:85
    addi a0, a0, 4
80000050:	0511                	addi	a0,a0,4
C:\NucleiStudio_workspace\HBirdv2_Prj\gameMenu\Debug/../hbird_sdk/SoC/hbirdv2/Common/Source/GCC/startup_hbirdv2.S:86
    addi a1, a1, 4
80000052:	0591                	addi	a1,a1,4
C:\NucleiStudio_workspace\HBirdv2_Prj\gameMenu\Debug/../hbird_sdk/SoC/hbirdv2/Common/Source/GCC/startup_hbirdv2.S:87
    bltu a1, a2, 1b
80000054:	fec5eae3          	bltu	a1,a2,80000048 <_start+0x48>
C:\NucleiStudio_workspace\HBirdv2_Prj\gameMenu\Debug/../hbird_sdk/SoC/hbirdv2/Common/Source/GCC/startup_hbirdv2.S:90
2:
    /* Load data section */
    la a0, _data_lma
80000058:	00004517          	auipc	a0,0x4
8000005c:	3a050513          	addi	a0,a0,928 # 800043f8 <__fsymtab_end>
C:\NucleiStudio_workspace\HBirdv2_Prj\gameMenu\Debug/../hbird_sdk/SoC/hbirdv2/Common/Source/GCC/startup_hbirdv2.S:91
    la a1, _data
80000060:	10000597          	auipc	a1,0x10000
80000064:	fa058593          	addi	a1,a1,-96 # 90000000 <impure_data>
C:\NucleiStudio_workspace\HBirdv2_Prj\gameMenu\Debug/../hbird_sdk/SoC/hbirdv2/Common/Source/GCC/startup_hbirdv2.S:92
    la a2, _edata
80000068:	82418613          	addi	a2,gp,-2012 # 90000084 <LCDinverse>
C:\NucleiStudio_workspace\HBirdv2_Prj\gameMenu\Debug/../hbird_sdk/SoC/hbirdv2/Common/Source/GCC/startup_hbirdv2.S:93
    bgeu a1, a2, 2f
8000006c:	00c5fa63          	bgeu	a1,a2,80000080 <_start+0x80>
C:\NucleiStudio_workspace\HBirdv2_Prj\gameMenu\Debug/../hbird_sdk/SoC/hbirdv2/Common/Source/GCC/startup_hbirdv2.S:95
1:
    lw t0, (a0)
80000070:	00052283          	lw	t0,0(a0)
C:\NucleiStudio_workspace\HBirdv2_Prj\gameMenu\Debug/../hbird_sdk/SoC/hbirdv2/Common/Source/GCC/startup_hbirdv2.S:96
    sw t0, (a1)
80000074:	0055a023          	sw	t0,0(a1)
C:\NucleiStudio_workspace\HBirdv2_Prj\gameMenu\Debug/../hbird_sdk/SoC/hbirdv2/Common/Source/GCC/startup_hbirdv2.S:97
    addi a0, a0, 4
80000078:	0511                	addi	a0,a0,4
C:\NucleiStudio_workspace\HBirdv2_Prj\gameMenu\Debug/../hbird_sdk/SoC/hbirdv2/Common/Source/GCC/startup_hbirdv2.S:98
    addi a1, a1, 4
8000007a:	0591                	addi	a1,a1,4
C:\NucleiStudio_workspace\HBirdv2_Prj\gameMenu\Debug/../hbird_sdk/SoC/hbirdv2/Common/Source/GCC/startup_hbirdv2.S:99
    bltu a1, a2, 1b
8000007c:	fec5eae3          	bltu	a1,a2,80000070 <_start+0x70>
C:\NucleiStudio_workspace\HBirdv2_Prj\gameMenu\Debug/../hbird_sdk/SoC/hbirdv2/Common/Source/GCC/startup_hbirdv2.S:102
2:
    /* Clear bss section */
    la a0, __bss_start
80000080:	82418513          	addi	a0,gp,-2012 # 90000084 <LCDinverse>
C:\NucleiStudio_workspace\HBirdv2_Prj\gameMenu\Debug/../hbird_sdk/SoC/hbirdv2/Common/Source/GCC/startup_hbirdv2.S:103
    la a1, _end
80000084:	96018593          	addi	a1,gp,-1696 # 900001c0 <_end>
C:\NucleiStudio_workspace\HBirdv2_Prj\gameMenu\Debug/../hbird_sdk/SoC/hbirdv2/Common/Source/GCC/startup_hbirdv2.S:104
    bgeu a0, a1, 2f
80000088:	00b57763          	bgeu	a0,a1,80000096 <_start+0x96>
C:\NucleiStudio_workspace\HBirdv2_Prj\gameMenu\Debug/../hbird_sdk/SoC/hbirdv2/Common/Source/GCC/startup_hbirdv2.S:106
1:
    sw zero, (a0)
8000008c:	00052023          	sw	zero,0(a0)
C:\NucleiStudio_workspace\HBirdv2_Prj\gameMenu\Debug/../hbird_sdk/SoC/hbirdv2/Common/Source/GCC/startup_hbirdv2.S:107
    addi a0, a0, 4
80000090:	0511                	addi	a0,a0,4
C:\NucleiStudio_workspace\HBirdv2_Prj\gameMenu\Debug/../hbird_sdk/SoC/hbirdv2/Common/Source/GCC/startup_hbirdv2.S:108
    bltu a0, a1, 1b
80000092:	feb56de3          	bltu	a0,a1,8000008c <_start+0x8c>
C:\NucleiStudio_workspace\HBirdv2_Prj\gameMenu\Debug/../hbird_sdk/SoC/hbirdv2/Common/Source/GCC/startup_hbirdv2.S:115

    /*
     * Call vendor defined SystemInit to
     * initialize the micro-controller system
     */
    call SystemInit
80000096:	2ec5                	jal	80000486 <SystemInit>
C:\NucleiStudio_workspace\HBirdv2_Prj\gameMenu\Debug/../hbird_sdk/SoC/hbirdv2/Common/Source/GCC/startup_hbirdv2.S:118

    /* Call global constructors */
    la a0, __libc_fini_array
80000098:	00001517          	auipc	a0,0x1
8000009c:	4ca50513          	addi	a0,a0,1226 # 80001562 <__libc_fini_array>
C:\NucleiStudio_workspace\HBirdv2_Prj\gameMenu\Debug/../hbird_sdk/SoC/hbirdv2/Common/Source/GCC/startup_hbirdv2.S:119
    call atexit
800000a0:	4b8010ef          	jal	ra,80001558 <atexit>
C:\NucleiStudio_workspace\HBirdv2_Prj\gameMenu\Debug/../hbird_sdk/SoC/hbirdv2/Common/Source/GCC/startup_hbirdv2.S:121
    /* Call C/C++ constructor start up code */
    call __libc_init_array
800000a4:	4f4010ef          	jal	ra,80001598 <__libc_init_array>
C:\NucleiStudio_workspace\HBirdv2_Prj\gameMenu\Debug/../hbird_sdk/SoC/hbirdv2/Common/Source/GCC/startup_hbirdv2.S:124

    /* do pre-init steps before main */
    call _premain_init
800000a8:	21c9                	jal	8000056a <_premain_init>
C:\NucleiStudio_workspace\HBirdv2_Prj\gameMenu\Debug/../hbird_sdk/SoC/hbirdv2/Common/Source/GCC/startup_hbirdv2.S:127
    /* ===== Call Main Function  ===== */
    /* argc = argv = 0 */
    li a0, 0
800000aa:	4501                	li	a0,0
C:\NucleiStudio_workspace\HBirdv2_Prj\gameMenu\Debug/../hbird_sdk/SoC/hbirdv2/Common/Source/GCC/startup_hbirdv2.S:128
    li a1, 0
800000ac:	4581                	li	a1,0
C:\NucleiStudio_workspace\HBirdv2_Prj\gameMenu\Debug/../hbird_sdk/SoC/hbirdv2/Common/Source/GCC/startup_hbirdv2.S:134

#ifdef RTOS_RTTHREAD
    // Call entry function when using RT-Thread
    call entry
#else
    call main
800000ae:	2019                	jal	800000b4 <main>
C:\NucleiStudio_workspace\HBirdv2_Prj\gameMenu\Debug/../hbird_sdk/SoC/hbirdv2/Common/Source/GCC/startup_hbirdv2.S:137
#endif
    /* do post-main steps after main */
    call _postmain_fini
800000b0:	235d                	jal	80000656 <_postmain_fini>
C:\NucleiStudio_workspace\HBirdv2_Prj\gameMenu\Debug/../hbird_sdk/SoC/hbirdv2/Common/Source/GCC/startup_hbirdv2.S:140

1:
    j 1b
800000b2:	a001                	j	800000b2 <_start+0xb2>

Disassembly of section .text:

800000b4 <main>:
ps2_init():
C:\NucleiStudio_workspace\HBirdv2_Prj\gameMenu\Debug/../application/main.c:44
}

void ps2_init()
{
    int mask=0xff00ff00;
    gpio_enable_input(GPIOA, mask);
800000b4:	ff0105b7          	lui	a1,0xff010
main():
C:\NucleiStudio_workspace\HBirdv2_Prj\gameMenu\Debug/../application/main.c:33
{
800000b8:	1141                	addi	sp,sp,-16
ps2_init():
C:\NucleiStudio_workspace\HBirdv2_Prj\gameMenu\Debug/../application/main.c:44
    gpio_enable_input(GPIOA, mask);
800000ba:	f0058593          	addi	a1,a1,-256 # ff00ff00 <_sp+0x6effff00>
800000be:	10012537          	lui	a0,0x10012
main():
C:\NucleiStudio_workspace\HBirdv2_Prj\gameMenu\Debug/../application/main.c:33
{
800000c2:	c606                	sw	ra,12(sp)
ps2_init():
C:\NucleiStudio_workspace\HBirdv2_Prj\gameMenu\Debug/../application/main.c:44
    gpio_enable_input(GPIOA, mask);
800000c4:	2a9d                	jal	8000023a <gpio_enable_input>
main():
C:\NucleiStudio_workspace\HBirdv2_Prj\gameMenu\Debug/../application/main.c:35
	plic_init();		//外部中断初始化
800000c6:	2cb000ef          	jal	ra,80000b90 <plic_init>
C:\NucleiStudio_workspace\HBirdv2_Prj\gameMenu\Debug/../application/main.c:36
    LCD_Clear(WHITE);
800000ca:	6541                	lui	a0,0x10
800000cc:	157d                	addi	a0,a0,-1
800000ce:	2379                	jal	8000065c <LCD_Clear>
C:\NucleiStudio_workspace\HBirdv2_Prj\gameMenu\Debug/../application/main.c:37
    switch_game();
800000d0:	11a010ef          	jal	ra,800011ea <switch_game>

800000d4 <_close>:
_close():
C:\NucleiStudio_workspace\HBirdv2_Prj\gameMenu\Debug/../hbird_sdk/SoC/hbirdv2/Common/Source/Stubs/close.c:10
#undef errno
extern int errno;

__WEAK int _close(int fd)
{
    errno = EBADF;
800000d4:	47a5                	li	a5,9
800000d6:	82f1a623          	sw	a5,-2004(gp) # 9000008c <errno>
C:\NucleiStudio_workspace\HBirdv2_Prj\gameMenu\Debug/../hbird_sdk/SoC/hbirdv2/Common/Source/Stubs/close.c:12
    return -1;
}
800000da:	557d                	li	a0,-1
800000dc:	8082                	ret

800000de <_fstat>:
_fstat():
C:\NucleiStudio_workspace\HBirdv2_Prj\gameMenu\Debug/../hbird_sdk/SoC/hbirdv2/Common/Source/Stubs/fstat.c:12
#undef errno
extern int errno;

__WEAK int _fstat(int file, struct stat *st)
{
    if ((STDOUT_FILENO == file) || (STDERR_FILENO == file)) {
800000de:	157d                	addi	a0,a0,-1
800000e0:	4785                	li	a5,1
800000e2:	00a7e663          	bltu	a5,a0,800000ee <_fstat+0x10>
C:\NucleiStudio_workspace\HBirdv2_Prj\gameMenu\Debug/../hbird_sdk/SoC/hbirdv2/Common/Source/Stubs/fstat.c:13
        st->st_mode = S_IFCHR;
800000e6:	6789                	lui	a5,0x2
800000e8:	c1dc                	sw	a5,4(a1)
C:\NucleiStudio_workspace\HBirdv2_Prj\gameMenu\Debug/../hbird_sdk/SoC/hbirdv2/Common/Source/Stubs/fstat.c:14
        return 0;
800000ea:	4501                	li	a0,0
800000ec:	8082                	ret
C:\NucleiStudio_workspace\HBirdv2_Prj\gameMenu\Debug/../hbird_sdk/SoC/hbirdv2/Common/Source/Stubs/fstat.c:16
    } else {
        errno = EBADF;
800000ee:	47a5                	li	a5,9
800000f0:	82f1a623          	sw	a5,-2004(gp) # 9000008c <errno>
C:\NucleiStudio_workspace\HBirdv2_Prj\gameMenu\Debug/../hbird_sdk/SoC/hbirdv2/Common/Source/Stubs/fstat.c:17
        return -1;
800000f4:	557d                	li	a0,-1
C:\NucleiStudio_workspace\HBirdv2_Prj\gameMenu\Debug/../hbird_sdk/SoC/hbirdv2/Common/Source/Stubs/fstat.c:19
    }
}
800000f6:	8082                	ret

800000f8 <_isatty>:
_isatty():
C:\NucleiStudio_workspace\HBirdv2_Prj\gameMenu\Debug/../hbird_sdk/SoC/hbirdv2/Common/Source/Stubs/isatty.c:8
#include <unistd.h>

__WEAK int _isatty(int fd)
{
    return 1;
}
800000f8:	4505                	li	a0,1
800000fa:	8082                	ret

800000fc <_lseek>:
_lseek():
C:\NucleiStudio_workspace\HBirdv2_Prj\gameMenu\Debug/../hbird_sdk/SoC/hbirdv2/Common/Source/Stubs/lseek.c:11
extern int errno;

__WEAK int _lseek(int file, int offset, int whence)
{
    return 0;
}
800000fc:	4501                	li	a0,0
800000fe:	8082                	ret

80000100 <_read>:
_read():
C:\NucleiStudio_workspace\HBirdv2_Prj\gameMenu\Debug/../hbird_sdk/SoC/hbirdv2/Common/Source/Stubs/read.c:12

// #define UART_AUTO_ECHO

__WEAK ssize_t _read(int fd, void* ptr, size_t len)
{
    if (fd != STDIN_FILENO) {
80000100:	c119                	beqz	a0,80000106 <_read+0x6>
C:\NucleiStudio_workspace\HBirdv2_Prj\gameMenu\Debug/../hbird_sdk/SoC/hbirdv2/Common/Source/Stubs/read.c:13
        return -1;
80000102:	557d                	li	a0,-1
C:\NucleiStudio_workspace\HBirdv2_Prj\gameMenu\Debug/../hbird_sdk/SoC/hbirdv2/Common/Source/Stubs/read.c:22
    readbuf[0] = uart_read(SOC_DEBUG_UART);
#ifdef UART_AUTO_ECHO
    uart_write(SOC_DEBUG_UART, readbuf[0]);
#endif
    return 1;
}
80000104:	8082                	ret
C:\NucleiStudio_workspace\HBirdv2_Prj\gameMenu\Debug/../hbird_sdk/SoC/hbirdv2/Common/Source/Stubs/read.c:11
{
80000106:	1141                	addi	sp,sp,-16
C:\NucleiStudio_workspace\HBirdv2_Prj\gameMenu\Debug/../hbird_sdk/SoC/hbirdv2/Common/Source/Stubs/read.c:17
    readbuf[0] = uart_read(SOC_DEBUG_UART);
80000108:	10013537          	lui	a0,0x10013
C:\NucleiStudio_workspace\HBirdv2_Prj\gameMenu\Debug/../hbird_sdk/SoC/hbirdv2/Common/Source/Stubs/read.c:11
{
8000010c:	c422                	sw	s0,8(sp)
8000010e:	c606                	sw	ra,12(sp)
80000110:	842e                	mv	s0,a1
C:\NucleiStudio_workspace\HBirdv2_Prj\gameMenu\Debug/../hbird_sdk/SoC/hbirdv2/Common/Source/Stubs/read.c:17
    readbuf[0] = uart_read(SOC_DEBUG_UART);
80000112:	2419                	jal	80000318 <uart_read>
80000114:	00a40023          	sb	a0,0(s0)
C:\NucleiStudio_workspace\HBirdv2_Prj\gameMenu\Debug/../hbird_sdk/SoC/hbirdv2/Common/Source/Stubs/read.c:22
}
80000118:	40b2                	lw	ra,12(sp)
8000011a:	4422                	lw	s0,8(sp)
C:\NucleiStudio_workspace\HBirdv2_Prj\gameMenu\Debug/../hbird_sdk/SoC/hbirdv2/Common/Source/Stubs/read.c:21
    return 1;
8000011c:	4505                	li	a0,1
C:\NucleiStudio_workspace\HBirdv2_Prj\gameMenu\Debug/../hbird_sdk/SoC/hbirdv2/Common/Source/Stubs/read.c:22
}
8000011e:	0141                	addi	sp,sp,16
80000120:	8082                	ret

80000122 <_sbrk>:
_sbrk():
C:\NucleiStudio_workspace\HBirdv2_Prj\gameMenu\Debug/../hbird_sdk/SoC/hbirdv2/Common/Source/Stubs/sbrk.c:13
{
    extern char _end[];
    extern char _heap_end[];
    static char *curbrk = _end;

    if ((curbrk + incr < _end) || (curbrk + incr > _heap_end)) {
80000122:	10000717          	auipc	a4,0x10000
80000126:	f3e70713          	addi	a4,a4,-194 # 90000060 <curbrk.0>
8000012a:	431c                	lw	a5,0(a4)
8000012c:	96018693          	addi	a3,gp,-1696 # 900001c0 <_end>
80000130:	953e                	add	a0,a0,a5
80000132:	00d56b63          	bltu	a0,a3,80000148 <_sbrk+0x26>
C:\NucleiStudio_workspace\HBirdv2_Prj\gameMenu\Debug/../hbird_sdk/SoC/hbirdv2/Common/Source/Stubs/sbrk.c:13 (discriminator 1)
80000136:	1000f697          	auipc	a3,0x1000f
8000013a:	6ca68693          	addi	a3,a3,1738 # 9000f800 <_heap_end>
8000013e:	00a6e563          	bltu	a3,a0,80000148 <_sbrk+0x26>
C:\NucleiStudio_workspace\HBirdv2_Prj\gameMenu\Debug/../hbird_sdk/SoC/hbirdv2/Common/Source/Stubs/sbrk.c:17
        return (void *)(-1);
    }

    curbrk += incr;
80000142:	c308                	sw	a0,0(a4)
C:\NucleiStudio_workspace\HBirdv2_Prj\gameMenu\Debug/../hbird_sdk/SoC/hbirdv2/Common/Source/Stubs/sbrk.c:19
    return (void *)(curbrk - incr);
}
80000144:	853e                	mv	a0,a5
80000146:	8082                	ret
C:\NucleiStudio_workspace\HBirdv2_Prj\gameMenu\Debug/../hbird_sdk/SoC/hbirdv2/Common/Source/Stubs/sbrk.c:14
        return (void *)(-1);
80000148:	57fd                	li	a5,-1
C:\NucleiStudio_workspace\HBirdv2_Prj\gameMenu\Debug/../hbird_sdk/SoC/hbirdv2/Common/Source/Stubs/sbrk.c:19
}
8000014a:	853e                	mv	a0,a5
8000014c:	8082                	ret

8000014e <_write>:
_write():
C:\NucleiStudio_workspace\HBirdv2_Prj\gameMenu\Debug/../hbird_sdk/SoC/hbirdv2/Common/Source/Stubs/write.c:9
#include <unistd.h>
#include <sys/types.h>
#include <hbird_sdk_hal.h>

__WEAK ssize_t _write(int fd, const void* ptr, size_t len)
{
8000014e:	1101                	addi	sp,sp,-32
80000150:	cc22                	sw	s0,24(sp)
80000152:	c64e                	sw	s3,12(sp)
80000154:	ce06                	sw	ra,28(sp)
80000156:	ca26                	sw	s1,20(sp)
80000158:	c84a                	sw	s2,16(sp)
8000015a:	842e                	mv	s0,a1
8000015c:	89b2                	mv	s3,a2
C:\NucleiStudio_workspace\HBirdv2_Prj\gameMenu\Debug/../hbird_sdk/SoC/hbirdv2/Common/Source/Stubs/write.c:10
    if (!isatty(fd)) {
8000015e:	65c010ef          	jal	ra,800017ba <isatty>
80000162:	c529                	beqz	a0,800001ac <_write+0x5e>
C:\NucleiStudio_workspace\HBirdv2_Prj\gameMenu\Debug/../hbird_sdk/SoC/hbirdv2/Common/Source/Stubs/write.c:15
        return -1;
    }

    const uint8_t *writebuf = (const uint8_t *)ptr;
    for (size_t i = 0; i < len; i++) {
80000164:	01340933          	add	s2,s0,s3
C:\NucleiStudio_workspace\HBirdv2_Prj\gameMenu\Debug/../hbird_sdk/SoC/hbirdv2/Common/Source/Stubs/write.c:16
        if (writebuf[i] == '\n') {
80000168:	44a9                	li	s1,10
C:\NucleiStudio_workspace\HBirdv2_Prj\gameMenu\Debug/../hbird_sdk/SoC/hbirdv2/Common/Source/Stubs/write.c:15
    for (size_t i = 0; i < len; i++) {
8000016a:	00099963          	bnez	s3,8000017c <_write+0x2e>
8000016e:	a03d                	j	8000019c <_write+0x4e>
C:\NucleiStudio_workspace\HBirdv2_Prj\gameMenu\Debug/../hbird_sdk/SoC/hbirdv2/Common/Source/Stubs/write.c:15 (discriminator 2)
80000170:	0405                	addi	s0,s0,1
C:\NucleiStudio_workspace\HBirdv2_Prj\gameMenu\Debug/../hbird_sdk/SoC/hbirdv2/Common/Source/Stubs/write.c:19 (discriminator 2)
            uart_write(SOC_DEBUG_UART, '\r');
        }
        uart_write(SOC_DEBUG_UART, writebuf[i]);
80000172:	10013537          	lui	a0,0x10013
80000176:	2279                	jal	80000304 <uart_write>
C:\NucleiStudio_workspace\HBirdv2_Prj\gameMenu\Debug/../hbird_sdk/SoC/hbirdv2/Common/Source/Stubs/write.c:15 (discriminator 2)
    for (size_t i = 0; i < len; i++) {
80000178:	03240263          	beq	s0,s2,8000019c <_write+0x4e>
C:\NucleiStudio_workspace\HBirdv2_Prj\gameMenu\Debug/../hbird_sdk/SoC/hbirdv2/Common/Source/Stubs/write.c:16
        if (writebuf[i] == '\n') {
8000017c:	00044583          	lbu	a1,0(s0)
80000180:	fe9598e3          	bne	a1,s1,80000170 <_write+0x22>
C:\NucleiStudio_workspace\HBirdv2_Prj\gameMenu\Debug/../hbird_sdk/SoC/hbirdv2/Common/Source/Stubs/write.c:17
            uart_write(SOC_DEBUG_UART, '\r');
80000184:	45b5                	li	a1,13
80000186:	10013537          	lui	a0,0x10013
8000018a:	2aad                	jal	80000304 <uart_write>
C:\NucleiStudio_workspace\HBirdv2_Prj\gameMenu\Debug/../hbird_sdk/SoC/hbirdv2/Common/Source/Stubs/write.c:19
        uart_write(SOC_DEBUG_UART, writebuf[i]);
8000018c:	00044583          	lbu	a1,0(s0)
80000190:	10013537          	lui	a0,0x10013
C:\NucleiStudio_workspace\HBirdv2_Prj\gameMenu\Debug/../hbird_sdk/SoC/hbirdv2/Common/Source/Stubs/write.c:15
    for (size_t i = 0; i < len; i++) {
80000194:	0405                	addi	s0,s0,1
C:\NucleiStudio_workspace\HBirdv2_Prj\gameMenu\Debug/../hbird_sdk/SoC/hbirdv2/Common/Source/Stubs/write.c:19
        uart_write(SOC_DEBUG_UART, writebuf[i]);
80000196:	22bd                	jal	80000304 <uart_write>
C:\NucleiStudio_workspace\HBirdv2_Prj\gameMenu\Debug/../hbird_sdk/SoC/hbirdv2/Common/Source/Stubs/write.c:15
    for (size_t i = 0; i < len; i++) {
80000198:	ff2412e3          	bne	s0,s2,8000017c <_write+0x2e>
C:\NucleiStudio_workspace\HBirdv2_Prj\gameMenu\Debug/../hbird_sdk/SoC/hbirdv2/Common/Source/Stubs/write.c:21
    }
    return len;
8000019c:	854e                	mv	a0,s3
C:\NucleiStudio_workspace\HBirdv2_Prj\gameMenu\Debug/../hbird_sdk/SoC/hbirdv2/Common/Source/Stubs/write.c:22
}
8000019e:	40f2                	lw	ra,28(sp)
800001a0:	4462                	lw	s0,24(sp)
800001a2:	44d2                	lw	s1,20(sp)
800001a4:	4942                	lw	s2,16(sp)
800001a6:	49b2                	lw	s3,12(sp)
800001a8:	6105                	addi	sp,sp,32
800001aa:	8082                	ret
C:\NucleiStudio_workspace\HBirdv2_Prj\gameMenu\Debug/../hbird_sdk/SoC/hbirdv2/Common/Source/Stubs/write.c:11
        return -1;
800001ac:	557d                	li	a0,-1
800001ae:	bfc5                	j	8000019e <_write+0x50>

800001b0 <trap_entry>:
trap_entry():
C:\NucleiStudio_workspace\HBirdv2_Prj\gameMenu\Debug/../hbird_sdk/SoC/hbirdv2/Common/Source/GCC/intexc_hbirdv2.S:159
.align 2
.global trap_entry
.weak trap_entry
trap_entry:
    /* Save the caller saving registers (context) */
    SAVE_CONTEXT
800001b0:	715d                	addi	sp,sp,-80
800001b2:	c006                	sw	ra,0(sp)
800001b4:	c212                	sw	tp,4(sp)
800001b6:	c416                	sw	t0,8(sp)
800001b8:	c61a                	sw	t1,12(sp)
800001ba:	c81e                	sw	t2,16(sp)
800001bc:	ca2a                	sw	a0,20(sp)
800001be:	cc2e                	sw	a1,24(sp)
800001c0:	ce32                	sw	a2,28(sp)
800001c2:	d036                	sw	a3,32(sp)
800001c4:	d23a                	sw	a4,36(sp)
800001c6:	d43e                	sw	a5,40(sp)
800001c8:	dc42                	sw	a6,56(sp)
800001ca:	de46                	sw	a7,60(sp)
800001cc:	c0f2                	sw	t3,64(sp)
800001ce:	c2f6                	sw	t4,68(sp)
800001d0:	c4fa                	sw	t5,72(sp)
800001d2:	c6fe                	sw	t6,76(sp)
C:\NucleiStudio_workspace\HBirdv2_Prj\gameMenu\Debug/../hbird_sdk/SoC/hbirdv2/Common/Source/GCC/intexc_hbirdv2.S:161
    /* Save the necessary CSR registers */
    SAVE_CSR_CONTEXT
800001d4:	341022f3          	csrr	t0,mepc
800001d8:	d616                	sw	t0,44(sp)
800001da:	342022f3          	csrr	t0,mcause
800001de:	d816                	sw	t0,48(sp)
800001e0:	300022f3          	csrr	t0,mstatus
800001e4:	da16                	sw	t0,52(sp)
C:\NucleiStudio_workspace\HBirdv2_Prj\gameMenu\Debug/../hbird_sdk/SoC/hbirdv2/Common/Source/GCC/intexc_hbirdv2.S:168
    /*
     * Set the exception handler function arguments
     * argument 1: mcause value
     * argument 2: current stack point(SP) value
     */
    csrr a0, mcause
800001e6:	34202573          	csrr	a0,mcause
C:\NucleiStudio_workspace\HBirdv2_Prj\gameMenu\Debug/../hbird_sdk/SoC/hbirdv2/Common/Source/GCC/intexc_hbirdv2.S:169
    mv a1, sp
800001ea:	858a                	mv	a1,sp
C:\NucleiStudio_workspace\HBirdv2_Prj\gameMenu\Debug/../hbird_sdk/SoC/hbirdv2/Common/Source/GCC/intexc_hbirdv2.S:175
    /*
     * TODO: Call the trap handler function
     * By default, the function template is provided in
     * system_Device.c, you can adjust it as you want
     */
    call core_trap_handler
800001ec:	2465                	jal	80000494 <core_trap_handler>
C:\NucleiStudio_workspace\HBirdv2_Prj\gameMenu\Debug/../hbird_sdk/SoC/hbirdv2/Common/Source/GCC/intexc_hbirdv2.S:178

    /* Restore the necessary CSR registers */
    RESTORE_CSR_CONTEXT
800001ee:	52b2                	lw	t0,44(sp)
800001f0:	34129073          	csrw	mepc,t0
800001f4:	52c2                	lw	t0,48(sp)
800001f6:	34229073          	csrw	mcause,t0
800001fa:	52d2                	lw	t0,52(sp)
800001fc:	30029073          	csrw	mstatus,t0
C:\NucleiStudio_workspace\HBirdv2_Prj\gameMenu\Debug/../hbird_sdk/SoC/hbirdv2/Common/Source/GCC/intexc_hbirdv2.S:180
    /* Restore the caller saving registers (context) */
    RESTORE_CONTEXT
80000200:	4082                	lw	ra,0(sp)
80000202:	4212                	lw	tp,4(sp)
80000204:	42a2                	lw	t0,8(sp)
80000206:	4332                	lw	t1,12(sp)
80000208:	43c2                	lw	t2,16(sp)
8000020a:	4552                	lw	a0,20(sp)
8000020c:	45e2                	lw	a1,24(sp)
8000020e:	4672                	lw	a2,28(sp)
80000210:	5682                	lw	a3,32(sp)
80000212:	5712                	lw	a4,36(sp)
80000214:	57a2                	lw	a5,40(sp)
80000216:	5862                	lw	a6,56(sp)
80000218:	58f2                	lw	a7,60(sp)
8000021a:	4e06                	lw	t3,64(sp)
8000021c:	4e96                	lw	t4,68(sp)
8000021e:	4f26                	lw	t5,72(sp)
80000220:	4fb6                	lw	t6,76(sp)
80000222:	6161                	addi	sp,sp,80
C:\NucleiStudio_workspace\HBirdv2_Prj\gameMenu\Debug/../hbird_sdk/SoC/hbirdv2/Common/Source/GCC/intexc_hbirdv2.S:183

    /* Return to regular code */
    mret
80000224:	30200073          	mret

80000228 <gpio_iof_config>:
gpio_iof_config():
C:\NucleiStudio_workspace\HBirdv2_Prj\gameMenu\Debug/../hbird_sdk/SoC/hbirdv2/Common/Source/Drivers/hbirdv2_gpio.c:5
#include "hbirdv2.h"
#include "hbirdv2_gpio.h"

int32_t gpio_iof_config(GPIO_TypeDef *gpio, uint32_t mask)
{
80000228:	87aa                	mv	a5,a0
C:\NucleiStudio_workspace\HBirdv2_Prj\gameMenu\Debug/../hbird_sdk/SoC/hbirdv2/Common/Source/Drivers/hbirdv2_gpio.c:6
    if (__RARELY(gpio == NULL)) {
8000022a:	c511                	beqz	a0,80000236 <gpio_iof_config+0xe>
C:\NucleiStudio_workspace\HBirdv2_Prj\gameMenu\Debug/../hbird_sdk/SoC/hbirdv2/Common/Source/Drivers/hbirdv2_gpio.c:9
        return -1;
    }
    gpio->IOFCFG |= mask;
8000022c:	4d58                	lw	a4,28(a0)
C:\NucleiStudio_workspace\HBirdv2_Prj\gameMenu\Debug/../hbird_sdk/SoC/hbirdv2/Common/Source/Drivers/hbirdv2_gpio.c:11

    return 0;
8000022e:	4501                	li	a0,0
C:\NucleiStudio_workspace\HBirdv2_Prj\gameMenu\Debug/../hbird_sdk/SoC/hbirdv2/Common/Source/Drivers/hbirdv2_gpio.c:9
    gpio->IOFCFG |= mask;
80000230:	8dd9                	or	a1,a1,a4
80000232:	cfcc                	sw	a1,28(a5)
C:\NucleiStudio_workspace\HBirdv2_Prj\gameMenu\Debug/../hbird_sdk/SoC/hbirdv2/Common/Source/Drivers/hbirdv2_gpio.c:11
    return 0;
80000234:	8082                	ret
C:\NucleiStudio_workspace\HBirdv2_Prj\gameMenu\Debug/../hbird_sdk/SoC/hbirdv2/Common/Source/Drivers/hbirdv2_gpio.c:7
        return -1;
80000236:	557d                	li	a0,-1
C:\NucleiStudio_workspace\HBirdv2_Prj\gameMenu\Debug/../hbird_sdk/SoC/hbirdv2/Common/Source/Drivers/hbirdv2_gpio.c:12
}
80000238:	8082                	ret

8000023a <gpio_enable_input>:
gpio_enable_input():
C:\NucleiStudio_workspace\HBirdv2_Prj\gameMenu\Debug/../hbird_sdk/SoC/hbirdv2/Common/Source/Drivers/hbirdv2_gpio.c:25
    gpio->PADDIR |= mask;
    return 0;
}

int32_t gpio_enable_input(GPIO_TypeDef *gpio, uint32_t mask)
{
8000023a:	87aa                	mv	a5,a0
C:\NucleiStudio_workspace\HBirdv2_Prj\gameMenu\Debug/../hbird_sdk/SoC/hbirdv2/Common/Source/Drivers/hbirdv2_gpio.c:26
    if (__RARELY(gpio == NULL)) {
8000023c:	c901                	beqz	a0,8000024c <gpio_enable_input+0x12>
C:\NucleiStudio_workspace\HBirdv2_Prj\gameMenu\Debug/../hbird_sdk/SoC/hbirdv2/Common/Source/Drivers/hbirdv2_gpio.c:29
        return -1;
    }
    gpio->PADDIR &= ~mask;
8000023e:	4118                	lw	a4,0(a0)
80000240:	fff5c593          	not	a1,a1
C:\NucleiStudio_workspace\HBirdv2_Prj\gameMenu\Debug/../hbird_sdk/SoC/hbirdv2/Common/Source/Drivers/hbirdv2_gpio.c:30
    return 0;
80000244:	4501                	li	a0,0
C:\NucleiStudio_workspace\HBirdv2_Prj\gameMenu\Debug/../hbird_sdk/SoC/hbirdv2/Common/Source/Drivers/hbirdv2_gpio.c:29
    gpio->PADDIR &= ~mask;
80000246:	8df9                	and	a1,a1,a4
80000248:	c38c                	sw	a1,0(a5)
C:\NucleiStudio_workspace\HBirdv2_Prj\gameMenu\Debug/../hbird_sdk/SoC/hbirdv2/Common/Source/Drivers/hbirdv2_gpio.c:30
    return 0;
8000024a:	8082                	ret
C:\NucleiStudio_workspace\HBirdv2_Prj\gameMenu\Debug/../hbird_sdk/SoC/hbirdv2/Common/Source/Drivers/hbirdv2_gpio.c:27
        return -1;
8000024c:	557d                	li	a0,-1
C:\NucleiStudio_workspace\HBirdv2_Prj\gameMenu\Debug/../hbird_sdk/SoC/hbirdv2/Common/Source/Drivers/hbirdv2_gpio.c:31
}
8000024e:	8082                	ret

80000250 <gpio_enable_interrupt>:
gpio_enable_interrupt():
C:\NucleiStudio_workspace\HBirdv2_Prj\gameMenu\Debug/../hbird_sdk/SoC/hbirdv2/Common/Source/Drivers/hbirdv2_gpio.c:67
    return gpio->PADIN & mask;
}


int32_t gpio_enable_interrupt(GPIO_TypeDef *gpio, uint32_t mask, GPIO_INT_TYPE type)
{
80000250:	87aa                	mv	a5,a0
C:\NucleiStudio_workspace\HBirdv2_Prj\gameMenu\Debug/../hbird_sdk/SoC/hbirdv2/Common/Source/Drivers/hbirdv2_gpio.c:68
    if (__RARELY(gpio == NULL)) {
80000252:	c52d                	beqz	a0,800002bc <gpio_enable_interrupt+0x6c>
C:\NucleiStudio_workspace\HBirdv2_Prj\gameMenu\Debug/../hbird_sdk/SoC/hbirdv2/Common/Source/Drivers/hbirdv2_gpio.c:72
        return -1;
    }

    gpio->INTEN |= mask;
80000254:	4558                	lw	a4,12(a0)
C:\NucleiStudio_workspace\HBirdv2_Prj\gameMenu\Debug/../hbird_sdk/SoC/hbirdv2/Common/Source/Drivers/hbirdv2_gpio.c:74

    switch (type) {
80000256:	4689                	li	a3,2
C:\NucleiStudio_workspace\HBirdv2_Prj\gameMenu\Debug/../hbird_sdk/SoC/hbirdv2/Common/Source/Drivers/hbirdv2_gpio.c:72
    gpio->INTEN |= mask;
80000258:	8f4d                	or	a4,a4,a1
8000025a:	c558                	sw	a4,12(a0)
C:\NucleiStudio_workspace\HBirdv2_Prj\gameMenu\Debug/../hbird_sdk/SoC/hbirdv2/Common/Source/Drivers/hbirdv2_gpio.c:74
    switch (type) {
8000025c:	04d60663          	beq	a2,a3,800002a8 <gpio_enable_interrupt+0x58>
80000260:	00c6eb63          	bltu	a3,a2,80000276 <gpio_enable_interrupt+0x26>
80000264:	ca05                	beqz	a2,80000294 <gpio_enable_interrupt+0x44>
C:\NucleiStudio_workspace\HBirdv2_Prj\gameMenu\Debug/../hbird_sdk/SoC/hbirdv2/Common/Source/Drivers/hbirdv2_gpio.c:80
        case GPIO_INT_RISE:
            gpio->INTTYPE0 &= ~(mask);
            gpio->INTTYPE1 |= mask;
            break;
        case GPIO_INT_FALL:
            gpio->INTTYPE0 |= mask;
80000266:	4918                	lw	a4,16(a0)
C:\NucleiStudio_workspace\HBirdv2_Prj\gameMenu\Debug/../hbird_sdk/SoC/hbirdv2/Common/Source/Drivers/hbirdv2_gpio.c:94
            gpio->INTTYPE1 &= ~(mask);
            break;
        default:
            break;
    }
    return 0;
80000268:	4501                	li	a0,0
C:\NucleiStudio_workspace\HBirdv2_Prj\gameMenu\Debug/../hbird_sdk/SoC/hbirdv2/Common/Source/Drivers/hbirdv2_gpio.c:80
            gpio->INTTYPE0 |= mask;
8000026a:	8f4d                	or	a4,a4,a1
8000026c:	cb98                	sw	a4,16(a5)
C:\NucleiStudio_workspace\HBirdv2_Prj\gameMenu\Debug/../hbird_sdk/SoC/hbirdv2/Common/Source/Drivers/hbirdv2_gpio.c:81
            gpio->INTTYPE1 |= mask;
8000026e:	4bd8                	lw	a4,20(a5)
80000270:	8dd9                	or	a1,a1,a4
80000272:	cbcc                	sw	a1,20(a5)
C:\NucleiStudio_workspace\HBirdv2_Prj\gameMenu\Debug/../hbird_sdk/SoC/hbirdv2/Common/Source/Drivers/hbirdv2_gpio.c:82
            break;
80000274:	8082                	ret
C:\NucleiStudio_workspace\HBirdv2_Prj\gameMenu\Debug/../hbird_sdk/SoC/hbirdv2/Common/Source/Drivers/hbirdv2_gpio.c:74
    switch (type) {
80000276:	470d                	li	a4,3
80000278:	00e61c63          	bne	a2,a4,80000290 <gpio_enable_interrupt+0x40>
C:\NucleiStudio_workspace\HBirdv2_Prj\gameMenu\Debug/../hbird_sdk/SoC/hbirdv2/Common/Source/Drivers/hbirdv2_gpio.c:88
            gpio->INTTYPE0 |= mask;
8000027c:	4914                	lw	a3,16(a0)
C:\NucleiStudio_workspace\HBirdv2_Prj\gameMenu\Debug/../hbird_sdk/SoC/hbirdv2/Common/Source/Drivers/hbirdv2_gpio.c:89
            gpio->INTTYPE1 &= ~(mask);
8000027e:	fff5c713          	not	a4,a1
C:\NucleiStudio_workspace\HBirdv2_Prj\gameMenu\Debug/../hbird_sdk/SoC/hbirdv2/Common/Source/Drivers/hbirdv2_gpio.c:94
    return 0;
80000282:	4501                	li	a0,0
C:\NucleiStudio_workspace\HBirdv2_Prj\gameMenu\Debug/../hbird_sdk/SoC/hbirdv2/Common/Source/Drivers/hbirdv2_gpio.c:88
            gpio->INTTYPE0 |= mask;
80000284:	8dd5                	or	a1,a1,a3
80000286:	cb8c                	sw	a1,16(a5)
C:\NucleiStudio_workspace\HBirdv2_Prj\gameMenu\Debug/../hbird_sdk/SoC/hbirdv2/Common/Source/Drivers/hbirdv2_gpio.c:89
            gpio->INTTYPE1 &= ~(mask);
80000288:	4bd4                	lw	a3,20(a5)
8000028a:	8f75                	and	a4,a4,a3
8000028c:	cbd8                	sw	a4,20(a5)
C:\NucleiStudio_workspace\HBirdv2_Prj\gameMenu\Debug/../hbird_sdk/SoC/hbirdv2/Common/Source/Drivers/hbirdv2_gpio.c:90
            break;
8000028e:	8082                	ret
C:\NucleiStudio_workspace\HBirdv2_Prj\gameMenu\Debug/../hbird_sdk/SoC/hbirdv2/Common/Source/Drivers/hbirdv2_gpio.c:74
    switch (type) {
80000290:	4501                	li	a0,0
80000292:	8082                	ret
C:\NucleiStudio_workspace\HBirdv2_Prj\gameMenu\Debug/../hbird_sdk/SoC/hbirdv2/Common/Source/Drivers/hbirdv2_gpio.c:76
            gpio->INTTYPE0 &= ~(mask);
80000294:	4914                	lw	a3,16(a0)
80000296:	fff5c713          	not	a4,a1
C:\NucleiStudio_workspace\HBirdv2_Prj\gameMenu\Debug/../hbird_sdk/SoC/hbirdv2/Common/Source/Drivers/hbirdv2_gpio.c:94
    return 0;
8000029a:	4501                	li	a0,0
C:\NucleiStudio_workspace\HBirdv2_Prj\gameMenu\Debug/../hbird_sdk/SoC/hbirdv2/Common/Source/Drivers/hbirdv2_gpio.c:76
            gpio->INTTYPE0 &= ~(mask);
8000029c:	8f75                	and	a4,a4,a3
8000029e:	cb98                	sw	a4,16(a5)
C:\NucleiStudio_workspace\HBirdv2_Prj\gameMenu\Debug/../hbird_sdk/SoC/hbirdv2/Common/Source/Drivers/hbirdv2_gpio.c:77
            gpio->INTTYPE1 |= mask;
800002a0:	4bd8                	lw	a4,20(a5)
800002a2:	8dd9                	or	a1,a1,a4
800002a4:	cbcc                	sw	a1,20(a5)
C:\NucleiStudio_workspace\HBirdv2_Prj\gameMenu\Debug/../hbird_sdk/SoC/hbirdv2/Common/Source/Drivers/hbirdv2_gpio.c:78
            break;
800002a6:	8082                	ret
C:\NucleiStudio_workspace\HBirdv2_Prj\gameMenu\Debug/../hbird_sdk/SoC/hbirdv2/Common/Source/Drivers/hbirdv2_gpio.c:84
            gpio->INTTYPE0 &= ~(mask);
800002a8:	4918                	lw	a4,16(a0)
800002aa:	fff5c593          	not	a1,a1
C:\NucleiStudio_workspace\HBirdv2_Prj\gameMenu\Debug/../hbird_sdk/SoC/hbirdv2/Common/Source/Drivers/hbirdv2_gpio.c:94
    return 0;
800002ae:	4501                	li	a0,0
C:\NucleiStudio_workspace\HBirdv2_Prj\gameMenu\Debug/../hbird_sdk/SoC/hbirdv2/Common/Source/Drivers/hbirdv2_gpio.c:84
            gpio->INTTYPE0 &= ~(mask);
800002b0:	8f6d                	and	a4,a4,a1
800002b2:	cb98                	sw	a4,16(a5)
C:\NucleiStudio_workspace\HBirdv2_Prj\gameMenu\Debug/../hbird_sdk/SoC/hbirdv2/Common/Source/Drivers/hbirdv2_gpio.c:85
            gpio->INTTYPE1 &= ~(mask);
800002b4:	4bd8                	lw	a4,20(a5)
800002b6:	8df9                	and	a1,a1,a4
800002b8:	cbcc                	sw	a1,20(a5)
C:\NucleiStudio_workspace\HBirdv2_Prj\gameMenu\Debug/../hbird_sdk/SoC/hbirdv2/Common/Source/Drivers/hbirdv2_gpio.c:86
            break;
800002ba:	8082                	ret
C:\NucleiStudio_workspace\HBirdv2_Prj\gameMenu\Debug/../hbird_sdk/SoC/hbirdv2/Common/Source/Drivers/hbirdv2_gpio.c:69
        return -1;
800002bc:	557d                	li	a0,-1
C:\NucleiStudio_workspace\HBirdv2_Prj\gameMenu\Debug/../hbird_sdk/SoC/hbirdv2/Common/Source/Drivers/hbirdv2_gpio.c:95
}
800002be:	8082                	ret

800002c0 <gpio_clear_interrupt>:
gpio_clear_interrupt():
C:\NucleiStudio_workspace\HBirdv2_Prj\gameMenu\Debug/../hbird_sdk/SoC/hbirdv2/Common/Source/Drivers/hbirdv2_gpio.c:110
    return 0;
}

int32_t gpio_clear_interrupt(GPIO_TypeDef *gpio)
{
    if (__RARELY(gpio == NULL)) {
800002c0:	c119                	beqz	a0,800002c6 <gpio_clear_interrupt+0x6>
C:\NucleiStudio_workspace\HBirdv2_Prj\gameMenu\Debug/../hbird_sdk/SoC/hbirdv2/Common/Source/Drivers/hbirdv2_gpio.c:115
        return -1;
    }
     

    return gpio->INTSTATUS;
800002c2:	4d08                	lw	a0,24(a0)
800002c4:	8082                	ret
C:\NucleiStudio_workspace\HBirdv2_Prj\gameMenu\Debug/../hbird_sdk/SoC/hbirdv2/Common/Source/Drivers/hbirdv2_gpio.c:111
        return -1;
800002c6:	557d                	li	a0,-1
C:\NucleiStudio_workspace\HBirdv2_Prj\gameMenu\Debug/../hbird_sdk/SoC/hbirdv2/Common/Source/Drivers/hbirdv2_gpio.c:116
}
800002c8:	8082                	ret

800002ca <uart_init>:
uart_init():
C:\NucleiStudio_workspace\HBirdv2_Prj\gameMenu\Debug/../hbird_sdk/SoC/hbirdv2/Common/Source/Drivers/hbirdv2_uart.c:5
#include "hbirdv2.h"
#include "hbirdv2_uart.h"

int32_t uart_init(UART_TypeDef *uart, uint32_t baudrate)
{
800002ca:	87aa                	mv	a5,a0
C:\NucleiStudio_workspace\HBirdv2_Prj\gameMenu\Debug/../hbird_sdk/SoC/hbirdv2/Common/Source/Drivers/hbirdv2_uart.c:6
    if (__RARELY(uart == NULL)) {
800002cc:	c915                	beqz	a0,80000300 <uart_init+0x36>
C:\NucleiStudio_workspace\HBirdv2_Prj\gameMenu\Debug/../hbird_sdk/SoC/hbirdv2/Common/Source/Drivers/hbirdv2_uart.c:10
        return -1;
    }

    unsigned int uart_div = SystemCoreClock / baudrate - 1;
800002ce:	10000717          	auipc	a4,0x10000
800002d2:	d9672703          	lw	a4,-618(a4) # 90000064 <SystemCoreClock>
800002d6:	02b755b3          	divu	a1,a4,a1
C:\NucleiStudio_workspace\HBirdv2_Prj\gameMenu\Debug/../hbird_sdk/SoC/hbirdv2/Common/Source/Drivers/hbirdv2_uart.c:11
    uart->LCR = 0x80;
800002da:	08000713          	li	a4,128
800002de:	c558                	sw	a4,12(a0)
C:\NucleiStudio_workspace\HBirdv2_Prj\gameMenu\Debug/../hbird_sdk/SoC/hbirdv2/Common/Source/Drivers/hbirdv2_uart.c:17
    uart->DLM = (uart_div >> 8) & 0xFF;
    uart->DLL = uart_div        & 0xFF;
    uart->FCR = 0xC6;
    uart->LCR = 0x03;

    return 0;
800002e0:	4501                	li	a0,0
C:\NucleiStudio_workspace\HBirdv2_Prj\gameMenu\Debug/../hbird_sdk/SoC/hbirdv2/Common/Source/Drivers/hbirdv2_uart.c:10
    unsigned int uart_div = SystemCoreClock / baudrate - 1;
800002e2:	15fd                	addi	a1,a1,-1
C:\NucleiStudio_workspace\HBirdv2_Prj\gameMenu\Debug/../hbird_sdk/SoC/hbirdv2/Common/Source/Drivers/hbirdv2_uart.c:12
    uart->DLM = (uart_div >> 8) & 0xFF;
800002e4:	0085d713          	srli	a4,a1,0x8
800002e8:	0ff77713          	zext.b	a4,a4
800002ec:	c3d8                	sw	a4,4(a5)
C:\NucleiStudio_workspace\HBirdv2_Prj\gameMenu\Debug/../hbird_sdk/SoC/hbirdv2/Common/Source/Drivers/hbirdv2_uart.c:13
    uart->DLL = uart_div        & 0xFF;
800002ee:	0ff5f593          	zext.b	a1,a1
800002f2:	c38c                	sw	a1,0(a5)
C:\NucleiStudio_workspace\HBirdv2_Prj\gameMenu\Debug/../hbird_sdk/SoC/hbirdv2/Common/Source/Drivers/hbirdv2_uart.c:14
    uart->FCR = 0xC6;
800002f4:	0c600713          	li	a4,198
800002f8:	c798                	sw	a4,8(a5)
C:\NucleiStudio_workspace\HBirdv2_Prj\gameMenu\Debug/../hbird_sdk/SoC/hbirdv2/Common/Source/Drivers/hbirdv2_uart.c:15
    uart->LCR = 0x03;
800002fa:	470d                	li	a4,3
800002fc:	c7d8                	sw	a4,12(a5)
C:\NucleiStudio_workspace\HBirdv2_Prj\gameMenu\Debug/../hbird_sdk/SoC/hbirdv2/Common/Source/Drivers/hbirdv2_uart.c:17
    return 0;
800002fe:	8082                	ret
C:\NucleiStudio_workspace\HBirdv2_Prj\gameMenu\Debug/../hbird_sdk/SoC/hbirdv2/Common/Source/Drivers/hbirdv2_uart.c:7
        return -1;
80000300:	557d                	li	a0,-1
C:\NucleiStudio_workspace\HBirdv2_Prj\gameMenu\Debug/../hbird_sdk/SoC/hbirdv2/Common/Source/Drivers/hbirdv2_uart.c:18
}
80000302:	8082                	ret

80000304 <uart_write>:
uart_write():
C:\NucleiStudio_workspace\HBirdv2_Prj\gameMenu\Debug/../hbird_sdk/SoC/hbirdv2/Common/Source/Drivers/hbirdv2_uart.c:68
    return 0;
}

int32_t uart_write(UART_TypeDef *uart, uint8_t val)
{
    if (__RARELY(uart == NULL)) {
80000304:	c901                	beqz	a0,80000314 <uart_write+0x10>
C:\NucleiStudio_workspace\HBirdv2_Prj\gameMenu\Debug/../hbird_sdk/SoC/hbirdv2/Common/Source/Drivers/hbirdv2_uart.c:73 (discriminator 1)
        return -1;
    }
#ifndef SIMULATION_SPIKE
#ifndef SIMULATION_XLSPIKE
    while ((uart->LSR & 0x20) == 0);
80000306:	495c                	lw	a5,20(a0)
80000308:	0207f793          	andi	a5,a5,32
8000030c:	dfed                	beqz	a5,80000306 <uart_write+0x2>
C:\NucleiStudio_workspace\HBirdv2_Prj\gameMenu\Debug/../hbird_sdk/SoC/hbirdv2/Common/Source/Drivers/hbirdv2_uart.c:75
#endif
    uart->THR = val;
8000030e:	c10c                	sw	a1,0(a0)
C:\NucleiStudio_workspace\HBirdv2_Prj\gameMenu\Debug/../hbird_sdk/SoC/hbirdv2/Common/Source/Drivers/hbirdv2_uart.c:80
#else
    extern void htif_putc(char ch);
    htif_putc(val);
#endif
    return 0;
80000310:	4501                	li	a0,0
80000312:	8082                	ret
C:\NucleiStudio_workspace\HBirdv2_Prj\gameMenu\Debug/../hbird_sdk/SoC/hbirdv2/Common/Source/Drivers/hbirdv2_uart.c:69
        return -1;
80000314:	557d                	li	a0,-1
C:\NucleiStudio_workspace\HBirdv2_Prj\gameMenu\Debug/../hbird_sdk/SoC/hbirdv2/Common/Source/Drivers/hbirdv2_uart.c:81
}
80000316:	8082                	ret

80000318 <uart_read>:
uart_read():
C:\NucleiStudio_workspace\HBirdv2_Prj\gameMenu\Debug/../hbird_sdk/SoC/hbirdv2/Common/Source/Drivers/hbirdv2_uart.c:86

uint8_t uart_read(UART_TypeDef *uart)
{
    uint32_t reg;
    if (__RARELY(uart == NULL)) {
80000318:	c901                	beqz	a0,80000328 <uart_read+0x10>
C:\NucleiStudio_workspace\HBirdv2_Prj\gameMenu\Debug/../hbird_sdk/SoC/hbirdv2/Common/Source/Drivers/hbirdv2_uart.c:90 (discriminator 1)
        return -1;
    }
    
    while ((uart->LSR & 0x1) == 0);
8000031a:	495c                	lw	a5,20(a0)
8000031c:	8b85                	andi	a5,a5,1
8000031e:	dff5                	beqz	a5,8000031a <uart_read+0x2>
C:\NucleiStudio_workspace\HBirdv2_Prj\gameMenu\Debug/../hbird_sdk/SoC/hbirdv2/Common/Source/Drivers/hbirdv2_uart.c:91
    reg = uart->RBR;
80000320:	4108                	lw	a0,0(a0)
C:\NucleiStudio_workspace\HBirdv2_Prj\gameMenu\Debug/../hbird_sdk/SoC/hbirdv2/Common/Source/Drivers/hbirdv2_uart.c:93
    
    return (uint8_t)(reg & 0xFF);
80000322:	0ff57513          	zext.b	a0,a0
80000326:	8082                	ret
C:\NucleiStudio_workspace\HBirdv2_Prj\gameMenu\Debug/../hbird_sdk/SoC/hbirdv2/Common/Source/Drivers/hbirdv2_uart.c:87
        return -1;
80000328:	0ff00513          	li	a0,255
C:\NucleiStudio_workspace\HBirdv2_Prj\gameMenu\Debug/../hbird_sdk/SoC/hbirdv2/Common/Source/Drivers/hbirdv2_uart.c:94
}
8000032c:	8082                	ret

8000032e <measure_cpu_freq>:
SysTimer_GetLoadValue():
C:\NucleiStudio_workspace\HBirdv2_Prj\gameMenu\hbird_sdk\NMSIS\Core\Include/core_feature_timer.h:106
 * - Load value is 64bits wide.
 * - \ref SysTimer_SetLoadValue
 */
__STATIC_FORCEINLINE uint64_t SysTimer_GetLoadValue(void)
{
    return SysTimer->MTIME;
8000032e:	0200c7b7          	lui	a5,0x200c
80000332:	ff87a703          	lw	a4,-8(a5) # 200bff8 <__stack_size+0x200b7f8>
80000336:	ffc7a783          	lw	a5,-4(a5)
measure_cpu_freq():
C:\NucleiStudio_workspace\HBirdv2_Prj\gameMenu\Debug/../hbird_sdk/SoC/hbirdv2/Common/Source/hbirdv2_common.c:9
{
    return SOC_TIMER_FREQ;
}

uint32_t measure_cpu_freq(uint32_t n)
{
8000033a:	1141                	addi	sp,sp,-16
8000033c:	c606                	sw	ra,12(sp)
8000033e:	c422                	sw	s0,8(sp)
80000340:	c226                	sw	s1,4(sp)
C:\NucleiStudio_workspace\HBirdv2_Prj\gameMenu\Debug/../hbird_sdk/SoC/hbirdv2/Common/Source/hbirdv2_common.c:15
    uint32_t start_mcycle, delta_mcycle;
    uint32_t start_mtime, delta_mtime;
    uint64_t mtime_freq = get_timer_freq();

    // Don't start measuruing until we see an mtime tick
    uint32_t tmp = (uint32_t)SysTimer_GetLoadValue();
80000342:	86ba                	mv	a3,a4
SysTimer_GetLoadValue():
C:\NucleiStudio_workspace\HBirdv2_Prj\gameMenu\hbird_sdk\NMSIS\Core\Include/core_feature_timer.h:106
80000344:	0200c637          	lui	a2,0x200c
C:\NucleiStudio_workspace\HBirdv2_Prj\gameMenu\hbird_sdk\NMSIS\Core\Include/core_feature_timer.h:106 (discriminator 1)
80000348:	ff862703          	lw	a4,-8(a2) # 200bff8 <__stack_size+0x200b7f8>
8000034c:	ffc62783          	lw	a5,-4(a2)
measure_cpu_freq():
C:\NucleiStudio_workspace\HBirdv2_Prj\gameMenu\Debug/../hbird_sdk/SoC/hbirdv2/Common/Source/hbirdv2_common.c:18 (discriminator 1)
    do {
        start_mtime = (uint32_t)SysTimer_GetLoadValue();
        start_mcycle = __RV_CSR_READ(CSR_MCYCLE);
80000350:	b00024f3          	csrr	s1,mcycle
C:\NucleiStudio_workspace\HBirdv2_Prj\gameMenu\Debug/../hbird_sdk/SoC/hbirdv2/Common/Source/hbirdv2_common.c:19 (discriminator 1)
    } while (start_mtime == tmp);
80000354:	fee68ae3          	beq	a3,a4,80000348 <measure_cpu_freq+0x1a>
SysTimer_GetLoadValue():
C:\NucleiStudio_workspace\HBirdv2_Prj\gameMenu\hbird_sdk\NMSIS\Core\Include/core_feature_timer.h:106
80000358:	0200c5b7          	lui	a1,0x200c
C:\NucleiStudio_workspace\HBirdv2_Prj\gameMenu\hbird_sdk\NMSIS\Core\Include/core_feature_timer.h:106 (discriminator 1)
8000035c:	ff85a603          	lw	a2,-8(a1) # 200bff8 <__stack_size+0x200b7f8>
80000360:	ffc5a683          	lw	a3,-4(a1)
measure_cpu_freq():
C:\NucleiStudio_workspace\HBirdv2_Prj\gameMenu\Debug/../hbird_sdk/SoC/hbirdv2/Common/Source/hbirdv2_common.c:22 (discriminator 1)

    do {
        delta_mtime = (uint32_t)SysTimer_GetLoadValue() - start_mtime;
80000364:	40e60433          	sub	s0,a2,a4
C:\NucleiStudio_workspace\HBirdv2_Prj\gameMenu\Debug/../hbird_sdk/SoC/hbirdv2/Common/Source/hbirdv2_common.c:23 (discriminator 1)
        delta_mcycle = __RV_CSR_READ(CSR_MCYCLE) - start_mcycle;
80000368:	b00027f3          	csrr	a5,mcycle
C:\NucleiStudio_workspace\HBirdv2_Prj\gameMenu\Debug/../hbird_sdk/SoC/hbirdv2/Common/Source/hbirdv2_common.c:24 (discriminator 1)
    } while (delta_mtime < n);
8000036c:	fea468e3          	bltu	s0,a0,8000035c <measure_cpu_freq+0x2e>
C:\NucleiStudio_workspace\HBirdv2_Prj\gameMenu\Debug/../hbird_sdk/SoC/hbirdv2/Common/Source/hbirdv2_common.c:23
        delta_mcycle = __RV_CSR_READ(CSR_MCYCLE) - start_mcycle;
80000370:	409784b3          	sub	s1,a5,s1
C:\NucleiStudio_workspace\HBirdv2_Prj\gameMenu\Debug/../hbird_sdk/SoC/hbirdv2/Common/Source/hbirdv2_common.c:27

    return (delta_mcycle / delta_mtime) * mtime_freq
           + ((delta_mcycle % delta_mtime) * mtime_freq) / delta_mtime;
80000374:	0284f5b3          	remu	a1,s1,s0
80000378:	8622                	mv	a2,s0
8000037a:	4681                	li	a3,0
8000037c:	00f59513          	slli	a0,a1,0xf
80000380:	81c5                	srli	a1,a1,0x11
80000382:	677000ef          	jal	ra,800011f8 <__udivdi3>
C:\NucleiStudio_workspace\HBirdv2_Prj\gameMenu\Debug/../hbird_sdk/SoC/hbirdv2/Common/Source/hbirdv2_common.c:26
    return (delta_mcycle / delta_mtime) * mtime_freq
80000386:	0284d633          	divu	a2,s1,s0
C:\NucleiStudio_workspace\HBirdv2_Prj\gameMenu\Debug/../hbird_sdk/SoC/hbirdv2/Common/Source/hbirdv2_common.c:28
}
8000038a:	40b2                	lw	ra,12(sp)
8000038c:	4422                	lw	s0,8(sp)
8000038e:	4492                	lw	s1,4(sp)
80000390:	0141                	addi	sp,sp,16
C:\NucleiStudio_workspace\HBirdv2_Prj\gameMenu\Debug/../hbird_sdk/SoC/hbirdv2/Common/Source/hbirdv2_common.c:27
           + ((delta_mcycle % delta_mtime) * mtime_freq) / delta_mtime;
80000392:	063e                	slli	a2,a2,0xf
C:\NucleiStudio_workspace\HBirdv2_Prj\gameMenu\Debug/../hbird_sdk/SoC/hbirdv2/Common/Source/hbirdv2_common.c:28
}
80000394:	9532                	add	a0,a0,a2
80000396:	8082                	ret

80000398 <get_cpu_freq>:
get_cpu_freq():
C:\NucleiStudio_workspace\HBirdv2_Prj\gameMenu\Debug/../hbird_sdk/SoC/hbirdv2/Common/Source/hbirdv2_common.c:31

uint32_t get_cpu_freq(void)
{
80000398:	1141                	addi	sp,sp,-16
C:\NucleiStudio_workspace\HBirdv2_Prj\gameMenu\Debug/../hbird_sdk/SoC/hbirdv2/Common/Source/hbirdv2_common.c:35
    uint32_t cpu_freq;

    // warm up
    measure_cpu_freq(1);
8000039a:	4505                	li	a0,1
C:\NucleiStudio_workspace\HBirdv2_Prj\gameMenu\Debug/../hbird_sdk/SoC/hbirdv2/Common/Source/hbirdv2_common.c:31
{
8000039c:	c606                	sw	ra,12(sp)
C:\NucleiStudio_workspace\HBirdv2_Prj\gameMenu\Debug/../hbird_sdk/SoC/hbirdv2/Common/Source/hbirdv2_common.c:35
    measure_cpu_freq(1);
8000039e:	3f41                	jal	8000032e <measure_cpu_freq>
C:\NucleiStudio_workspace\HBirdv2_Prj\gameMenu\Debug/../hbird_sdk/SoC/hbirdv2/Common/Source/hbirdv2_common.c:40
    // measure for real
    cpu_freq = measure_cpu_freq(100);

    return cpu_freq;
}
800003a0:	40b2                	lw	ra,12(sp)
C:\NucleiStudio_workspace\HBirdv2_Prj\gameMenu\Debug/../hbird_sdk/SoC/hbirdv2/Common/Source/hbirdv2_common.c:37
    cpu_freq = measure_cpu_freq(100);
800003a2:	06400513          	li	a0,100
C:\NucleiStudio_workspace\HBirdv2_Prj\gameMenu\Debug/../hbird_sdk/SoC/hbirdv2/Common/Source/hbirdv2_common.c:40
}
800003a6:	0141                	addi	sp,sp,16
C:\NucleiStudio_workspace\HBirdv2_Prj\gameMenu\Debug/../hbird_sdk/SoC/hbirdv2/Common/Source/hbirdv2_common.c:37
    cpu_freq = measure_cpu_freq(100);
800003a8:	b759                	j	8000032e <measure_cpu_freq>

800003aa <delay_1ms>:
delay_1ms():
C:\NucleiStudio_workspace\HBirdv2_Prj\gameMenu\Debug/../hbird_sdk/SoC/hbirdv2/Common/Source/hbirdv2_common.c:50
 *             provide API for delay
 * \param[in]  count: count in milliseconds
 * \remarks
 */
void delay_1ms(uint32_t count)
{
800003aa:	85aa                	mv	a1,a0
800003ac:	1141                	addi	sp,sp,-16
C:\NucleiStudio_workspace\HBirdv2_Prj\gameMenu\Debug/../hbird_sdk/SoC/hbirdv2/Common/Source/hbirdv2_common.c:52
    uint64_t start_mtime, delta_mtime;
    uint64_t delay_ticks = (SOC_TIMER_FREQ * (uint64_t)count) / 1000;
800003ae:	3e800613          	li	a2,1000
800003b2:	4681                	li	a3,0
800003b4:	053e                	slli	a0,a0,0xf
800003b6:	81c5                	srli	a1,a1,0x11
C:\NucleiStudio_workspace\HBirdv2_Prj\gameMenu\Debug/../hbird_sdk/SoC/hbirdv2/Common/Source/hbirdv2_common.c:50
{
800003b8:	c606                	sw	ra,12(sp)
C:\NucleiStudio_workspace\HBirdv2_Prj\gameMenu\Debug/../hbird_sdk/SoC/hbirdv2/Common/Source/hbirdv2_common.c:52
    uint64_t delay_ticks = (SOC_TIMER_FREQ * (uint64_t)count) / 1000;
800003ba:	63f000ef          	jal	ra,800011f8 <__udivdi3>
SysTimer_GetLoadValue():
C:\NucleiStudio_workspace\HBirdv2_Prj\gameMenu\hbird_sdk\NMSIS\Core\Include/core_feature_timer.h:106
800003be:	0200c7b7          	lui	a5,0x200c
800003c2:	ff87a603          	lw	a2,-8(a5) # 200bff8 <__stack_size+0x200b7f8>
800003c6:	ffc7a683          	lw	a3,-4(a5)
delay_1ms():
C:\NucleiStudio_workspace\HBirdv2_Prj\gameMenu\Debug/../hbird_sdk/SoC/hbirdv2/Common/Source/hbirdv2_common.c:52
800003ca:	88aa                	mv	a7,a0
SysTimer_GetLoadValue():
C:\NucleiStudio_workspace\HBirdv2_Prj\gameMenu\hbird_sdk\NMSIS\Core\Include/core_feature_timer.h:106
800003cc:	0200c837          	lui	a6,0x200c
delay_1ms():
C:\NucleiStudio_workspace\HBirdv2_Prj\gameMenu\Debug/../hbird_sdk/SoC/hbirdv2/Common/Source/hbirdv2_common.c:52
800003d0:	852e                	mv	a0,a1
SysTimer_GetLoadValue():
C:\NucleiStudio_workspace\HBirdv2_Prj\gameMenu\hbird_sdk\NMSIS\Core\Include/core_feature_timer.h:106 (discriminator 1)
800003d2:	ff882303          	lw	t1,-8(a6) # 200bff8 <__stack_size+0x200b7f8>
800003d6:	ffc82383          	lw	t2,-4(a6)
delay_1ms():
C:\NucleiStudio_workspace\HBirdv2_Prj\gameMenu\Debug/../hbird_sdk/SoC/hbirdv2/Common/Source/hbirdv2_common.c:57 (discriminator 1)

    start_mtime = SysTimer_GetLoadValue();

    do {
        delta_mtime = SysTimer_GetLoadValue() - start_mtime;
800003da:	40c305b3          	sub	a1,t1,a2
800003de:	00b33733          	sltu	a4,t1,a1
800003e2:	40d387b3          	sub	a5,t2,a3
800003e6:	8f99                	sub	a5,a5,a4
C:\NucleiStudio_workspace\HBirdv2_Prj\gameMenu\Debug/../hbird_sdk/SoC/hbirdv2/Common/Source/hbirdv2_common.c:58 (discriminator 1)
    } while (delta_mtime < delay_ticks);
800003e8:	fea7e5e3          	bltu	a5,a0,800003d2 <delay_1ms+0x28>
800003ec:	00f51463          	bne	a0,a5,800003f4 <delay_1ms+0x4a>
800003f0:	ff15e1e3          	bltu	a1,a7,800003d2 <delay_1ms+0x28>
C:\NucleiStudio_workspace\HBirdv2_Prj\gameMenu\Debug/../hbird_sdk/SoC/hbirdv2/Common/Source/hbirdv2_common.c:59
}
800003f4:	40b2                	lw	ra,12(sp)
800003f6:	0141                	addi	sp,sp,16
800003f8:	8082                	ret

800003fa <system_default_exception_handler>:
system_default_exception_handler():
C:\NucleiStudio_workspace\HBirdv2_Prj\gameMenu\Debug/../hbird_sdk/SoC/hbirdv2/Common/Source/system_hbirdv2.c:168
 * \details
 * This function provided a default exception handling code for all exception ids.
 * By default, It will just print some information for debug, Vendor can customize it according to its requirements.
 */
static void system_default_exception_handler(unsigned long mcause, unsigned long sp)
{
800003fa:	1141                	addi	sp,sp,-16
800003fc:	c422                	sw	s0,8(sp)
800003fe:	842a                	mv	s0,a0
C:\NucleiStudio_workspace\HBirdv2_Prj\gameMenu\Debug/../hbird_sdk/SoC/hbirdv2/Common/Source/system_hbirdv2.c:170
    /* TODO: Uncomment this if you have implement printf function */
    printf("Trap in Exception\r\n");
80000400:	00002517          	auipc	a0,0x2
80000404:	4b050513          	addi	a0,a0,1200 # 800028b0 <_read_r+0x2c>
C:\NucleiStudio_workspace\HBirdv2_Prj\gameMenu\Debug/../hbird_sdk/SoC/hbirdv2/Common/Source/system_hbirdv2.c:168
{
80000408:	c606                	sw	ra,12(sp)
C:\NucleiStudio_workspace\HBirdv2_Prj\gameMenu\Debug/../hbird_sdk/SoC/hbirdv2/Common/Source/system_hbirdv2.c:170
    printf("Trap in Exception\r\n");
8000040a:	3a8010ef          	jal	ra,800017b2 <puts>
C:\NucleiStudio_workspace\HBirdv2_Prj\gameMenu\Debug/../hbird_sdk/SoC/hbirdv2/Common/Source/system_hbirdv2.c:171
    printf("MCAUSE: 0x%lx\r\n", mcause);
8000040e:	85a2                	mv	a1,s0
80000410:	00002517          	auipc	a0,0x2
80000414:	4b450513          	addi	a0,a0,1204 # 800028c4 <_read_r+0x40>
80000418:	286010ef          	jal	ra,8000169e <iprintf>
C:\NucleiStudio_workspace\HBirdv2_Prj\gameMenu\Debug/../hbird_sdk/SoC/hbirdv2/Common/Source/system_hbirdv2.c:172
    printf("MEPC  : 0x%lx\r\n", __RV_CSR_READ(CSR_MEPC));
8000041c:	341025f3          	csrr	a1,mepc
80000420:	00002517          	auipc	a0,0x2
80000424:	4b450513          	addi	a0,a0,1204 # 800028d4 <_read_r+0x50>
80000428:	276010ef          	jal	ra,8000169e <iprintf>
C:\NucleiStudio_workspace\HBirdv2_Prj\gameMenu\Debug/../hbird_sdk/SoC/hbirdv2/Common/Source/system_hbirdv2.c:173
    printf("MTVAL : 0x%lx\r\n", __RV_CSR_READ(CSR_MBADADDR));
8000042c:	343025f3          	csrr	a1,mtval
80000430:	00002517          	auipc	a0,0x2
80000434:	4b450513          	addi	a0,a0,1204 # 800028e4 <_read_r+0x60>
80000438:	266010ef          	jal	ra,8000169e <iprintf>
C:\NucleiStudio_workspace\HBirdv2_Prj\gameMenu\Debug/../hbird_sdk/SoC/hbirdv2/Common/Source/system_hbirdv2.c:174 (discriminator 1)
    while(1);
8000043c:	a001                	j	8000043c <system_default_exception_handler+0x42>

8000043e <system_default_interrupt_handler>:
system_default_interrupt_handler():
C:\NucleiStudio_workspace\HBirdv2_Prj\gameMenu\Debug/../hbird_sdk/SoC/hbirdv2/Common/Source/system_hbirdv2.c:183
 * \brief      System Default Interrupt Handler
 * \details
 * This function provided a default interrupt handling code for all interrupt ids.
 */
static void system_default_interrupt_handler(unsigned long mcause, unsigned long sp)
{
8000043e:	1141                	addi	sp,sp,-16
80000440:	c422                	sw	s0,8(sp)
80000442:	842a                	mv	s0,a0
C:\NucleiStudio_workspace\HBirdv2_Prj\gameMenu\Debug/../hbird_sdk/SoC/hbirdv2/Common/Source/system_hbirdv2.c:185
    /* TODO: Uncomment this if you have implement printf function */
    printf("Trap in Interrupt\r\n");
80000444:	00002517          	auipc	a0,0x2
80000448:	4b050513          	addi	a0,a0,1200 # 800028f4 <_read_r+0x70>
C:\NucleiStudio_workspace\HBirdv2_Prj\gameMenu\Debug/../hbird_sdk/SoC/hbirdv2/Common/Source/system_hbirdv2.c:183
{
8000044c:	c606                	sw	ra,12(sp)
C:\NucleiStudio_workspace\HBirdv2_Prj\gameMenu\Debug/../hbird_sdk/SoC/hbirdv2/Common/Source/system_hbirdv2.c:185
    printf("Trap in Interrupt\r\n");
8000044e:	364010ef          	jal	ra,800017b2 <puts>
C:\NucleiStudio_workspace\HBirdv2_Prj\gameMenu\Debug/../hbird_sdk/SoC/hbirdv2/Common/Source/system_hbirdv2.c:186
    printf("MCAUSE: 0x%lx\r\n", mcause);
80000452:	85a2                	mv	a1,s0
80000454:	00002517          	auipc	a0,0x2
80000458:	47050513          	addi	a0,a0,1136 # 800028c4 <_read_r+0x40>
8000045c:	242010ef          	jal	ra,8000169e <iprintf>
C:\NucleiStudio_workspace\HBirdv2_Prj\gameMenu\Debug/../hbird_sdk/SoC/hbirdv2/Common/Source/system_hbirdv2.c:187
    printf("MEPC  : 0x%lx\r\n", __RV_CSR_READ(CSR_MEPC));
80000460:	341025f3          	csrr	a1,mepc
80000464:	00002517          	auipc	a0,0x2
80000468:	47050513          	addi	a0,a0,1136 # 800028d4 <_read_r+0x50>
8000046c:	232010ef          	jal	ra,8000169e <iprintf>
C:\NucleiStudio_workspace\HBirdv2_Prj\gameMenu\Debug/../hbird_sdk/SoC/hbirdv2/Common/Source/system_hbirdv2.c:188
    printf("MTVAL : 0x%lx\r\n", __RV_CSR_READ(CSR_MBADADDR));
80000470:	343025f3          	csrr	a1,mtval
C:\NucleiStudio_workspace\HBirdv2_Prj\gameMenu\Debug/../hbird_sdk/SoC/hbirdv2/Common/Source/system_hbirdv2.c:189
}
80000474:	4422                	lw	s0,8(sp)
80000476:	40b2                	lw	ra,12(sp)
C:\NucleiStudio_workspace\HBirdv2_Prj\gameMenu\Debug/../hbird_sdk/SoC/hbirdv2/Common/Source/system_hbirdv2.c:188
    printf("MTVAL : 0x%lx\r\n", __RV_CSR_READ(CSR_MBADADDR));
80000478:	00002517          	auipc	a0,0x2
8000047c:	46c50513          	addi	a0,a0,1132 # 800028e4 <_read_r+0x60>
C:\NucleiStudio_workspace\HBirdv2_Prj\gameMenu\Debug/../hbird_sdk/SoC/hbirdv2/Common/Source/system_hbirdv2.c:189
}
80000480:	0141                	addi	sp,sp,16
C:\NucleiStudio_workspace\HBirdv2_Prj\gameMenu\Debug/../hbird_sdk/SoC/hbirdv2/Common/Source/system_hbirdv2.c:188
    printf("MTVAL : 0x%lx\r\n", __RV_CSR_READ(CSR_MBADADDR));
80000482:	21c0106f          	j	8000169e <iprintf>

80000486 <SystemInit>:
SystemInit():
C:\NucleiStudio_workspace\HBirdv2_Prj\gameMenu\Debug/../hbird_sdk/SoC/hbirdv2/Common/Source/system_hbirdv2.c:125
    SystemCoreClock = SYSTEM_CLOCK;
80000486:	04c4b7b7          	lui	a5,0x4c4b
8000048a:	40078793          	addi	a5,a5,1024 # 4c4b400 <__stack_size+0x4c4ac00>
8000048e:	80f1a223          	sw	a5,-2044(gp) # 90000064 <SystemCoreClock>
C:\NucleiStudio_workspace\HBirdv2_Prj\gameMenu\Debug/../hbird_sdk/SoC/hbirdv2/Common/Source/system_hbirdv2.c:126
}
80000492:	8082                	ret

80000494 <core_trap_handler>:
core_trap_handler():
C:\NucleiStudio_workspace\HBirdv2_Prj\gameMenu\Debug/../hbird_sdk/SoC/hbirdv2/Common/Source/system_hbirdv2.c:322
 * - If you want to register core exception handler, please use \ref Exception_Register_EXC
 * - If you want to register core interrupt handler, please use \ref Interrupt_Register_CoreIRQ
 * - If you want to register external interrupt handler, please use \ref Interrupt_Register_ExtIRQ
 */
uint32_t core_trap_handler(unsigned long mcause, unsigned long sp)
{
80000494:	1141                	addi	sp,sp,-16
C:\NucleiStudio_workspace\HBirdv2_Prj\gameMenu\Debug/../hbird_sdk/SoC/hbirdv2/Common/Source/system_hbirdv2.c:325
    if (mcause & MCAUSE_INTERRUPT) {
        INT_HANDLER int_handler = NULL;
        uint32_t irqn = (uint32_t)(mcause & 0X00000fff);
80000496:	01451793          	slli	a5,a0,0x14
C:\NucleiStudio_workspace\HBirdv2_Prj\gameMenu\Debug/../hbird_sdk/SoC/hbirdv2/Common/Source/system_hbirdv2.c:322
{
8000049a:	c606                	sw	ra,12(sp)
8000049c:	c422                	sw	s0,8(sp)
C:\NucleiStudio_workspace\HBirdv2_Prj\gameMenu\Debug/../hbird_sdk/SoC/hbirdv2/Common/Source/system_hbirdv2.c:325
        uint32_t irqn = (uint32_t)(mcause & 0X00000fff);
8000049e:	83d1                	srli	a5,a5,0x14
C:\NucleiStudio_workspace\HBirdv2_Prj\gameMenu\Debug/../hbird_sdk/SoC/hbirdv2/Common/Source/system_hbirdv2.c:323
    if (mcause & MCAUSE_INTERRUPT) {
800004a0:	02055163          	bgez	a0,800004c2 <core_trap_handler+0x2e>
C:\NucleiStudio_workspace\HBirdv2_Prj\gameMenu\Debug/../hbird_sdk/SoC/hbirdv2/Common/Source/system_hbirdv2.c:326
        if (irqn == IRQ_M_EXT) {
800004a4:	472d                	li	a4,11
800004a6:	04e78363          	beq	a5,a4,800004ec <core_trap_handler+0x58>
C:\NucleiStudio_workspace\HBirdv2_Prj\gameMenu\Debug/../hbird_sdk/SoC/hbirdv2/Common/Source/system_hbirdv2.c:338
                }
                PLIC_CompleteInterrupt(irqn);
            }
#endif
        } else {
            int_handler = (INT_HANDLER)(SystemCoreInterruptHandlers[irqn]);
800004aa:	078a                	slli	a5,a5,0x2
800004ac:	83c18713          	addi	a4,gp,-1988 # 9000009c <SystemCoreInterruptHandlers>
800004b0:	97ba                	add	a5,a5,a4
800004b2:	439c                	lw	a5,0(a5)
C:\NucleiStudio_workspace\HBirdv2_Prj\gameMenu\Debug/../hbird_sdk/SoC/hbirdv2/Common/Source/system_hbirdv2.c:339
            if (int_handler != NULL) {
800004b4:	c391                	beqz	a5,800004b8 <core_trap_handler+0x24>
core_exception_handler():
C:\NucleiStudio_workspace\HBirdv2_Prj\gameMenu\Debug/../hbird_sdk/SoC/hbirdv2/Common/Source/system_hbirdv2.c:371
        exc_handler = (EXC_HANDLER)SystemExceptionHandlers[EXCn];
    } else {
        exc_handler = (EXC_HANDLER)system_default_exception_handler;
    }
    if (exc_handler != NULL) {
        exc_handler(mcause, sp);
800004b6:	9782                	jalr	a5
core_trap_handler():
C:\NucleiStudio_workspace\HBirdv2_Prj\gameMenu\Debug/../hbird_sdk/SoC/hbirdv2/Common/Source/system_hbirdv2.c:347
}
800004b8:	40b2                	lw	ra,12(sp)
800004ba:	4422                	lw	s0,8(sp)
800004bc:	4501                	li	a0,0
800004be:	0141                	addi	sp,sp,16
800004c0:	8082                	ret
core_exception_handler():
C:\NucleiStudio_workspace\HBirdv2_Prj\gameMenu\Debug/../hbird_sdk/SoC/hbirdv2/Common/Source/system_hbirdv2.c:365
    if ((EXCn < MAX_SYSTEM_EXCEPTION_NUM) && (EXCn >= 0)) {
800004c2:	4629                	li	a2,10
800004c4:	872a                	mv	a4,a0
800004c6:	86ae                	mv	a3,a1
800004c8:	00f66b63          	bltu	a2,a5,800004de <core_trap_handler+0x4a>
C:\NucleiStudio_workspace\HBirdv2_Prj\gameMenu\Debug/../hbird_sdk/SoC/hbirdv2/Common/Source/system_hbirdv2.c:366
        exc_handler = (EXC_HANDLER)SystemExceptionHandlers[EXCn];
800004cc:	078a                	slli	a5,a5,0x2
800004ce:	86418613          	addi	a2,gp,-1948 # 900000c4 <SystemExceptionHandlers>
800004d2:	97b2                	add	a5,a5,a2
800004d4:	439c                	lw	a5,0(a5)
C:\NucleiStudio_workspace\HBirdv2_Prj\gameMenu\Debug/../hbird_sdk/SoC/hbirdv2/Common/Source/system_hbirdv2.c:370
    if (exc_handler != NULL) {
800004d6:	d3ed                	beqz	a5,800004b8 <core_trap_handler+0x24>
C:\NucleiStudio_workspace\HBirdv2_Prj\gameMenu\Debug/../hbird_sdk/SoC/hbirdv2/Common/Source/system_hbirdv2.c:371
        exc_handler(mcause, sp);
800004d8:	85b6                	mv	a1,a3
800004da:	853a                	mv	a0,a4
800004dc:	bfe9                	j	800004b6 <core_trap_handler+0x22>
C:\NucleiStudio_workspace\HBirdv2_Prj\gameMenu\Debug/../hbird_sdk/SoC/hbirdv2/Common/Source/system_hbirdv2.c:368
        exc_handler = (EXC_HANDLER)system_default_exception_handler;
800004de:	00000797          	auipc	a5,0x0
800004e2:	f1c78793          	addi	a5,a5,-228 # 800003fa <system_default_exception_handler>
C:\NucleiStudio_workspace\HBirdv2_Prj\gameMenu\Debug/../hbird_sdk/SoC/hbirdv2/Common/Source/system_hbirdv2.c:371
        exc_handler(mcause, sp);
800004e6:	85b6                	mv	a1,a3
800004e8:	853a                	mv	a0,a4
800004ea:	b7f1                	j	800004b6 <core_trap_handler+0x22>
PLIC_ClaimInterrupt():
C:\NucleiStudio_workspace\HBirdv2_Prj\gameMenu\hbird_sdk\NMSIS\Core\Include/core_feature_plic.h:273
 * \sa
 * - \ref PLIC_CompleteInterrupt
 */
__STATIC_FORCEINLINE uint32_t PLIC_ClaimInterrupt(void)
{
    uint32_t hartid = __RV_CSR_READ(CSR_MHARTID);
800004ec:	f14027f3          	csrr	a5,mhartid
C:\NucleiStudio_workspace\HBirdv2_Prj\gameMenu\hbird_sdk\NMSIS\Core\Include/core_feature_plic.h:274
    volatile uint32_t *claim_reg = (uint32_t *)((PLIC_BASE) + PLIC_CLAIM_OFFSET + \
800004f0:	0c200737          	lui	a4,0xc200
C:\NucleiStudio_workspace\HBirdv2_Prj\gameMenu\hbird_sdk\NMSIS\Core\Include/core_feature_plic.h:275
                    + (hartid << PLIC_CLAIM_SHIFT_PER_TARGET));
800004f4:	07b2                	slli	a5,a5,0xc
C:\NucleiStudio_workspace\HBirdv2_Prj\gameMenu\hbird_sdk\NMSIS\Core\Include/core_feature_plic.h:274
    volatile uint32_t *claim_reg = (uint32_t *)((PLIC_BASE) + PLIC_CLAIM_OFFSET + \
800004f6:	0711                	addi	a4,a4,4
800004f8:	97ba                	add	a5,a5,a4
C:\NucleiStudio_workspace\HBirdv2_Prj\gameMenu\hbird_sdk\NMSIS\Core\Include/core_feature_plic.h:277

    return (*claim_reg);
800004fa:	4380                	lw	s0,0(a5)
core_trap_handler():
C:\NucleiStudio_workspace\HBirdv2_Prj\gameMenu\Debug/../hbird_sdk/SoC/hbirdv2/Common/Source/system_hbirdv2.c:329
            if (irqn < __PLIC_INTNUM) {
800004fc:	47c1                	li	a5,16
800004fe:	fa87ede3          	bltu	a5,s0,800004b8 <core_trap_handler+0x24>
C:\NucleiStudio_workspace\HBirdv2_Prj\gameMenu\Debug/../hbird_sdk/SoC/hbirdv2/Common/Source/system_hbirdv2.c:330
                int_handler = (INT_HANDLER)(SystemExtInterruptHandlers[irqn]);
80000502:	00241713          	slli	a4,s0,0x2
80000506:	89018793          	addi	a5,gp,-1904 # 900000f0 <SystemExtInterruptHandlers>
8000050a:	97ba                	add	a5,a5,a4
8000050c:	439c                	lw	a5,0(a5)
C:\NucleiStudio_workspace\HBirdv2_Prj\gameMenu\Debug/../hbird_sdk/SoC/hbirdv2/Common/Source/system_hbirdv2.c:331
                if (int_handler != NULL) {
8000050e:	c391                	beqz	a5,80000512 <core_trap_handler+0x7e>
C:\NucleiStudio_workspace\HBirdv2_Prj\gameMenu\Debug/../hbird_sdk/SoC/hbirdv2/Common/Source/system_hbirdv2.c:332
                    int_handler(mcause, sp);
80000510:	9782                	jalr	a5
PLIC_CompleteInterrupt():
C:\NucleiStudio_workspace\HBirdv2_Prj\gameMenu\hbird_sdk\NMSIS\Core\Include/core_feature_plic.h:298
 * \sa
 * - \ref PLIC_ClaimInterrupt
 */
__STATIC_FORCEINLINE void PLIC_CompleteInterrupt(uint32_t source)
{
    uint32_t hartid = __RV_CSR_READ(CSR_MHARTID);
80000512:	f14027f3          	csrr	a5,mhartid
C:\NucleiStudio_workspace\HBirdv2_Prj\gameMenu\hbird_sdk\NMSIS\Core\Include/core_feature_plic.h:299
    volatile uint32_t *complete_reg = (uint32_t *)((PLIC_BASE) + PLIC_CLAIM_OFFSET + \
80000516:	0c200737          	lui	a4,0xc200
C:\NucleiStudio_workspace\HBirdv2_Prj\gameMenu\hbird_sdk\NMSIS\Core\Include/core_feature_plic.h:300
                    + (hartid << PLIC_CLAIM_SHIFT_PER_TARGET));
8000051a:	07b2                	slli	a5,a5,0xc
C:\NucleiStudio_workspace\HBirdv2_Prj\gameMenu\hbird_sdk\NMSIS\Core\Include/core_feature_plic.h:299
    volatile uint32_t *complete_reg = (uint32_t *)((PLIC_BASE) + PLIC_CLAIM_OFFSET + \
8000051c:	0711                	addi	a4,a4,4
8000051e:	97ba                	add	a5,a5,a4
C:\NucleiStudio_workspace\HBirdv2_Prj\gameMenu\hbird_sdk\NMSIS\Core\Include/core_feature_plic.h:302

    *complete_reg = source;
80000520:	c380                	sw	s0,0(a5)
C:\NucleiStudio_workspace\HBirdv2_Prj\gameMenu\hbird_sdk\NMSIS\Core\Include/core_feature_plic.h:303
}
80000522:	bf59                	j	800004b8 <core_trap_handler+0x24>

80000524 <PLIC_Register_IRQ>:
PLIC_Register_IRQ():
C:\NucleiStudio_workspace\HBirdv2_Prj\gameMenu\Debug/../hbird_sdk/SoC/hbirdv2/Common/Source/system_hbirdv2.c:437
 * \remarks
 * - This function use to configure specific plic interrupt and register its interrupt handler and enable its interrupt.
 */
int32_t PLIC_Register_IRQ(uint32_t source, uint8_t priority, void *handler)
{
    if ((source >= __PLIC_INTNUM)) {
80000524:	47c1                	li	a5,16
80000526:	04a7e063          	bltu	a5,a0,80000566 <PLIC_Register_IRQ+0x42>
PLIC_SetPriority():
C:\NucleiStudio_workspace\HBirdv2_Prj\gameMenu\hbird_sdk\NMSIS\Core\Include/core_feature_plic.h:235
                    + (source << PLIC_PRIORITY_SHIFT_PER_SOURCE));
8000052a:	00251713          	slli	a4,a0,0x2
C:\NucleiStudio_workspace\HBirdv2_Prj\gameMenu\hbird_sdk\NMSIS\Core\Include/core_feature_plic.h:234
    volatile uint32_t *priority_reg = (uint32_t *)((PLIC_BASE) + PLIC_PRIORITY_OFFSET + \
8000052e:	0c0007b7          	lui	a5,0xc000
80000532:	97ba                	add	a5,a5,a4
C:\NucleiStudio_workspace\HBirdv2_Prj\gameMenu\hbird_sdk\NMSIS\Core\Include/core_feature_plic.h:237
    *priority_reg = priority;
80000534:	c38c                	sw	a1,0(a5)
PLIC_Register_IRQ():
C:\NucleiStudio_workspace\HBirdv2_Prj\gameMenu\Debug/../hbird_sdk/SoC/hbirdv2/Common/Source/system_hbirdv2.c:443
        return -1;
    }

    /* set interrupt priority */
    PLIC_SetPriority(source, priority);
    if (handler != NULL) {
80000536:	c609                	beqz	a2,80000540 <PLIC_Register_IRQ+0x1c>
Interrupt_Register_ExtIRQ():
C:\NucleiStudio_workspace\HBirdv2_Prj\gameMenu\Debug/../hbird_sdk/SoC/hbirdv2/Common/Source/system_hbirdv2.c:261
        SystemExtInterruptHandlers[irqn] = int_handler;
80000538:	89018793          	addi	a5,gp,-1904 # 900000f0 <SystemExtInterruptHandlers>
8000053c:	97ba                	add	a5,a5,a4
8000053e:	c390                	sw	a2,0(a5)
PLIC_EnableInterrupt():
C:\NucleiStudio_workspace\HBirdv2_Prj\gameMenu\hbird_sdk\NMSIS\Core\Include/core_feature_plic.h:171
    uint32_t hartid = __RV_CSR_READ(CSR_MHARTID);
80000540:	f14027f3          	csrr	a5,mhartid
C:\NucleiStudio_workspace\HBirdv2_Prj\gameMenu\hbird_sdk\NMSIS\Core\Include/core_feature_plic.h:173
                    (hartid << PLIC_ENABLE_SHIFT_PER_TARGET) + (source >> 5) * 4);
80000544:	0c002737          	lui	a4,0xc002
80000548:	079e                	slli	a5,a5,0x7
8000054a:	97ba                	add	a5,a5,a4
C:\NucleiStudio_workspace\HBirdv2_Prj\gameMenu\hbird_sdk\NMSIS\Core\Include/core_feature_plic.h:175
    uint32_t current = *enable_reg;
8000054c:	4394                	lw	a3,0(a5)
C:\NucleiStudio_workspace\HBirdv2_Prj\gameMenu\hbird_sdk\NMSIS\Core\Include/core_feature_plic.h:176
    current = current | (1<<(source&0x1F));
8000054e:	4705                	li	a4,1
80000550:	00a71533          	sll	a0,a4,a0
80000554:	8d55                	or	a0,a0,a3
C:\NucleiStudio_workspace\HBirdv2_Prj\gameMenu\hbird_sdk\NMSIS\Core\Include/core_feature_plic.h:177
    *enable_reg = current;
80000556:	c388                	sw	a0,0(a5)
__enable_ext_irq():
C:\NucleiStudio_workspace\HBirdv2_Prj\gameMenu\hbird_sdk\NMSIS\Core\Include/core_feature_base.h:377
 * \remarks
 *          Can only be executed in Privileged modes.
 */
__STATIC_FORCEINLINE void __enable_ext_irq(void)
{
    __RV_CSR_SET(CSR_MIE, MIE_MEIE);
80000558:	6785                	lui	a5,0x1
8000055a:	80078793          	addi	a5,a5,-2048 # 800 <__stack_size>
8000055e:	3047a073          	csrs	mie,a5
PLIC_Register_IRQ():
C:\NucleiStudio_workspace\HBirdv2_Prj\gameMenu\Debug/../hbird_sdk/SoC/hbirdv2/Common/Source/system_hbirdv2.c:450
        Interrupt_Register_ExtIRQ(source, (unsigned long)handler);
    }
    /* enable interrupt */
    PLIC_EnableInterrupt(source);
    __enable_ext_irq();
    return 0;
80000562:	4501                	li	a0,0
80000564:	8082                	ret
C:\NucleiStudio_workspace\HBirdv2_Prj\gameMenu\Debug/../hbird_sdk/SoC/hbirdv2/Common/Source/system_hbirdv2.c:438
        return -1;
80000566:	557d                	li	a0,-1
C:\NucleiStudio_workspace\HBirdv2_Prj\gameMenu\Debug/../hbird_sdk/SoC/hbirdv2/Common/Source/system_hbirdv2.c:451
}
80000568:	8082                	ret

8000056a <_premain_init>:
_premain_init():
C:\NucleiStudio_workspace\HBirdv2_Prj\gameMenu\Debug/../hbird_sdk/SoC/hbirdv2/Common/Source/system_hbirdv2.c:464
 * For RISC-V gnu toolchain, _init function might not be called
 * by __libc_init_array function, so we defined a new function
 * to do initialization
 */
void _premain_init(void)
{
8000056a:	1141                	addi	sp,sp,-16
8000056c:	c606                	sw	ra,12(sp)
8000056e:	c422                	sw	s0,8(sp)
C:\NucleiStudio_workspace\HBirdv2_Prj\gameMenu\Debug/../hbird_sdk/SoC/hbirdv2/Common/Source/system_hbirdv2.c:466
    /* TODO: Add your own initialization code here, called before main */
    SystemCoreClock = get_cpu_freq();
80000570:	3525                	jal	80000398 <get_cpu_freq>
80000572:	87aa                	mv	a5,a0
80000574:	80418413          	addi	s0,gp,-2044 # 90000064 <SystemCoreClock>
C:\NucleiStudio_workspace\HBirdv2_Prj\gameMenu\Debug/../hbird_sdk/SoC/hbirdv2/Common/Source/system_hbirdv2.c:468
#if ! defined(SIMULATION_SPIKE) && ! defined(SIMULATION_XLSPIKE)
    gpio_iof_config(GPIOA, IOF_UART_MASK);
80000578:	000305b7          	lui	a1,0x30
8000057c:	10012537          	lui	a0,0x10012
C:\NucleiStudio_workspace\HBirdv2_Prj\gameMenu\Debug/../hbird_sdk/SoC/hbirdv2/Common/Source/system_hbirdv2.c:466
    SystemCoreClock = get_cpu_freq();
80000580:	c01c                	sw	a5,0(s0)
C:\NucleiStudio_workspace\HBirdv2_Prj\gameMenu\Debug/../hbird_sdk/SoC/hbirdv2/Common/Source/system_hbirdv2.c:468
    gpio_iof_config(GPIOA, IOF_UART_MASK);
80000582:	315d                	jal	80000228 <gpio_iof_config>
C:\NucleiStudio_workspace\HBirdv2_Prj\gameMenu\Debug/../hbird_sdk/SoC/hbirdv2/Common/Source/system_hbirdv2.c:469
    uart_init(SOC_DEBUG_UART, 115200);
80000584:	65f1                	lui	a1,0x1c
80000586:	20058593          	addi	a1,a1,512 # 1c200 <__stack_size+0x1ba00>
8000058a:	10013537          	lui	a0,0x10013
8000058e:	3b35                	jal	800002ca <uart_init>
SystemBannerPrint():
C:\NucleiStudio_workspace\HBirdv2_Prj\gameMenu\Debug/../hbird_sdk/SoC/hbirdv2/Common/Source/system_hbirdv2.c:381
    printf("HummingBird SDK Build Time: %s, %s\r\n", __DATE__, __TIME__);
80000590:	00002617          	auipc	a2,0x2
80000594:	37860613          	addi	a2,a2,888 # 80002908 <_read_r+0x84>
80000598:	00002597          	auipc	a1,0x2
8000059c:	37c58593          	addi	a1,a1,892 # 80002914 <_read_r+0x90>
800005a0:	00002517          	auipc	a0,0x2
800005a4:	38050513          	addi	a0,a0,896 # 80002920 <_read_r+0x9c>
800005a8:	0f6010ef          	jal	ra,8000169e <iprintf>
C:\NucleiStudio_workspace\HBirdv2_Prj\gameMenu\Debug/../hbird_sdk/SoC/hbirdv2/Common/Source/system_hbirdv2.c:383
    printf("Download Mode: %s\r\n", DOWNLOAD_MODE_STRING);
800005ac:	00002597          	auipc	a1,0x2
800005b0:	39c58593          	addi	a1,a1,924 # 80002948 <_read_r+0xc4>
800005b4:	00002517          	auipc	a0,0x2
800005b8:	39850513          	addi	a0,a0,920 # 8000294c <_read_r+0xc8>
800005bc:	0e2010ef          	jal	ra,8000169e <iprintf>
C:\NucleiStudio_workspace\HBirdv2_Prj\gameMenu\Debug/../hbird_sdk/SoC/hbirdv2/Common/Source/system_hbirdv2.c:385
    printf("CPU Frequency %lu Hz\r\n", SystemCoreClock);
800005c0:	400c                	lw	a1,0(s0)
800005c2:	00002517          	auipc	a0,0x2
800005c6:	39e50513          	addi	a0,a0,926 # 80002960 <_read_r+0xdc>
800005ca:	0d4010ef          	jal	ra,8000169e <iprintf>
Exception_Init():
C:\NucleiStudio_workspace\HBirdv2_Prj\gameMenu\Debug/../hbird_sdk/SoC/hbirdv2/Common/Source/system_hbirdv2.c:201
        SystemExceptionHandlers[i] = (unsigned long)system_default_exception_handler;
800005ce:	00000697          	auipc	a3,0x0
800005d2:	e2c68693          	addi	a3,a3,-468 # 800003fa <system_default_exception_handler>
800005d6:	86418793          	addi	a5,gp,-1948 # 900000c4 <SystemExceptionHandlers>
800005da:	89018713          	addi	a4,gp,-1904 # 900000f0 <SystemExtInterruptHandlers>
800005de:	c394                	sw	a3,0(a5)
C:\NucleiStudio_workspace\HBirdv2_Prj\gameMenu\Debug/../hbird_sdk/SoC/hbirdv2/Common/Source/system_hbirdv2.c:200
    for (int i = 0; i < MAX_SYSTEM_EXCEPTION_NUM; i++) {
800005e0:	0791                	addi	a5,a5,4
800005e2:	fee79ee3          	bne	a5,a4,800005de <_premain_init+0x74>
Interrupt_Init():
C:\NucleiStudio_workspace\HBirdv2_Prj\gameMenu\Debug/../hbird_sdk/SoC/hbirdv2/Common/Source/system_hbirdv2.c:216
        SystemExtInterruptHandlers[i] = (unsigned long)system_default_interrupt_handler;
800005e6:	00000717          	auipc	a4,0x0
800005ea:	e5870713          	addi	a4,a4,-424 # 8000043e <system_default_interrupt_handler>
800005ee:	89018793          	addi	a5,gp,-1904 # 900000f0 <SystemExtInterruptHandlers>
800005f2:	8d418693          	addi	a3,gp,-1836 # 90000134 <_global_atexit0>
800005f6:	c398                	sw	a4,0(a5)
C:\NucleiStudio_workspace\HBirdv2_Prj\gameMenu\Debug/../hbird_sdk/SoC/hbirdv2/Common/Source/system_hbirdv2.c:215
    for (i = 0; i < __PLIC_INTNUM; i++) {
800005f8:	0791                	addi	a5,a5,4
800005fa:	fef69ee3          	bne	a3,a5,800005f6 <_premain_init+0x8c>
800005fe:	83c18793          	addi	a5,gp,-1988 # 9000009c <SystemCoreInterruptHandlers>
80000602:	86418693          	addi	a3,gp,-1948 # 900000c4 <SystemExceptionHandlers>
C:\NucleiStudio_workspace\HBirdv2_Prj\gameMenu\Debug/../hbird_sdk/SoC/hbirdv2/Common/Source/system_hbirdv2.c:219
        SystemCoreInterruptHandlers[i] = (unsigned long)system_default_interrupt_handler;
80000606:	c398                	sw	a4,0(a5)
C:\NucleiStudio_workspace\HBirdv2_Prj\gameMenu\Debug/../hbird_sdk/SoC/hbirdv2/Common/Source/system_hbirdv2.c:218
    for (i = 0; i < 10; i++) {
80000608:	0791                	addi	a5,a5,4
8000060a:	fed79ee3          	bne	a5,a3,80000606 <_premain_init+0x9c>
8000060e:	0c000637          	lui	a2,0xc000
PLIC_Init():
C:\NucleiStudio_workspace\HBirdv2_Prj\gameMenu\hbird_sdk\NMSIS\Core\Include/core_feature_plic.h:318
 */
__STATIC_FORCEINLINE void PLIC_Init(uint32_t num_sources)
{
    uint32_t i;

    for (i = 0; i < num_sources; i ++) {
80000612:	4681                	li	a3,0
PLIC_DisableInterrupt():
C:\NucleiStudio_workspace\HBirdv2_Prj\gameMenu\hbird_sdk\NMSIS\Core\Include/core_feature_plic.h:193
                    (hartid << PLIC_ENABLE_SHIFT_PER_TARGET) + (source >> 5) * 4);
80000614:	0c0028b7          	lui	a7,0xc002
C:\NucleiStudio_workspace\HBirdv2_Prj\gameMenu\hbird_sdk\NMSIS\Core\Include/core_feature_plic.h:196
    current = current & (~(1<<(source&0x1F)));
80000618:	4805                	li	a6,1
PLIC_Init():
C:\NucleiStudio_workspace\HBirdv2_Prj\gameMenu\hbird_sdk\NMSIS\Core\Include/core_feature_plic.h:318
    for (i = 0; i < num_sources; i ++) {
8000061a:	4545                	li	a0,17
PLIC_DisableInterrupt():
C:\NucleiStudio_workspace\HBirdv2_Prj\gameMenu\hbird_sdk\NMSIS\Core\Include/core_feature_plic.h:191
    uint32_t hartid = __RV_CSR_READ(CSR_MHARTID);
8000061c:	f14027f3          	csrr	a5,mhartid
C:\NucleiStudio_workspace\HBirdv2_Prj\gameMenu\hbird_sdk\NMSIS\Core\Include/core_feature_plic.h:193
                    (hartid << PLIC_ENABLE_SHIFT_PER_TARGET) + (source >> 5) * 4);
80000620:	079e                	slli	a5,a5,0x7
80000622:	97c6                	add	a5,a5,a7
C:\NucleiStudio_workspace\HBirdv2_Prj\gameMenu\hbird_sdk\NMSIS\Core\Include/core_feature_plic.h:195
    uint32_t current = *enable_reg;
80000624:	438c                	lw	a1,0(a5)
C:\NucleiStudio_workspace\HBirdv2_Prj\gameMenu\hbird_sdk\NMSIS\Core\Include/core_feature_plic.h:196
    current = current & (~(1<<(source&0x1F)));
80000626:	00d81733          	sll	a4,a6,a3
8000062a:	fff74713          	not	a4,a4
8000062e:	8f6d                	and	a4,a4,a1
C:\NucleiStudio_workspace\HBirdv2_Prj\gameMenu\hbird_sdk\NMSIS\Core\Include/core_feature_plic.h:197
    *enable_reg = current;
80000630:	c398                	sw	a4,0(a5)
PLIC_SetPriority():
C:\NucleiStudio_workspace\HBirdv2_Prj\gameMenu\hbird_sdk\NMSIS\Core\Include/core_feature_plic.h:237
    *priority_reg = priority;
80000632:	00062023          	sw	zero,0(a2) # c000000 <__stack_size+0xbfff800>
PLIC_Init():
C:\NucleiStudio_workspace\HBirdv2_Prj\gameMenu\hbird_sdk\NMSIS\Core\Include/core_feature_plic.h:318
    for (i = 0; i < num_sources; i ++) {
80000636:	0685                	addi	a3,a3,1
80000638:	0611                	addi	a2,a2,4
8000063a:	fea691e3          	bne	a3,a0,8000061c <_premain_init+0xb2>
PLIC_SetThreshold():
C:\NucleiStudio_workspace\HBirdv2_Prj\gameMenu\hbird_sdk\NMSIS\Core\Include/core_feature_plic.h:135
    uint32_t hartid = __RV_CSR_READ(CSR_MHARTID);
8000063e:	f14027f3          	csrr	a5,mhartid
C:\NucleiStudio_workspace\HBirdv2_Prj\gameMenu\hbird_sdk\NMSIS\Core\Include/core_feature_plic.h:137
                    PLIC_THRESHOLD_OFFSET + (hartid << PLIC_THRESHOLD_SHIFT_PER_TARGET));
80000642:	0c200737          	lui	a4,0xc200
_premain_init():
C:\NucleiStudio_workspace\HBirdv2_Prj\gameMenu\Debug/../hbird_sdk/SoC/hbirdv2/Common/Source/system_hbirdv2.c:481
    Interrupt_Init();
#if defined(__PLIC_PRESENT) && __PLIC_PRESENT == 1
    /* PLIC initilization */
    PLIC_Init(__PLIC_INTNUM);
#endif
}
80000646:	40b2                	lw	ra,12(sp)
80000648:	4422                	lw	s0,8(sp)
PLIC_SetThreshold():
C:\NucleiStudio_workspace\HBirdv2_Prj\gameMenu\hbird_sdk\NMSIS\Core\Include/core_feature_plic.h:137
8000064a:	07b2                	slli	a5,a5,0xc
8000064c:	97ba                	add	a5,a5,a4
C:\NucleiStudio_workspace\HBirdv2_Prj\gameMenu\hbird_sdk\NMSIS\Core\Include/core_feature_plic.h:139
    *thresh_reg = thresh;
8000064e:	0007a023          	sw	zero,0(a5)
_premain_init():
C:\NucleiStudio_workspace\HBirdv2_Prj\gameMenu\Debug/../hbird_sdk/SoC/hbirdv2/Common/Source/system_hbirdv2.c:481
80000652:	0141                	addi	sp,sp,16
80000654:	8082                	ret

80000656 <_postmain_fini>:
_postmain_fini():
C:\NucleiStudio_workspace\HBirdv2_Prj\gameMenu\Debug/../hbird_sdk/SoC/hbirdv2/Common/Source/system_hbirdv2.c:507
#ifdef SIMULATION_RTL
extern void rtlsim_exit(int status);
    rtlsim_exit(status);
#endif

}
80000656:	8082                	ret

80000658 <_init>:
_init():
C:\NucleiStudio_workspace\HBirdv2_Prj\gameMenu\Debug/../hbird_sdk/SoC/hbirdv2/Common/Source/system_hbirdv2.c:521
 * Please use \ref _premain_init function now
 */
void _init(void)
{
    /* Don't put any code here, please use _premain_init now */
}
80000658:	8082                	ret

8000065a <_fini>:
_fini():
8000065a:	8082                	ret

8000065c <LCD_Clear>:
LCD_Clear():
C:\NucleiStudio_workspace\HBirdv2_Prj\gameMenu\Debug/../application/lcd.c:46
{
	//每个像素点是16位宽的
	//可以把两个16位宽的像素组成一个32位宽的像素一次性写入，从而减少写入次数
	//经过测试，用时可以减少一半
	uint32_t*P=(uint32_t*)0x80200000;
	uint32_t color_n2w= (uint32_t)color<<16;
8000065c:	01051693          	slli	a3,a0,0x10
C:\NucleiStudio_workspace\HBirdv2_Prj\gameMenu\Debug/../application/lcd.c:47
	color_n2w = color_n2w + color;
80000660:	80200737          	lui	a4,0x80200
C:\NucleiStudio_workspace\HBirdv2_Prj\gameMenu\Debug/../application/lcd.c:48
	for(int i=0;i<LCD_H_MAX;i++)
80000664:	80296637          	lui	a2,0x80296
C:\NucleiStudio_workspace\HBirdv2_Prj\gameMenu\Debug/../application/lcd.c:47
	color_n2w = color_n2w + color;
80000668:	96aa                	add	a3,a3,a0
8000066a:	50070713          	addi	a4,a4,1280 # 80200500 <_sp+0xf01f0500>
C:\NucleiStudio_workspace\HBirdv2_Prj\gameMenu\Debug/../application/lcd.c:48
	for(int i=0;i<LCD_H_MAX;i++)
8000066e:	50060613          	addi	a2,a2,1280 # 80296500 <_sp+0xf0286500>
C:\NucleiStudio_workspace\HBirdv2_Prj\gameMenu\Debug/../application/lcd.c:50
	{
		for(int j=0;j<LCD_W_MAX/2;j++)
80000672:	b0070793          	addi	a5,a4,-1280
C:\NucleiStudio_workspace\HBirdv2_Prj\gameMenu\Debug/../application/lcd.c:52 (discriminator 3)
		{
			*(P+i*LCD_W_MAX/2+j)=color_n2w;
80000676:	c394                	sw	a3,0(a5)
C:\NucleiStudio_workspace\HBirdv2_Prj\gameMenu\Debug/../application/lcd.c:50 (discriminator 3)
		for(int j=0;j<LCD_W_MAX/2;j++)
80000678:	0791                	addi	a5,a5,4
8000067a:	fee79ee3          	bne	a5,a4,80000676 <LCD_Clear+0x1a>
C:\NucleiStudio_workspace\HBirdv2_Prj\gameMenu\Debug/../application/lcd.c:48 (discriminator 2)
	for(int i=0;i<LCD_H_MAX;i++)
8000067e:	50078713          	addi	a4,a5,1280
80000682:	fec718e3          	bne	a4,a2,80000672 <LCD_Clear+0x16>
C:\NucleiStudio_workspace\HBirdv2_Prj\gameMenu\Debug/../application/lcd.c:55
		}
	}
}  
80000686:	8082                	ret

80000688 <LCD_Fill>:
LCD_Fill():
C:\NucleiStudio_workspace\HBirdv2_Prj\gameMenu\Debug/../application/lcd.c:62
//(sx,sy),(ex,ey):填充矩形对角坐标,区域大小为:(ex-sx+1)*(ey-sy+1)   
//color:要填充的颜色
void LCD_Fill(int16_t sx,int16_t sy,uint16_t w,uint16_t h,uint16_t color)
{          

    int16_t ex=sx+w;
80000688:	fff54793          	not	a5,a0
8000068c:	41f7d893          	srai	a7,a5,0x1f
80000690:	fff5c813          	not	a6,a1
80000694:	00a607b3          	add	a5,a2,a0
C:\NucleiStudio_workspace\HBirdv2_Prj\gameMenu\Debug/../application/lcd.c:63
    int16_t ey=sy+h;
80000698:	96ae                	add	a3,a3,a1
8000069a:	00a8f533          	and	a0,a7,a0
8000069e:	41f85813          	srai	a6,a6,0x1f
C:\NucleiStudio_workspace\HBirdv2_Prj\gameMenu\Debug/../application/lcd.c:62
    int16_t ex=sx+w;
800006a2:	07c2                	slli	a5,a5,0x10
C:\NucleiStudio_workspace\HBirdv2_Prj\gameMenu\Debug/../application/lcd.c:63
    int16_t ey=sy+h;
800006a4:	01069613          	slli	a2,a3,0x10
800006a8:	28000893          	li	a7,640
800006ac:	00b875b3          	and	a1,a6,a1
C:\NucleiStudio_workspace\HBirdv2_Prj\gameMenu\Debug/../application/lcd.c:62
    int16_t ex=sx+w;
800006b0:	87c1                	srai	a5,a5,0x10
C:\NucleiStudio_workspace\HBirdv2_Prj\gameMenu\Debug/../application/lcd.c:63
    int16_t ey=sy+h;
800006b2:	8641                	srai	a2,a2,0x10
C:\NucleiStudio_workspace\HBirdv2_Prj\gameMenu\Debug/../application/lcd.c:66
	if(sx<0)sx=0;
	if(sy<0)sy=0;
	if(sx>640)sx=640;
800006b4:	882a                	mv	a6,a0
800006b6:	00a8d463          	bge	a7,a0,800006be <LCD_Fill+0x36>
800006ba:	28000813          	li	a6,640
800006be:	0842                	slli	a6,a6,0x10
800006c0:	1e000513          	li	a0,480
800006c4:	41085813          	srai	a6,a6,0x10
C:\NucleiStudio_workspace\HBirdv2_Prj\gameMenu\Debug/../application/lcd.c:67
	if(sy>480)sy=480;
800006c8:	86ae                	mv	a3,a1
800006ca:	00b55463          	bge	a0,a1,800006d2 <LCD_Fill+0x4a>
800006ce:	1e000693          	li	a3,480
800006d2:	06c2                	slli	a3,a3,0x10
800006d4:	28000513          	li	a0,640
800006d8:	86c1                	srai	a3,a3,0x10
C:\NucleiStudio_workspace\HBirdv2_Prj\gameMenu\Debug/../application/lcd.c:68
    if(ex>640)ex=640;
800006da:	85be                	mv	a1,a5
800006dc:	00f55463          	bge	a0,a5,800006e4 <LCD_Fill+0x5c>
800006e0:	28000593          	li	a1,640
800006e4:	05c2                	slli	a1,a1,0x10
800006e6:	1e000513          	li	a0,480
800006ea:	85c1                	srai	a1,a1,0x10
C:\NucleiStudio_workspace\HBirdv2_Prj\gameMenu\Debug/../application/lcd.c:69
    if(ey>480)ey=480;
800006ec:	87b2                	mv	a5,a2
800006ee:	00c55463          	bge	a0,a2,800006f6 <LCD_Fill+0x6e>
800006f2:	1e000793          	li	a5,480
800006f6:	07c2                	slli	a5,a5,0x10
800006f8:	87c1                	srai	a5,a5,0x10
C:\NucleiStudio_workspace\HBirdv2_Prj\gameMenu\Debug/../application/lcd.c:70
	if(ex<0)ex=0;
800006fa:	fff7c613          	not	a2,a5
800006fe:	867d                	srai	a2,a2,0x1f
80000700:	fff5c513          	not	a0,a1
80000704:	8e7d                	and	a2,a2,a5
80000706:	857d                	srai	a0,a0,0x1f
80000708:	01061793          	slli	a5,a2,0x10
C:\NucleiStudio_workspace\HBirdv2_Prj\gameMenu\Debug/../application/lcd.c:72
    if(ey<0)ey=0;
	if(LCDinverse)
8000070c:	8241c883          	lbu	a7,-2012(gp) # 90000084 <LCDinverse>
80000710:	8d6d                	and	a0,a0,a1
C:\NucleiStudio_workspace\HBirdv2_Prj\gameMenu\Debug/../application/lcd.c:71
    if(ey<0)ey=0;
80000712:	87c1                	srai	a5,a5,0x10
C:\NucleiStudio_workspace\HBirdv2_Prj\gameMenu\Debug/../application/lcd.c:72
	if(LCDinverse)
80000714:	02088e63          	beqz	a7,80000750 <LCD_Fill+0xc8>
C:\NucleiStudio_workspace\HBirdv2_Prj\gameMenu\Debug/../application/lcd.c:75
	{
		uint16_t temp;
		temp=sx;
80000718:	0842                	slli	a6,a6,0x10
C:\NucleiStudio_workspace\HBirdv2_Prj\gameMenu\Debug/../application/lcd.c:79
		sx=LCD_W_MAX-ex;
		ex=LCD_W_MAX-temp;

		temp=sy;
8000071a:	06c2                	slli	a3,a3,0x10
C:\NucleiStudio_workspace\HBirdv2_Prj\gameMenu\Debug/../application/lcd.c:75
		temp=sx;
8000071c:	01085813          	srli	a6,a6,0x10
C:\NucleiStudio_workspace\HBirdv2_Prj\gameMenu\Debug/../application/lcd.c:76
		sx=LCD_W_MAX-ex;
80000720:	28000593          	li	a1,640
C:\NucleiStudio_workspace\HBirdv2_Prj\gameMenu\Debug/../application/lcd.c:79
		temp=sy;
80000724:	82c1                	srli	a3,a3,0x10
C:\NucleiStudio_workspace\HBirdv2_Prj\gameMenu\Debug/../application/lcd.c:80
		sy=LCD_H_MAX-ey;
80000726:	1e000793          	li	a5,480
C:\NucleiStudio_workspace\HBirdv2_Prj\gameMenu\Debug/../application/lcd.c:76
		sx=LCD_W_MAX-ex;
8000072a:	40a58533          	sub	a0,a1,a0
C:\NucleiStudio_workspace\HBirdv2_Prj\gameMenu\Debug/../application/lcd.c:80
		sy=LCD_H_MAX-ey;
8000072e:	40c78633          	sub	a2,a5,a2
C:\NucleiStudio_workspace\HBirdv2_Prj\gameMenu\Debug/../application/lcd.c:77
		ex=LCD_W_MAX-temp;
80000732:	410585b3          	sub	a1,a1,a6
C:\NucleiStudio_workspace\HBirdv2_Prj\gameMenu\Debug/../application/lcd.c:81
		ey=LCD_H_MAX-temp;
80000736:	8f95                	sub	a5,a5,a3
C:\NucleiStudio_workspace\HBirdv2_Prj\gameMenu\Debug/../application/lcd.c:76
		sx=LCD_W_MAX-ex;
80000738:	01051813          	slli	a6,a0,0x10
C:\NucleiStudio_workspace\HBirdv2_Prj\gameMenu\Debug/../application/lcd.c:80
		sy=LCD_H_MAX-ey;
8000073c:	01061693          	slli	a3,a2,0x10
C:\NucleiStudio_workspace\HBirdv2_Prj\gameMenu\Debug/../application/lcd.c:77
		ex=LCD_W_MAX-temp;
80000740:	01059513          	slli	a0,a1,0x10
C:\NucleiStudio_workspace\HBirdv2_Prj\gameMenu\Debug/../application/lcd.c:81
		ey=LCD_H_MAX-temp;
80000744:	07c2                	slli	a5,a5,0x10
C:\NucleiStudio_workspace\HBirdv2_Prj\gameMenu\Debug/../application/lcd.c:76
		sx=LCD_W_MAX-ex;
80000746:	41085813          	srai	a6,a6,0x10
C:\NucleiStudio_workspace\HBirdv2_Prj\gameMenu\Debug/../application/lcd.c:77
		ex=LCD_W_MAX-temp;
8000074a:	8541                	srai	a0,a0,0x10
C:\NucleiStudio_workspace\HBirdv2_Prj\gameMenu\Debug/../application/lcd.c:80
		sy=LCD_H_MAX-ey;
8000074c:	86c1                	srai	a3,a3,0x10
C:\NucleiStudio_workspace\HBirdv2_Prj\gameMenu\Debug/../application/lcd.c:81
		ey=LCD_H_MAX-temp;
8000074e:	87c1                	srai	a5,a5,0x10
C:\NucleiStudio_workspace\HBirdv2_Prj\gameMenu\Debug/../application/lcd.c:83
	}
	for(int16_t i=sy;i<ey;i++)
80000750:	06f6d563          	bge	a3,a5,800007ba <LCD_Fill+0x132>
80000754:	00269613          	slli	a2,a3,0x2
80000758:	fff78593          	addi	a1,a5,-1
8000075c:	9636                	add	a2,a2,a3
8000075e:	8d95                	sub	a1,a1,a3
80000760:	fff50793          	addi	a5,a0,-1
80000764:	0685                	addi	a3,a3,1
80000766:	410787b3          	sub	a5,a5,a6
8000076a:	05c2                	slli	a1,a1,0x10
8000076c:	06c2                	slli	a3,a3,0x10
8000076e:	86c1                	srai	a3,a3,0x10
80000770:	061e                	slli	a2,a2,0x7
80000772:	81c1                	srli	a1,a1,0x10
80000774:	07c2                	slli	a5,a5,0x10
80000776:	95b6                	add	a1,a1,a3
80000778:	83c1                	srli	a5,a5,0x10
8000077a:	00c806b3          	add	a3,a6,a2
8000077e:	96be                	add	a3,a3,a5
80000780:	00259893          	slli	a7,a1,0x2
80000784:	80c1a303          	lw	t1,-2036(gp) # 9000006c <LCD_P>
80000788:	95c6                	add	a1,a1,a7
8000078a:	0686                	slli	a3,a3,0x1
8000078c:	0309                	addi	t1,t1,2
8000078e:	fff7c793          	not	a5,a5
80000792:	00759893          	slli	a7,a1,0x7
80000796:	969a                	add	a3,a3,t1
80000798:	00179593          	slli	a1,a5,0x1
C:\NucleiStudio_workspace\HBirdv2_Prj\gameMenu\Debug/../application/lcd.c:85
	{
		for(int16_t j=sx;j<ex;j++)
8000079c:	00d587b3          	add	a5,a1,a3
800007a0:	00a85763          	bge	a6,a0,800007ae <LCD_Fill+0x126>
C:\NucleiStudio_workspace\HBirdv2_Prj\gameMenu\Debug/../application/lcd.c:87 (discriminator 3)
		{
			*(LCD_P+i*LCD_W_MAX+j)=color;
800007a4:	00e79023          	sh	a4,0(a5)
C:\NucleiStudio_workspace\HBirdv2_Prj\gameMenu\Debug/../application/lcd.c:85 (discriminator 3)
		for(int16_t j=sx;j<ex;j++)
800007a8:	0789                	addi	a5,a5,2
800007aa:	fed79de3          	bne	a5,a3,800007a4 <LCD_Fill+0x11c>
C:\NucleiStudio_workspace\HBirdv2_Prj\gameMenu\Debug/../application/lcd.c:83
	for(int16_t i=sy;i<ey;i++)
800007ae:	28060613          	addi	a2,a2,640
800007b2:	50068693          	addi	a3,a3,1280
800007b6:	ff1613e3          	bne	a2,a7,8000079c <LCD_Fill+0x114>
C:\NucleiStudio_workspace\HBirdv2_Prj\gameMenu\Debug/../application/lcd.c:90
		}
	}
}  
800007ba:	8082                	ret

800007bc <LCD_ShowChar>:
LCD_ShowChar():
C:\NucleiStudio_workspace\HBirdv2_Prj\gameMenu\Debug/../application/lcd.c:217
//mode:叠加方式(1)还是非叠加方式(0)
void LCD_ShowChar(uint16_t x,uint16_t y,uint8_t num,uint8_t size,uint8_t mode)
{  							  
    uint8_t temp,t1,t;
	uint16_t y0=y;
	uint8_t csize=(size/8+((size%8)?1:0))*(size/2);		//得到字体一个字符对应点阵集所占的字节数	
800007bc:	0076f793          	andi	a5,a3,7
800007c0:	0036d813          	srli	a6,a3,0x3
800007c4:	00f037b3          	snez	a5,a5
800007c8:	97c2                	add	a5,a5,a6
800007ca:	0016d813          	srli	a6,a3,0x1
800007ce:	030787b3          	mul	a5,a5,a6
C:\NucleiStudio_workspace\HBirdv2_Prj\gameMenu\Debug/../application/lcd.c:214
{  							  
800007d2:	7179                	addi	sp,sp,-48
C:\NucleiStudio_workspace\HBirdv2_Prj\gameMenu\Debug/../application/lcd.c:218
 	num=num-' ';//得到偏移后的值（ASCII字库是从空格开始取模，所以-' '就是对应字符的字库）
800007d4:	1601                	addi	a2,a2,-32
C:\NucleiStudio_workspace\HBirdv2_Prj\gameMenu\Debug/../application/lcd.c:214
{  							  
800007d6:	d622                	sw	s0,44(sp)
800007d8:	d426                	sw	s1,40(sp)
800007da:	d24a                	sw	s2,36(sp)
800007dc:	d04e                	sw	s3,32(sp)
800007de:	ce52                	sw	s4,28(sp)
800007e0:	cc56                	sw	s5,24(sp)
800007e2:	ca5a                	sw	s6,20(sp)
800007e4:	c85e                	sw	s7,16(sp)
800007e6:	c662                	sw	s8,12(sp)
800007e8:	c466                	sw	s9,8(sp)
800007ea:	c26a                	sw	s10,4(sp)
C:\NucleiStudio_workspace\HBirdv2_Prj\gameMenu\Debug/../application/lcd.c:219
	if(LCDinverse)
800007ec:	8241c803          	lbu	a6,-2012(gp) # 90000084 <LCDinverse>
C:\NucleiStudio_workspace\HBirdv2_Prj\gameMenu\Debug/../application/lcd.c:217
	uint8_t csize=(size/8+((size%8)?1:0))*(size/2);		//得到字体一个字符对应点阵集所占的字节数	
800007f0:	0ff7f793          	zext.b	a5,a5
C:\NucleiStudio_workspace\HBirdv2_Prj\gameMenu\Debug/../application/lcd.c:218
 	num=num-' ';//得到偏移后的值（ASCII字库是从空格开始取模，所以-' '就是对应字符的字库）
800007f4:	0ff67613          	zext.b	a2,a2
C:\NucleiStudio_workspace\HBirdv2_Prj\gameMenu\Debug/../application/lcd.c:219
	if(LCDinverse)
800007f8:	10081c63          	bnez	a6,80000910 <LCD_ShowChar+0x154>
C:\NucleiStudio_workspace\HBirdv2_Prj\gameMenu\Debug/../application/lcd.c:255
			}  	 
		}  	    	   	 	
	}
	else
	{
		for(t=0;t<csize;t++)
800007fc:	0e078d63          	beqz	a5,800008f6 <LCD_ShowChar+0x13a>
80000800:	00161393          	slli	t2,a2,0x1
80000804:	00361f93          	slli	t6,a2,0x3
80000808:	93b2                	add	t2,t2,a2
8000080a:	00461813          	slli	a6,a2,0x4
8000080e:	9fb2                	add	t6,t6,a2
80000810:	17fd                	addi	a5,a5,-1
80000812:	00239613          	slli	a2,t2,0x2
80000816:	00002497          	auipc	s1,0x2
8000081a:	5d748493          	addi	s1,s1,1495 # 80002ded <asc2_1608+0x1>
8000081e:	00002397          	auipc	t2,0x2
80000822:	15a38393          	addi	t2,t2,346 # 80002978 <asc2_1206>
80000826:	0f8a                	slli	t6,t6,0x2
80000828:	94c2                	add	s1,s1,a6
8000082a:	0ff7f793          	zext.b	a5,a5
8000082e:	93b2                	add	t2,t2,a2
80000830:	00002297          	auipc	t0,0x2
80000834:	5bc28293          	addi	t0,t0,1468 # 80002dec <asc2_1608>
80000838:	00003617          	auipc	a2,0x3
8000083c:	ba460613          	addi	a2,a2,-1116 # 800033dc <asc2_2412>
C:\NucleiStudio_workspace\HBirdv2_Prj\gameMenu\Debug/../application/lcd.c:257
		{   
			if(size==12)temp=asc2_1206[num][t]; 	 	//调用1206字体
80000840:	49b1                	li	s3,12
80000842:	9fb2                	add	t6,t6,a2
C:\NucleiStudio_workspace\HBirdv2_Prj\gameMenu\Debug/../application/lcd.c:269
				{
					*(LCD_P+y*LCD_W_MAX+x)=POINT_COLOR;
				}
				else if(mode==0)
				{
					*(LCD_P+y*LCD_W_MAX+x)=BACK_COLOR;
80000844:	80c1ae83          	lw	t4,-2036(gp) # 9000006c <LCD_P>
80000848:	92c2                	add	t0,t0,a6
8000084a:	94be                	add	s1,s1,a5
8000084c:	862e                	mv	a2,a1
C:\NucleiStudio_workspace\HBirdv2_Prj\gameMenu\Debug/../application/lcd.c:258
			else if(size==16)temp=asc2_1608[num][t];	//调用1608字体
8000084e:	4a41                	li	s4,16
C:\NucleiStudio_workspace\HBirdv2_Prj\gameMenu\Debug/../application/lcd.c:259
			else if(size==24)temp=asc2_2412[num][t];	//调用2412字体
80000850:	4ae1                	li	s5,24
C:\NucleiStudio_workspace\HBirdv2_Prj\gameMenu\Debug/../application/lcd.c:269
					*(LCD_P+y*LCD_W_MAX+x)=BACK_COLOR;
80000852:	80818913          	addi	s2,gp,-2040 # 90000068 <BACK_COLOR>
C:\NucleiStudio_workspace\HBirdv2_Prj\gameMenu\Debug/../application/lcd.c:265
					*(LCD_P+y*LCD_W_MAX+x)=POINT_COLOR;
80000856:	82618413          	addi	s0,gp,-2010 # 90000086 <POINT_COLOR>
C:\NucleiStudio_workspace\HBirdv2_Prj\gameMenu\Debug/../application/lcd.c:273
				}
				temp<<=1;
				y++;
				if(y>=LCD_H_MAX)return;		//超区域了
8000085a:	1df00f13          	li	t5,479
C:\NucleiStudio_workspace\HBirdv2_Prj\gameMenu\Debug/../application/lcd.c:278
				if((y-y0)==size)
				{
					y=y0;
					x++;
					if(x>=LCD_W_MAX)return;	//超区域了
8000085e:	27f00b13          	li	s6,639
C:\NucleiStudio_workspace\HBirdv2_Prj\gameMenu\Debug/../application/lcd.c:257
			if(size==12)temp=asc2_1206[num][t]; 	 	//调用1206字体
80000862:	1d368663          	beq	a3,s3,80000a2e <LCD_ShowChar+0x272>
C:\NucleiStudio_workspace\HBirdv2_Prj\gameMenu\Debug/../application/lcd.c:258
			else if(size==16)temp=asc2_1608[num][t];	//调用1608字体
80000866:	1f468763          	beq	a3,s4,80000a54 <LCD_ShowChar+0x298>
C:\NucleiStudio_workspace\HBirdv2_Prj\gameMenu\Debug/../application/lcd.c:259
			else if(size==24)temp=asc2_2412[num][t];	//调用2412字体
8000086a:	09569663          	bne	a3,s5,800008f6 <LCD_ShowChar+0x13a>
C:\NucleiStudio_workspace\HBirdv2_Prj\gameMenu\Debug/../application/lcd.c:259 (discriminator 1)
8000086e:	000fc803          	lbu	a6,0(t6)
80000872:	00160313          	addi	t1,a2,1
80000876:	01031893          	slli	a7,t1,0x10
8000087a:	00860e13          	addi	t3,a2,8
8000087e:	0108d893          	srli	a7,a7,0x10
80000882:	0e42                	slli	t3,t3,0x10
80000884:	40b888b3          	sub	a7,a7,a1
80000888:	010e5e13          	srli	t3,t3,0x10
8000088c:	a825                	j	800008c4 <LCD_ShowChar+0x108>
C:\NucleiStudio_workspace\HBirdv2_Prj\gameMenu\Debug/../application/lcd.c:269
					*(LCD_P+y*LCD_W_MAX+x)=BACK_COLOR;
8000088e:	00261793          	slli	a5,a2,0x2
80000892:	963e                	add	a2,a2,a5
80000894:	061e                	slli	a2,a2,0x7
80000896:	962a                	add	a2,a2,a0
80000898:	0606                	slli	a2,a2,0x1
8000089a:	9676                	add	a2,a2,t4
C:\NucleiStudio_workspace\HBirdv2_Prj\gameMenu\Debug/../application/lcd.c:267
				else if(mode==0)
8000089c:	e709                	bnez	a4,800008a6 <LCD_ShowChar+0xea>
C:\NucleiStudio_workspace\HBirdv2_Prj\gameMenu\Debug/../application/lcd.c:269
					*(LCD_P+y*LCD_W_MAX+x)=BACK_COLOR;
8000089e:	00095783          	lhu	a5,0(s2)
800008a2:	00f61023          	sh	a5,0(a2)
C:\NucleiStudio_workspace\HBirdv2_Prj\gameMenu\Debug/../application/lcd.c:272
				y++;
800008a6:	01031613          	slli	a2,t1,0x10
C:\NucleiStudio_workspace\HBirdv2_Prj\gameMenu\Debug/../application/lcd.c:271
				temp<<=1;
800008aa:	0806                	slli	a6,a6,0x1
C:\NucleiStudio_workspace\HBirdv2_Prj\gameMenu\Debug/../application/lcd.c:272
				y++;
800008ac:	8241                	srli	a2,a2,0x10
C:\NucleiStudio_workspace\HBirdv2_Prj\gameMenu\Debug/../application/lcd.c:271
				temp<<=1;
800008ae:	0ff87813          	zext.b	a6,a6
C:\NucleiStudio_workspace\HBirdv2_Prj\gameMenu\Debug/../application/lcd.c:273
				if(y>=LCD_H_MAX)return;		//超区域了
800008b2:	04cf6263          	bltu	t5,a2,800008f6 <LCD_ShowChar+0x13a>
C:\NucleiStudio_workspace\HBirdv2_Prj\gameMenu\Debug/../application/lcd.c:274
				if((y-y0)==size)
800008b6:	14d88f63          	beq	a7,a3,80000a14 <LCD_ShowChar+0x258>
C:\NucleiStudio_workspace\HBirdv2_Prj\gameMenu\Debug/../application/lcd.c:261 (discriminator 2)
			for(t1=0;t1<8;t1++)
800008ba:	0885                	addi	a7,a7,1
800008bc:	17c60263          	beq	a2,t3,80000a20 <LCD_ShowChar+0x264>
800008c0:	00160313          	addi	t1,a2,1
C:\NucleiStudio_workspace\HBirdv2_Prj\gameMenu\Debug/../application/lcd.c:265
					*(LCD_P+y*LCD_W_MAX+x)=POINT_COLOR;
800008c4:	00261793          	slli	a5,a2,0x2
800008c8:	97b2                	add	a5,a5,a2
800008ca:	079e                	slli	a5,a5,0x7
800008cc:	97aa                	add	a5,a5,a0
C:\NucleiStudio_workspace\HBirdv2_Prj\gameMenu\Debug/../application/lcd.c:263
				if(temp&0x80)
800008ce:	01881b93          	slli	s7,a6,0x18
C:\NucleiStudio_workspace\HBirdv2_Prj\gameMenu\Debug/../application/lcd.c:265
					*(LCD_P+y*LCD_W_MAX+x)=POINT_COLOR;
800008d2:	0786                	slli	a5,a5,0x1
C:\NucleiStudio_workspace\HBirdv2_Prj\gameMenu\Debug/../application/lcd.c:263
				if(temp&0x80)
800008d4:	418bdb93          	srai	s7,s7,0x18
C:\NucleiStudio_workspace\HBirdv2_Prj\gameMenu\Debug/../application/lcd.c:265
					*(LCD_P+y*LCD_W_MAX+x)=POINT_COLOR;
800008d8:	97f6                	add	a5,a5,t4
C:\NucleiStudio_workspace\HBirdv2_Prj\gameMenu\Debug/../application/lcd.c:263
				if(temp&0x80)
800008da:	fa0bdae3          	bgez	s7,8000088e <LCD_ShowChar+0xd2>
C:\NucleiStudio_workspace\HBirdv2_Prj\gameMenu\Debug/../application/lcd.c:265
					*(LCD_P+y*LCD_W_MAX+x)=POINT_COLOR;
800008de:	00045603          	lhu	a2,0(s0)
C:\NucleiStudio_workspace\HBirdv2_Prj\gameMenu\Debug/../application/lcd.c:271
				temp<<=1;
800008e2:	0806                	slli	a6,a6,0x1
800008e4:	0ff87813          	zext.b	a6,a6
C:\NucleiStudio_workspace\HBirdv2_Prj\gameMenu\Debug/../application/lcd.c:265
					*(LCD_P+y*LCD_W_MAX+x)=POINT_COLOR;
800008e8:	00c79023          	sh	a2,0(a5)
C:\NucleiStudio_workspace\HBirdv2_Prj\gameMenu\Debug/../application/lcd.c:272
				y++;
800008ec:	01031613          	slli	a2,t1,0x10
800008f0:	8241                	srli	a2,a2,0x10
C:\NucleiStudio_workspace\HBirdv2_Prj\gameMenu\Debug/../application/lcd.c:273
				if(y>=LCD_H_MAX)return;		//超区域了
800008f2:	fccf72e3          	bgeu	t5,a2,800008b6 <LCD_ShowChar+0xfa>
C:\NucleiStudio_workspace\HBirdv2_Prj\gameMenu\Debug/../application/lcd.c:285
				}
			}  	 
		}  	    	   	 	
	}
	  
}   
800008f6:	5432                	lw	s0,44(sp)
800008f8:	54a2                	lw	s1,40(sp)
800008fa:	5912                	lw	s2,36(sp)
800008fc:	5982                	lw	s3,32(sp)
800008fe:	4a72                	lw	s4,28(sp)
80000900:	4ae2                	lw	s5,24(sp)
80000902:	4b52                	lw	s6,20(sp)
80000904:	4bc2                	lw	s7,16(sp)
80000906:	4c32                	lw	s8,12(sp)
80000908:	4ca2                	lw	s9,8(sp)
8000090a:	4d12                	lw	s10,4(sp)
8000090c:	6145                	addi	sp,sp,48
8000090e:	8082                	ret
C:\NucleiStudio_workspace\HBirdv2_Prj\gameMenu\Debug/../application/lcd.c:222
		for(t=0;t<csize;t++)
80000910:	d3fd                	beqz	a5,800008f6 <LCD_ShowChar+0x13a>
80000912:	00161913          	slli	s2,a2,0x1
80000916:	00361413          	slli	s0,a2,0x3
8000091a:	9932                	add	s2,s2,a2
8000091c:	00461813          	slli	a6,a2,0x4
80000920:	9432                	add	s0,s0,a2
80000922:	17fd                	addi	a5,a5,-1
80000924:	00291613          	slli	a2,s2,0x2
80000928:	00002a17          	auipc	s4,0x2
8000092c:	4c5a0a13          	addi	s4,s4,1221 # 80002ded <asc2_1608+0x1>
80000930:	00002917          	auipc	s2,0x2
80000934:	04890913          	addi	s2,s2,72 # 80002978 <asc2_1206>
80000938:	040a                	slli	s0,s0,0x2
8000093a:	9a42                	add	s4,s4,a6
8000093c:	0ff7f793          	zext.b	a5,a5
80000940:	9932                	add	s2,s2,a2
80000942:	00002497          	auipc	s1,0x2
80000946:	4aa48493          	addi	s1,s1,1194 # 80002dec <asc2_1608>
8000094a:	00003617          	auipc	a2,0x3
8000094e:	a9260613          	addi	a2,a2,-1390 # 800033dc <asc2_2412>
C:\NucleiStudio_workspace\HBirdv2_Prj\gameMenu\Debug/../application/lcd.c:224
			if(size==12)temp=asc2_1206[num][t]; 	 	//调用1206字体
80000952:	4b31                	li	s6,12
80000954:	9432                	add	s0,s0,a2
C:\NucleiStudio_workspace\HBirdv2_Prj\gameMenu\Debug/../application/lcd.c:238
					*(LCD_P+invy*LCD_W_MAX+invx)=BACK_COLOR;
80000956:	80c1af83          	lw	t6,-2036(gp) # 9000006c <LCD_P>
8000095a:	94c2                	add	s1,s1,a6
8000095c:	9a3e                	add	s4,s4,a5
8000095e:	862e                	mv	a2,a1
C:\NucleiStudio_workspace\HBirdv2_Prj\gameMenu\Debug/../application/lcd.c:225
			else if(size==16)temp=asc2_1608[num][t];	//调用1608字体
80000960:	4c41                	li	s8,16
C:\NucleiStudio_workspace\HBirdv2_Prj\gameMenu\Debug/../application/lcd.c:226
			else if(size==24)temp=asc2_2412[num][t];	//调用2412字体
80000962:	4ce1                	li	s9,24
C:\NucleiStudio_workspace\HBirdv2_Prj\gameMenu\Debug/../application/lcd.c:230
				invx=LCD_W_MAX-1-x;
80000964:	27f00b93          	li	s7,639
80000968:	1df00393          	li	t2,479
C:\NucleiStudio_workspace\HBirdv2_Prj\gameMenu\Debug/../application/lcd.c:238
					*(LCD_P+invy*LCD_W_MAX+invx)=BACK_COLOR;
8000096c:	80818a93          	addi	s5,gp,-2040 # 90000068 <BACK_COLOR>
C:\NucleiStudio_workspace\HBirdv2_Prj\gameMenu\Debug/../application/lcd.c:234
					*(LCD_P+invy*LCD_W_MAX+invx)=POINT_COLOR;
80000970:	82618993          	addi	s3,gp,-2010 # 90000086 <POINT_COLOR>
C:\NucleiStudio_workspace\HBirdv2_Prj\gameMenu\Debug/../application/lcd.c:242
				if(y>=LCD_H_MAX)return;		//超区域了
80000974:	1df00293          	li	t0,479
C:\NucleiStudio_workspace\HBirdv2_Prj\gameMenu\Debug/../application/lcd.c:247
					if(x>=LCD_W_MAX)return;	//超区域了
80000978:	27f00d13          	li	s10,639
C:\NucleiStudio_workspace\HBirdv2_Prj\gameMenu\Debug/../application/lcd.c:224
			if(size==12)temp=asc2_1206[num][t]; 	 	//调用1206字体
8000097c:	0d668963          	beq	a3,s6,80000a4e <LCD_ShowChar+0x292>
C:\NucleiStudio_workspace\HBirdv2_Prj\gameMenu\Debug/../application/lcd.c:225
			else if(size==16)temp=asc2_1608[num][t];	//调用1608字体
80000980:	0d868d63          	beq	a3,s8,80000a5a <LCD_ShowChar+0x29e>
C:\NucleiStudio_workspace\HBirdv2_Prj\gameMenu\Debug/../application/lcd.c:226
			else if(size==24)temp=asc2_2412[num][t];	//调用2412字体
80000984:	f79699e3          	bne	a3,s9,800008f6 <LCD_ShowChar+0x13a>
C:\NucleiStudio_workspace\HBirdv2_Prj\gameMenu\Debug/../application/lcd.c:226 (discriminator 1)
80000988:	00044803          	lbu	a6,0(s0)
8000098c:	00160e93          	addi	t4,a2,1
C:\NucleiStudio_workspace\HBirdv2_Prj\gameMenu\Debug/../application/lcd.c:230
				invx=LCD_W_MAX-1-x;
80000990:	40ab8e33          	sub	t3,s7,a0
80000994:	010e9313          	slli	t1,t4,0x10
80000998:	00860f13          	addi	t5,a2,8
8000099c:	01035313          	srli	t1,t1,0x10
800009a0:	0e42                	slli	t3,t3,0x10
800009a2:	0f42                	slli	t5,t5,0x10
800009a4:	010e5e13          	srli	t3,t3,0x10
800009a8:	40b30333          	sub	t1,t1,a1
800009ac:	010f5f13          	srli	t5,t5,0x10
800009b0:	a825                	j	800009e8 <LCD_ShowChar+0x22c>
C:\NucleiStudio_workspace\HBirdv2_Prj\gameMenu\Debug/../application/lcd.c:238
					*(LCD_P+invy*LCD_W_MAX+invx)=BACK_COLOR;
800009b2:	00261793          	slli	a5,a2,0x2
800009b6:	963e                	add	a2,a2,a5
800009b8:	061e                	slli	a2,a2,0x7
800009ba:	9672                	add	a2,a2,t3
800009bc:	0606                	slli	a2,a2,0x1
800009be:	967e                	add	a2,a2,t6
C:\NucleiStudio_workspace\HBirdv2_Prj\gameMenu\Debug/../application/lcd.c:236
				else if(mode==0)
800009c0:	e709                	bnez	a4,800009ca <LCD_ShowChar+0x20e>
C:\NucleiStudio_workspace\HBirdv2_Prj\gameMenu\Debug/../application/lcd.c:238
					*(LCD_P+invy*LCD_W_MAX+invx)=BACK_COLOR;
800009c2:	000ad783          	lhu	a5,0(s5)
800009c6:	00f61023          	sh	a5,0(a2)
C:\NucleiStudio_workspace\HBirdv2_Prj\gameMenu\Debug/../application/lcd.c:241
				y++;
800009ca:	010e9613          	slli	a2,t4,0x10
C:\NucleiStudio_workspace\HBirdv2_Prj\gameMenu\Debug/../application/lcd.c:240
				temp<<=1;
800009ce:	0806                	slli	a6,a6,0x1
C:\NucleiStudio_workspace\HBirdv2_Prj\gameMenu\Debug/../application/lcd.c:241
				y++;
800009d0:	8241                	srli	a2,a2,0x10
C:\NucleiStudio_workspace\HBirdv2_Prj\gameMenu\Debug/../application/lcd.c:240
				temp<<=1;
800009d2:	0ff87813          	zext.b	a6,a6
C:\NucleiStudio_workspace\HBirdv2_Prj\gameMenu\Debug/../application/lcd.c:242
				if(y>=LCD_H_MAX)return;		//超区域了
800009d6:	f2c2e0e3          	bltu	t0,a2,800008f6 <LCD_ShowChar+0x13a>
C:\NucleiStudio_workspace\HBirdv2_Prj\gameMenu\Debug/../application/lcd.c:243
				if((y-y0)==size)
800009da:	04d30d63          	beq	t1,a3,80000a34 <LCD_ShowChar+0x278>
C:\NucleiStudio_workspace\HBirdv2_Prj\gameMenu\Debug/../application/lcd.c:228 (discriminator 2)
			for(t1=0;t1<8;t1++)
800009de:	0305                	addi	t1,t1,1
800009e0:	06cf0063          	beq	t5,a2,80000a40 <LCD_ShowChar+0x284>
800009e4:	00160e93          	addi	t4,a2,1
C:\NucleiStudio_workspace\HBirdv2_Prj\gameMenu\Debug/../application/lcd.c:236
				else if(mode==0)
800009e8:	40c38633          	sub	a2,t2,a2
800009ec:	0642                	slli	a2,a2,0x10
800009ee:	8241                	srli	a2,a2,0x10
C:\NucleiStudio_workspace\HBirdv2_Prj\gameMenu\Debug/../application/lcd.c:234
					*(LCD_P+invy*LCD_W_MAX+invx)=POINT_COLOR;
800009f0:	00261793          	slli	a5,a2,0x2
800009f4:	97b2                	add	a5,a5,a2
800009f6:	079e                	slli	a5,a5,0x7
C:\NucleiStudio_workspace\HBirdv2_Prj\gameMenu\Debug/../application/lcd.c:232
				if(temp&0x80)
800009f8:	01881893          	slli	a7,a6,0x18
C:\NucleiStudio_workspace\HBirdv2_Prj\gameMenu\Debug/../application/lcd.c:234
					*(LCD_P+invy*LCD_W_MAX+invx)=POINT_COLOR;
800009fc:	97f2                	add	a5,a5,t3
800009fe:	0786                	slli	a5,a5,0x1
C:\NucleiStudio_workspace\HBirdv2_Prj\gameMenu\Debug/../application/lcd.c:232
				if(temp&0x80)
80000a00:	4188d893          	srai	a7,a7,0x18
C:\NucleiStudio_workspace\HBirdv2_Prj\gameMenu\Debug/../application/lcd.c:234
					*(LCD_P+invy*LCD_W_MAX+invx)=POINT_COLOR;
80000a04:	97fe                	add	a5,a5,t6
C:\NucleiStudio_workspace\HBirdv2_Prj\gameMenu\Debug/../application/lcd.c:232
				if(temp&0x80)
80000a06:	fa08d6e3          	bgez	a7,800009b2 <LCD_ShowChar+0x1f6>
C:\NucleiStudio_workspace\HBirdv2_Prj\gameMenu\Debug/../application/lcd.c:234
					*(LCD_P+invy*LCD_W_MAX+invx)=POINT_COLOR;
80000a0a:	0009d603          	lhu	a2,0(s3)
80000a0e:	00c79023          	sh	a2,0(a5)
80000a12:	bf65                	j	800009ca <LCD_ShowChar+0x20e>
C:\NucleiStudio_workspace\HBirdv2_Prj\gameMenu\Debug/../application/lcd.c:277
					x++;
80000a14:	0505                	addi	a0,a0,1
80000a16:	0542                	slli	a0,a0,0x10
80000a18:	8141                	srli	a0,a0,0x10
C:\NucleiStudio_workspace\HBirdv2_Prj\gameMenu\Debug/../application/lcd.c:278
					if(x>=LCD_W_MAX)return;	//超区域了
80000a1a:	ecab6ee3          	bltu	s6,a0,800008f6 <LCD_ShowChar+0x13a>
C:\NucleiStudio_workspace\HBirdv2_Prj\gameMenu\Debug/../application/lcd.c:276
					y=y0;
80000a1e:	862e                	mv	a2,a1
C:\NucleiStudio_workspace\HBirdv2_Prj\gameMenu\Debug/../application/lcd.c:255 (discriminator 2)
		for(t=0;t<csize;t++)
80000a20:	0285                	addi	t0,t0,1
80000a22:	0385                	addi	t2,t2,1
80000a24:	0f85                	addi	t6,t6,1
80000a26:	ec9288e3          	beq	t0,s1,800008f6 <LCD_ShowChar+0x13a>
C:\NucleiStudio_workspace\HBirdv2_Prj\gameMenu\Debug/../application/lcd.c:257
			if(size==12)temp=asc2_1206[num][t]; 	 	//调用1206字体
80000a2a:	e3369ee3          	bne	a3,s3,80000866 <LCD_ShowChar+0xaa>
C:\NucleiStudio_workspace\HBirdv2_Prj\gameMenu\Debug/../application/lcd.c:257 (discriminator 1)
80000a2e:	0003c803          	lbu	a6,0(t2)
80000a32:	b581                	j	80000872 <LCD_ShowChar+0xb6>
C:\NucleiStudio_workspace\HBirdv2_Prj\gameMenu\Debug/../application/lcd.c:246
					x++;
80000a34:	0505                	addi	a0,a0,1
80000a36:	0542                	slli	a0,a0,0x10
80000a38:	8141                	srli	a0,a0,0x10
C:\NucleiStudio_workspace\HBirdv2_Prj\gameMenu\Debug/../application/lcd.c:247
					if(x>=LCD_W_MAX)return;	//超区域了
80000a3a:	eaad6ee3          	bltu	s10,a0,800008f6 <LCD_ShowChar+0x13a>
C:\NucleiStudio_workspace\HBirdv2_Prj\gameMenu\Debug/../application/lcd.c:245
					y=y0;
80000a3e:	862e                	mv	a2,a1
C:\NucleiStudio_workspace\HBirdv2_Prj\gameMenu\Debug/../application/lcd.c:222 (discriminator 2)
		for(t=0;t<csize;t++)
80000a40:	0485                	addi	s1,s1,1
80000a42:	0905                	addi	s2,s2,1
80000a44:	0405                	addi	s0,s0,1
80000a46:	eb4488e3          	beq	s1,s4,800008f6 <LCD_ShowChar+0x13a>
C:\NucleiStudio_workspace\HBirdv2_Prj\gameMenu\Debug/../application/lcd.c:224
			if(size==12)temp=asc2_1206[num][t]; 	 	//调用1206字体
80000a4a:	f3669be3          	bne	a3,s6,80000980 <LCD_ShowChar+0x1c4>
C:\NucleiStudio_workspace\HBirdv2_Prj\gameMenu\Debug/../application/lcd.c:224 (discriminator 1)
80000a4e:	00094803          	lbu	a6,0(s2)
80000a52:	bf2d                	j	8000098c <LCD_ShowChar+0x1d0>
C:\NucleiStudio_workspace\HBirdv2_Prj\gameMenu\Debug/../application/lcd.c:258 (discriminator 1)
			else if(size==16)temp=asc2_1608[num][t];	//调用1608字体
80000a54:	0002c803          	lbu	a6,0(t0)
80000a58:	bd29                	j	80000872 <LCD_ShowChar+0xb6>
C:\NucleiStudio_workspace\HBirdv2_Prj\gameMenu\Debug/../application/lcd.c:225 (discriminator 1)
			else if(size==16)temp=asc2_1608[num][t];	//调用1608字体
80000a5a:	0004c803          	lbu	a6,0(s1)
80000a5e:	b73d                	j	8000098c <LCD_ShowChar+0x1d0>

80000a60 <LCD_ShowString>:
LCD_ShowString():
C:\NucleiStudio_workspace\HBirdv2_Prj\gameMenu\Debug/../application/lcd.c:354
//x,y:起点坐标
//width,height:区域大小  
//size:字体大小
//*p:字符串起始地址		  
void LCD_ShowString(uint16_t x,uint16_t y,uint16_t width,uint16_t height,uint8_t size,uint8_t *p)
{         
80000a60:	7179                	addi	sp,sp,-48
80000a62:	d422                	sw	s0,40(sp)
80000a64:	d226                	sw	s1,36(sp)
80000a66:	d04a                	sw	s2,32(sp)
80000a68:	d606                	sw	ra,44(sp)
80000a6a:	ce4e                	sw	s3,28(sp)
80000a6c:	cc52                	sw	s4,24(sp)
80000a6e:	ca56                	sw	s5,20(sp)
80000a70:	c85a                	sw	s6,16(sp)
80000a72:	c65e                	sw	s7,12(sp)
80000a74:	c462                	sw	s8,8(sp)
80000a76:	893e                	mv	s2,a5
C:\NucleiStudio_workspace\HBirdv2_Prj\gameMenu\Debug/../application/lcd.c:358
	uint8_t x0=x;
	width+=x;
	height+=y;
    while((*p<='~')&&(*p>=' '))//判断是不是非法字符!
80000a78:	0007c783          	lbu	a5,0(a5)
C:\NucleiStudio_workspace\HBirdv2_Prj\gameMenu\Debug/../application/lcd.c:354
{         
80000a7c:	84ae                	mv	s1,a1
80000a7e:	842a                	mv	s0,a0
C:\NucleiStudio_workspace\HBirdv2_Prj\gameMenu\Debug/../application/lcd.c:358
    while((*p<='~')&&(*p>=' '))//判断是不是非法字符!
80000a80:	fe078593          	addi	a1,a5,-32
C:\NucleiStudio_workspace\HBirdv2_Prj\gameMenu\Debug/../application/lcd.c:356
	width+=x;
80000a84:	962a                	add	a2,a2,a0
C:\NucleiStudio_workspace\HBirdv2_Prj\gameMenu\Debug/../application/lcd.c:358
    while((*p<='~')&&(*p>=' '))//判断是不是非法字符!
80000a86:	0ff5f593          	zext.b	a1,a1
80000a8a:	05e00513          	li	a0,94
C:\NucleiStudio_workspace\HBirdv2_Prj\gameMenu\Debug/../application/lcd.c:357
	height+=y;
80000a8e:	96a6                	add	a3,a3,s1
C:\NucleiStudio_workspace\HBirdv2_Prj\gameMenu\Debug/../application/lcd.c:358
    while((*p<='~')&&(*p>=' '))//判断是不是非法字符!
80000a90:	04b56e63          	bltu	a0,a1,80000aec <LCD_ShowString+0x8c>
80000a94:	01061993          	slli	s3,a2,0x10
80000a98:	01069a13          	slli	s4,a3,0x10
80000a9c:	8c3a                	mv	s8,a4
80000a9e:	0109d993          	srli	s3,s3,0x10
80000aa2:	010a5a13          	srli	s4,s4,0x10
C:\NucleiStudio_workspace\HBirdv2_Prj\gameMenu\Debug/../application/lcd.c:363
    {       
        if(x>=width){x=x0;y+=size;}
        if(y>=height)break;//退出
        LCD_ShowChar(x,y,*p,size,0);
        x+=size/2;
80000aa6:	00175b13          	srli	s6,a4,0x1
80000aaa:	0ff47b93          	zext.b	s7,s0
C:\NucleiStudio_workspace\HBirdv2_Prj\gameMenu\Debug/../application/lcd.c:358
    while((*p<='~')&&(*p>=' '))//判断是不是非法字符!
80000aae:	05e00a93          	li	s5,94
80000ab2:	a829                	j	80000acc <LCD_ShowString+0x6c>
C:\NucleiStudio_workspace\HBirdv2_Prj\gameMenu\Debug/../application/lcd.c:362
        LCD_ShowChar(x,y,*p,size,0);
80000ab4:	3321                	jal	800007bc <LCD_ShowChar>
C:\NucleiStudio_workspace\HBirdv2_Prj\gameMenu\Debug/../application/lcd.c:358
    while((*p<='~')&&(*p>=' '))//判断是不是非法字符!
80000ab6:	00094783          	lbu	a5,0(s2)
C:\NucleiStudio_workspace\HBirdv2_Prj\gameMenu\Debug/../application/lcd.c:363
        x+=size/2;
80000aba:	945a                	add	s0,s0,s6
80000abc:	0442                	slli	s0,s0,0x10
C:\NucleiStudio_workspace\HBirdv2_Prj\gameMenu\Debug/../application/lcd.c:358
    while((*p<='~')&&(*p>=' '))//判断是不是非法字符!
80000abe:	fe078613          	addi	a2,a5,-32
80000ac2:	0ff67613          	zext.b	a2,a2
C:\NucleiStudio_workspace\HBirdv2_Prj\gameMenu\Debug/../application/lcd.c:363
        x+=size/2;
80000ac6:	8041                	srli	s0,s0,0x10
C:\NucleiStudio_workspace\HBirdv2_Prj\gameMenu\Debug/../application/lcd.c:358
    while((*p<='~')&&(*p>=' '))//判断是不是非法字符!
80000ac8:	02cae263          	bltu	s5,a2,80000aec <LCD_ShowString+0x8c>
C:\NucleiStudio_workspace\HBirdv2_Prj\gameMenu\Debug/../application/lcd.c:362
        LCD_ShowChar(x,y,*p,size,0);
80000acc:	863e                	mv	a2,a5
80000ace:	4701                	li	a4,0
80000ad0:	86e2                	mv	a3,s8
C:\NucleiStudio_workspace\HBirdv2_Prj\gameMenu\Debug/../application/lcd.c:364
        p++;
80000ad2:	0905                	addi	s2,s2,1
C:\NucleiStudio_workspace\HBirdv2_Prj\gameMenu\Debug/../application/lcd.c:360
        if(x>=width){x=x0;y+=size;}
80000ad4:	018487b3          	add	a5,s1,s8
80000ad8:	01346663          	bltu	s0,s3,80000ae4 <LCD_ShowString+0x84>
C:\NucleiStudio_workspace\HBirdv2_Prj\gameMenu\Debug/../application/lcd.c:360 (discriminator 1)
80000adc:	01079493          	slli	s1,a5,0x10
80000ae0:	845e                	mv	s0,s7
80000ae2:	80c1                	srli	s1,s1,0x10
C:\NucleiStudio_workspace\HBirdv2_Prj\gameMenu\Debug/../application/lcd.c:362
        LCD_ShowChar(x,y,*p,size,0);
80000ae4:	8522                	mv	a0,s0
80000ae6:	85a6                	mv	a1,s1
C:\NucleiStudio_workspace\HBirdv2_Prj\gameMenu\Debug/../application/lcd.c:361
        if(y>=height)break;//退出
80000ae8:	fd44e6e3          	bltu	s1,s4,80000ab4 <LCD_ShowString+0x54>
C:\NucleiStudio_workspace\HBirdv2_Prj\gameMenu\Debug/../application/lcd.c:366
    }  
}
80000aec:	50b2                	lw	ra,44(sp)
80000aee:	5422                	lw	s0,40(sp)
80000af0:	5492                	lw	s1,36(sp)
80000af2:	5902                	lw	s2,32(sp)
80000af4:	49f2                	lw	s3,28(sp)
80000af6:	4a62                	lw	s4,24(sp)
80000af8:	4ad2                	lw	s5,20(sp)
80000afa:	4b42                	lw	s6,16(sp)
80000afc:	4bb2                	lw	s7,12(sp)
80000afe:	4c22                	lw	s8,8(sp)
80000b00:	6145                	addi	sp,sp,48
80000b02:	8082                	ret

80000b04 <plic_btn_handler>:
plic_btn_handler():
C:\NucleiStudio_workspace\HBirdv2_Prj\gameMenu\Debug/../application/main.c:58
    __enable_irq();												//全局中断开始

}

void plic_btn_handler(void)
{
80000b04:	1141                	addi	sp,sp,-16
C:\NucleiStudio_workspace\HBirdv2_Prj\gameMenu\Debug/../application/main.c:60
    int mask;
    mask = gpio_clear_interrupt(GPIOA);	//清楚中断标志，并返回中断值
80000b06:	10012537          	lui	a0,0x10012
C:\NucleiStudio_workspace\HBirdv2_Prj\gameMenu\Debug/../application/main.c:58
{
80000b0a:	c606                	sw	ra,12(sp)
C:\NucleiStudio_workspace\HBirdv2_Prj\gameMenu\Debug/../application/main.c:60
    mask = gpio_clear_interrupt(GPIOA);	//清楚中断标志，并返回中断值
80000b0c:	fb4ff0ef          	jal	ra,800002c0 <gpio_clear_interrupt>
C:\NucleiStudio_workspace\HBirdv2_Prj\gameMenu\Debug/../application/main.c:62

    if(mask==RCV_UP)	//红外按键:上
80000b10:	47c1                	li	a5,16
80000b12:	04f50363          	beq	a0,a5,80000b58 <plic_btn_handler+0x54>
C:\NucleiStudio_workspace\HBirdv2_Prj\gameMenu\Debug/../application/main.c:66
    {
    	key_data=1;
    }
    else if (mask==RCV_DOWN)	//红外按键:下
80000b16:	02000793          	li	a5,32
80000b1a:	02f50963          	beq	a0,a5,80000b4c <plic_btn_handler+0x48>
C:\NucleiStudio_workspace\HBirdv2_Prj\gameMenu\Debug/../application/main.c:70
    {
    	key_data=2;
    }
    else if(mask==RCV_LEFT)		//红外按键:左
80000b1e:	04000793          	li	a5,64
80000b22:	04f50563          	beq	a0,a5,80000b6c <plic_btn_handler+0x68>
C:\NucleiStudio_workspace\HBirdv2_Prj\gameMenu\Debug/../application/main.c:74
    {
    	key_data=3;
    }
    else if(mask==RCV_RIGHT)	//红外按键:右
80000b26:	08000793          	li	a5,128
80000b2a:	02f50d63          	beq	a0,a5,80000b64 <plic_btn_handler+0x60>
C:\NucleiStudio_workspace\HBirdv2_Prj\gameMenu\Debug/../application/main.c:78
    {
		key_data=4;
    }
	else if(mask==RCV_PLAY)			//红外按键:开始
80000b2e:	4791                	li	a5,4
80000b30:	04f50463          	beq	a0,a5,80000b78 <plic_btn_handler+0x74>
C:\NucleiStudio_workspace\HBirdv2_Prj\gameMenu\Debug/../application/main.c:83
	{
		//printf("5\n");
		key_data=5;
	}
	else if(mask==RCV_BACK)			//红外按键:返回
80000b34:	47a1                	li	a5,8
80000b36:	04f50563          	beq	a0,a5,80000b80 <plic_btn_handler+0x7c>
C:\NucleiStudio_workspace\HBirdv2_Prj\gameMenu\Debug/../application/main.c:88
	{
		//switch_game();
		key_data=6;
	}
	else if(mask==RCV_VOlP)			//音量+
80000b3a:	4705                	li	a4,1
80000b3c:	04e50663          	beq	a0,a4,80000b88 <plic_btn_handler+0x84>
C:\NucleiStudio_workspace\HBirdv2_Prj\gameMenu\Debug/../application/main.c:94
	{
		//printf("7\n");
		key_data=7;

	}
	else if(mask==RCV_VOlN)			//按键：2
80000b40:	4709                	li	a4,2
80000b42:	00e51863          	bne	a0,a4,80000b52 <plic_btn_handler+0x4e>
C:\NucleiStudio_workspace\HBirdv2_Prj\gameMenu\Debug/../application/main.c:97
	{
		//printf("8\n");
		key_data=8;
80000b46:	82f18423          	sb	a5,-2008(gp) # 90000088 <key_data>
C:\NucleiStudio_workspace\HBirdv2_Prj\gameMenu\Debug/../application/main.c:99
	}
}
80000b4a:	a021                	j	80000b52 <plic_btn_handler+0x4e>
C:\NucleiStudio_workspace\HBirdv2_Prj\gameMenu\Debug/../application/main.c:68
    	key_data=2;
80000b4c:	4789                	li	a5,2
80000b4e:	82f18423          	sb	a5,-2008(gp) # 90000088 <key_data>
C:\NucleiStudio_workspace\HBirdv2_Prj\gameMenu\Debug/../application/main.c:99
}
80000b52:	40b2                	lw	ra,12(sp)
80000b54:	0141                	addi	sp,sp,16
80000b56:	8082                	ret
80000b58:	40b2                	lw	ra,12(sp)
C:\NucleiStudio_workspace\HBirdv2_Prj\gameMenu\Debug/../application/main.c:64
    	key_data=1;
80000b5a:	4785                	li	a5,1
80000b5c:	82f18423          	sb	a5,-2008(gp) # 90000088 <key_data>
C:\NucleiStudio_workspace\HBirdv2_Prj\gameMenu\Debug/../application/main.c:99
}
80000b60:	0141                	addi	sp,sp,16
80000b62:	8082                	ret
C:\NucleiStudio_workspace\HBirdv2_Prj\gameMenu\Debug/../application/main.c:76
		key_data=4;
80000b64:	4791                	li	a5,4
80000b66:	82f18423          	sb	a5,-2008(gp) # 90000088 <key_data>
80000b6a:	b7e5                	j	80000b52 <plic_btn_handler+0x4e>
C:\NucleiStudio_workspace\HBirdv2_Prj\gameMenu\Debug/../application/main.c:99
}
80000b6c:	40b2                	lw	ra,12(sp)
C:\NucleiStudio_workspace\HBirdv2_Prj\gameMenu\Debug/../application/main.c:72
    	key_data=3;
80000b6e:	478d                	li	a5,3
80000b70:	82f18423          	sb	a5,-2008(gp) # 90000088 <key_data>
C:\NucleiStudio_workspace\HBirdv2_Prj\gameMenu\Debug/../application/main.c:99
}
80000b74:	0141                	addi	sp,sp,16
80000b76:	8082                	ret
C:\NucleiStudio_workspace\HBirdv2_Prj\gameMenu\Debug/../application/main.c:81
		key_data=5;
80000b78:	4795                	li	a5,5
80000b7a:	82f18423          	sb	a5,-2008(gp) # 90000088 <key_data>
80000b7e:	bfd1                	j	80000b52 <plic_btn_handler+0x4e>
C:\NucleiStudio_workspace\HBirdv2_Prj\gameMenu\Debug/../application/main.c:86
		key_data=6;
80000b80:	4799                	li	a5,6
80000b82:	82f18423          	sb	a5,-2008(gp) # 90000088 <key_data>
80000b86:	b7f1                	j	80000b52 <plic_btn_handler+0x4e>
C:\NucleiStudio_workspace\HBirdv2_Prj\gameMenu\Debug/../application/main.c:91
		key_data=7;
80000b88:	479d                	li	a5,7
80000b8a:	82f18423          	sb	a5,-2008(gp) # 90000088 <key_data>
80000b8e:	b7d1                	j	80000b52 <plic_btn_handler+0x4e>

80000b90 <plic_init>:
plic_init():
C:\NucleiStudio_workspace\HBirdv2_Prj\gameMenu\Debug/../application/main.c:48
{
80000b90:	1141                	addi	sp,sp,-16
C:\NucleiStudio_workspace\HBirdv2_Prj\gameMenu\Debug/../application/main.c:50
    gpio_enable_input(GPIOA, mask);
80000b92:	0ff00593          	li	a1,255
80000b96:	10012537          	lui	a0,0x10012
C:\NucleiStudio_workspace\HBirdv2_Prj\gameMenu\Debug/../application/main.c:48
{
80000b9a:	c606                	sw	ra,12(sp)
C:\NucleiStudio_workspace\HBirdv2_Prj\gameMenu\Debug/../application/main.c:50
    gpio_enable_input(GPIOA, mask);
80000b9c:	e9eff0ef          	jal	ra,8000023a <gpio_enable_input>
C:\NucleiStudio_workspace\HBirdv2_Prj\gameMenu\Debug/../application/main.c:51
    gpio_enable_interrupt(GPIOA, mask, GPIO_INT_RISE);			//使能中断
80000ba0:	4601                	li	a2,0
80000ba2:	0ff00593          	li	a1,255
80000ba6:	10012537          	lui	a0,0x10012
80000baa:	ea6ff0ef          	jal	ra,80000250 <gpio_enable_interrupt>
C:\NucleiStudio_workspace\HBirdv2_Prj\gameMenu\Debug/../application/main.c:52
    PLIC_Register_IRQ(PLIC_GPIOA_IRQn, 1, plic_btn_handler);	//注册中断发生的处理函数
80000bae:	00000617          	auipc	a2,0x0
80000bb2:	f5660613          	addi	a2,a2,-170 # 80000b04 <plic_btn_handler>
80000bb6:	4585                	li	a1,1
80000bb8:	453d                	li	a0,15
80000bba:	32ad                	jal	80000524 <PLIC_Register_IRQ>
__enable_irq():
C:\NucleiStudio_workspace\HBirdv2_Prj\gameMenu\hbird_sdk\NMSIS\Core\Include/core_feature_base.h:355
    __RV_CSR_SET(CSR_MSTATUS, MSTATUS_MIE);
80000bbc:	30046073          	csrsi	mstatus,8
plic_init():
C:\NucleiStudio_workspace\HBirdv2_Prj\gameMenu\Debug/../application/main.c:55
}
80000bc0:	40b2                	lw	ra,12(sp)
80000bc2:	0141                	addi	sp,sp,16
80000bc4:	8082                	ret

80000bc6 <GameChange>:
GameChange():
C:\NucleiStudio_workspace\HBirdv2_Prj\gameMenu\Debug/../application/main.c:108
uint8_t musicItemIdx=0;
uint8_t listIdx=0;
uint8_t musicAmp=4;

void GameChange()
{
80000bc6:	1141                	addi	sp,sp,-16
80000bc8:	c422                	sw	s0,8(sp)
C:\NucleiStudio_workspace\HBirdv2_Prj\gameMenu\Debug/../application/main.c:109
	LCD_Fill(120,140,400,200,YELLOW);
80000bca:	6441                	lui	s0,0x10
80000bcc:	fe040713          	addi	a4,s0,-32 # ffe0 <__stack_size+0xf7e0>
80000bd0:	0c800693          	li	a3,200
80000bd4:	19000613          	li	a2,400
80000bd8:	08c00593          	li	a1,140
80000bdc:	07800513          	li	a0,120
C:\NucleiStudio_workspace\HBirdv2_Prj\gameMenu\Debug/../application/main.c:108
{
80000be0:	c606                	sw	ra,12(sp)
C:\NucleiStudio_workspace\HBirdv2_Prj\gameMenu\Debug/../application/main.c:109
	LCD_Fill(120,140,400,200,YELLOW);
80000be2:	345d                	jal	80000688 <LCD_Fill>
C:\NucleiStudio_workspace\HBirdv2_Prj\gameMenu\Debug/../application/main.c:110
	LCD_Fill(124,144,392,192,WHITE);
80000be4:	fff40713          	addi	a4,s0,-1
80000be8:	0c000693          	li	a3,192
80000bec:	18800613          	li	a2,392
80000bf0:	09000593          	li	a1,144
80000bf4:	07c00513          	li	a0,124
80000bf8:	3c41                	jal	80000688 <LCD_Fill>
C:\NucleiStudio_workspace\HBirdv2_Prj\gameMenu\Debug/../application/main.c:111
	LCD_ShowString(236,215,312,24,24,"Game changing!");
80000bfa:	00003797          	auipc	a5,0x3
80000bfe:	53e78793          	addi	a5,a5,1342 # 80004138 <asc2_2412+0xd5c>
80000c02:	4761                	li	a4,24
80000c04:	46e1                	li	a3,24
80000c06:	13800613          	li	a2,312
80000c0a:	0d700593          	li	a1,215
80000c0e:	0ec00513          	li	a0,236
80000c12:	35b9                	jal	80000a60 <LCD_ShowString>
C:\NucleiStudio_workspace\HBirdv2_Prj\gameMenu\Debug/../application/main.c:112
	LCD_ShowString(248,265,324,24,24,"Please wait!");
80000c14:	00003797          	auipc	a5,0x3
80000c18:	53478793          	addi	a5,a5,1332 # 80004148 <asc2_2412+0xd6c>
80000c1c:	4761                	li	a4,24
80000c1e:	46e1                	li	a3,24
80000c20:	14400613          	li	a2,324
80000c24:	10900593          	li	a1,265
80000c28:	0f800513          	li	a0,248
80000c2c:	3d15                	jal	80000a60 <LCD_ShowString>
C:\NucleiStudio_workspace\HBirdv2_Prj\gameMenu\Debug/../application/main.c:113
	if(tableItemIdx==0)
80000c2e:	82b1c783          	lbu	a5,-2005(gp) # 9000008b <tableItemIdx>
80000c32:	eb81                	bnez	a5,80000c42 <GameChange+0x7c>
C:\NucleiStudio_workspace\HBirdv2_Prj\gameMenu\Debug/../application/main.c:115
	{
		__asm__ __volatile__(
80000c34:	203800b7          	lui	ra,0x20380
80000c38:	8082                	ret
C:\NucleiStudio_workspace\HBirdv2_Prj\gameMenu\Debug/../application/main.c:181
	//{
		
	//}
	

}
80000c3a:	40b2                	lw	ra,12(sp)
80000c3c:	4422                	lw	s0,8(sp)
80000c3e:	0141                	addi	sp,sp,16
80000c40:	8082                	ret
C:\NucleiStudio_workspace\HBirdv2_Prj\gameMenu\Debug/../application/main.c:121
	else if(tableItemIdx==1)
80000c42:	4705                	li	a4,1
80000c44:	02e78563          	beq	a5,a4,80000c6e <GameChange+0xa8>
C:\NucleiStudio_workspace\HBirdv2_Prj\gameMenu\Debug/../application/main.c:128
	else if(tableItemIdx==2)
80000c48:	4709                	li	a4,2
80000c4a:	02e78d63          	beq	a5,a4,80000c84 <GameChange+0xbe>
C:\NucleiStudio_workspace\HBirdv2_Prj\gameMenu\Debug/../application/main.c:137
	else if(tableItemIdx==3)
80000c4e:	470d                	li	a4,3
80000c50:	02e78663          	beq	a5,a4,80000c7c <GameChange+0xb6>
C:\NucleiStudio_workspace\HBirdv2_Prj\gameMenu\Debug/../application/main.c:146
    else if(tableItemIdx==4)
80000c54:	4711                	li	a4,4
80000c56:	02e78e63          	beq	a5,a4,80000c92 <GameChange+0xcc>
C:\NucleiStudio_workspace\HBirdv2_Prj\gameMenu\Debug/../application/main.c:155
    else if(tableItemIdx==5)
80000c5a:	4715                	li	a4,5
80000c5c:	02e78f63          	beq	a5,a4,80000c9a <GameChange+0xd4>
C:\NucleiStudio_workspace\HBirdv2_Prj\gameMenu\Debug/../application/main.c:165
    else if(tableItemIdx==6)
80000c60:	4719                	li	a4,6
80000c62:	fce79ce3          	bne	a5,a4,80000c3a <GameChange+0x74>
C:\NucleiStudio_workspace\HBirdv2_Prj\gameMenu\Debug/../application/main.c:168
		__asm__ __volatile__(
80000c66:	207000b7          	lui	ra,0x20700
80000c6a:	8082                	ret
C:\NucleiStudio_workspace\HBirdv2_Prj\gameMenu\Debug/../application/main.c:181
}
80000c6c:	b7f9                	j	80000c3a <GameChange+0x74>
C:\NucleiStudio_workspace\HBirdv2_Prj\gameMenu\Debug/../application/main.c:123
		__asm__ __volatile__(
80000c6e:	204800b7          	lui	ra,0x20480
80000c72:	8082                	ret
C:\NucleiStudio_workspace\HBirdv2_Prj\gameMenu\Debug/../application/main.c:181
}
80000c74:	40b2                	lw	ra,12(sp)
80000c76:	4422                	lw	s0,8(sp)
80000c78:	0141                	addi	sp,sp,16
80000c7a:	8082                	ret
C:\NucleiStudio_workspace\HBirdv2_Prj\gameMenu\Debug/../application/main.c:140
		__asm__ __volatile__(
80000c7c:	205000b7          	lui	ra,0x20500
80000c80:	8082                	ret
80000c82:	bf65                	j	80000c3a <GameChange+0x74>
C:\NucleiStudio_workspace\HBirdv2_Prj\gameMenu\Debug/../application/main.c:131
		__asm__ __volatile__(
80000c84:	206800b7          	lui	ra,0x20680
80000c88:	8082                	ret
C:\NucleiStudio_workspace\HBirdv2_Prj\gameMenu\Debug/../application/main.c:181
}
80000c8a:	40b2                	lw	ra,12(sp)
80000c8c:	4422                	lw	s0,8(sp)
80000c8e:	0141                	addi	sp,sp,16
80000c90:	8082                	ret
C:\NucleiStudio_workspace\HBirdv2_Prj\gameMenu\Debug/../application/main.c:149
		__asm__ __volatile__(
80000c92:	205800b7          	lui	ra,0x20580
80000c96:	8082                	ret
80000c98:	b74d                	j	80000c3a <GameChange+0x74>
C:\NucleiStudio_workspace\HBirdv2_Prj\gameMenu\Debug/../application/main.c:158
		__asm__ __volatile__(
80000c9a:	206000b7          	lui	ra,0x20600
80000c9e:	8082                	ret
80000ca0:	bf69                	j	80000c3a <GameChange+0x74>

80000ca2 <musicChange>:
musicChange():
C:\NucleiStudio_workspace\HBirdv2_Prj\gameMenu\Debug/../application/main.c:185

void musicChange()
{
	if(musicItemIdx==0)
80000ca2:	82a1c703          	lbu	a4,-2006(gp) # 9000008a <musicItemIdx>
C:\NucleiStudio_workspace\HBirdv2_Prj\gameMenu\Debug/../application/main.c:188
	{
		//Two tiger
		*(Music_P+1)=21312;
80000ca6:	8101a783          	lw	a5,-2032(gp) # 90000070 <Music_P>
C:\NucleiStudio_workspace\HBirdv2_Prj\gameMenu\Debug/../application/main.c:185
	if(musicItemIdx==0)
80000caa:	ef01                	bnez	a4,80000cc2 <musicChange+0x20>
C:\NucleiStudio_workspace\HBirdv2_Prj\gameMenu\Debug/../application/main.c:188
		*(Music_P+1)=21312;
80000cac:	6715                	lui	a4,0x5
80000cae:	34070713          	addi	a4,a4,832 # 5340 <__stack_size+0x4b40>
80000cb2:	c3d8                	sw	a4,4(a5)
C:\NucleiStudio_workspace\HBirdv2_Prj\gameMenu\Debug/../application/main.c:189
		*(Music_P+2)=28714;
80000cb4:	671d                	lui	a4,0x7
80000cb6:	02a70713          	addi	a4,a4,42 # 702a <__stack_size+0x682a>
80000cba:	c798                	sw	a4,8(a5)
C:\NucleiStudio_workspace\HBirdv2_Prj\gameMenu\Debug/../application/main.c:204
	{
		//Take me hand
		*(Music_P+1)=52864;
		*(Music_P+2)=73084;
	}
	*(Music_P)=0xffffffff;
80000cbc:	577d                	li	a4,-1
80000cbe:	c398                	sw	a4,0(a5)
C:\NucleiStudio_workspace\HBirdv2_Prj\gameMenu\Debug/../application/main.c:205
}
80000cc0:	8082                	ret
C:\NucleiStudio_workspace\HBirdv2_Prj\gameMenu\Debug/../application/main.c:192
	else if(musicItemIdx==1)
80000cc2:	4685                	li	a3,1
80000cc4:	02d70063          	beq	a4,a3,80000ce4 <musicChange+0x42>
C:\NucleiStudio_workspace\HBirdv2_Prj\gameMenu\Debug/../application/main.c:198
	else if(musicItemIdx==2)
80000cc8:	4689                	li	a3,2
80000cca:	fed719e3          	bne	a4,a3,80000cbc <musicChange+0x1a>
C:\NucleiStudio_workspace\HBirdv2_Prj\gameMenu\Debug/../application/main.c:201
		*(Music_P+1)=52864;
80000cce:	6735                	lui	a4,0xd
80000cd0:	e8070713          	addi	a4,a4,-384 # ce80 <__stack_size+0xc680>
80000cd4:	c3d8                	sw	a4,4(a5)
C:\NucleiStudio_workspace\HBirdv2_Prj\gameMenu\Debug/../application/main.c:202
		*(Music_P+2)=73084;
80000cd6:	6749                	lui	a4,0x12
80000cd8:	d7c70713          	addi	a4,a4,-644 # 11d7c <__stack_size+0x1157c>
80000cdc:	c798                	sw	a4,8(a5)
C:\NucleiStudio_workspace\HBirdv2_Prj\gameMenu\Debug/../application/main.c:204
	*(Music_P)=0xffffffff;
80000cde:	577d                	li	a4,-1
80000ce0:	c398                	sw	a4,0(a5)
C:\NucleiStudio_workspace\HBirdv2_Prj\gameMenu\Debug/../application/main.c:205
}
80000ce2:	8082                	ret
C:\NucleiStudio_workspace\HBirdv2_Prj\gameMenu\Debug/../application/main.c:195
		*(Music_P+1)=28736;
80000ce4:	671d                	lui	a4,0x7
80000ce6:	04070713          	addi	a4,a4,64 # 7040 <__stack_size+0x6840>
80000cea:	c3d8                	sw	a4,4(a5)
C:\NucleiStudio_workspace\HBirdv2_Prj\gameMenu\Debug/../application/main.c:196
		*(Music_P+2)=52842;
80000cec:	6735                	lui	a4,0xd
80000cee:	e6a70713          	addi	a4,a4,-406 # ce6a <__stack_size+0xc66a>
80000cf2:	c798                	sw	a4,8(a5)
C:\NucleiStudio_workspace\HBirdv2_Prj\gameMenu\Debug/../application/main.c:204
	*(Music_P)=0xffffffff;
80000cf4:	577d                	li	a4,-1
80000cf6:	c398                	sw	a4,0(a5)
C:\NucleiStudio_workspace\HBirdv2_Prj\gameMenu\Debug/../application/main.c:205
}
80000cf8:	8082                	ret

80000cfa <drawListTable>:
drawListTable():
C:\NucleiStudio_workspace\HBirdv2_Prj\gameMenu\Debug/../application/main.c:208

void drawListTable()
{
80000cfa:	1141                	addi	sp,sp,-16
80000cfc:	c606                	sw	ra,12(sp)
C:\NucleiStudio_workspace\HBirdv2_Prj\gameMenu\Debug/../application/main.c:209
	if(listIdx==0)
80000cfe:	8291c783          	lbu	a5,-2007(gp) # 90000089 <listIdx>
80000d02:	e3a9                	bnez	a5,80000d44 <drawListTable+0x4a>
C:\NucleiStudio_workspace\HBirdv2_Prj\gameMenu\Debug/../application/main.c:211
	{
		POINT_COLOR=GREEN;
80000d04:	7e000813          	li	a6,2016
C:\NucleiStudio_workspace\HBirdv2_Prj\gameMenu\Debug/../application/main.c:212
		LCD_ShowString(35,10,120,24,24,"Game List");
80000d08:	00003797          	auipc	a5,0x3
80000d0c:	45078793          	addi	a5,a5,1104 # 80004158 <asc2_2412+0xd7c>
80000d10:	4761                	li	a4,24
80000d12:	46e1                	li	a3,24
80000d14:	07800613          	li	a2,120
80000d18:	45a9                	li	a1,10
80000d1a:	02300513          	li	a0,35
C:\NucleiStudio_workspace\HBirdv2_Prj\gameMenu\Debug/../application/main.c:211
		POINT_COLOR=GREEN;
80000d1e:	83019323          	sh	a6,-2010(gp) # 90000086 <POINT_COLOR>
C:\NucleiStudio_workspace\HBirdv2_Prj\gameMenu\Debug/../application/main.c:212
		LCD_ShowString(35,10,120,24,24,"Game List");
80000d22:	3b3d                	jal	80000a60 <LCD_ShowString>
C:\NucleiStudio_workspace\HBirdv2_Prj\gameMenu\Debug/../application/main.c:223
		POINT_COLOR=GREEN;
		LCD_ShowString(355,10,120,24,24,"Music List");
		POINT_COLOR=BLACK;
		LCD_ShowString(35,10,120,24,24,"Game List");
	}
}
80000d24:	40b2                	lw	ra,12(sp)
C:\NucleiStudio_workspace\HBirdv2_Prj\gameMenu\Debug/../application/main.c:220
		POINT_COLOR=BLACK;
80000d26:	82019323          	sh	zero,-2010(gp) # 90000086 <POINT_COLOR>
C:\NucleiStudio_workspace\HBirdv2_Prj\gameMenu\Debug/../application/main.c:214
		LCD_ShowString(355,10,120,24,24,"Music List");
80000d2a:	00003797          	auipc	a5,0x3
80000d2e:	43a78793          	addi	a5,a5,1082 # 80004164 <asc2_2412+0xd88>
80000d32:	4761                	li	a4,24
80000d34:	46e1                	li	a3,24
80000d36:	07800613          	li	a2,120
80000d3a:	45a9                	li	a1,10
80000d3c:	16300513          	li	a0,355
C:\NucleiStudio_workspace\HBirdv2_Prj\gameMenu\Debug/../application/main.c:223
}
80000d40:	0141                	addi	sp,sp,16
C:\NucleiStudio_workspace\HBirdv2_Prj\gameMenu\Debug/../application/main.c:221
		LCD_ShowString(35,10,120,24,24,"Game List");
80000d42:	bb39                	j	80000a60 <LCD_ShowString>
C:\NucleiStudio_workspace\HBirdv2_Prj\gameMenu\Debug/../application/main.c:218
		POINT_COLOR=GREEN;
80000d44:	7e000813          	li	a6,2016
C:\NucleiStudio_workspace\HBirdv2_Prj\gameMenu\Debug/../application/main.c:219
		LCD_ShowString(355,10,120,24,24,"Music List");
80000d48:	00003797          	auipc	a5,0x3
80000d4c:	41c78793          	addi	a5,a5,1052 # 80004164 <asc2_2412+0xd88>
80000d50:	4761                	li	a4,24
80000d52:	46e1                	li	a3,24
80000d54:	07800613          	li	a2,120
80000d58:	45a9                	li	a1,10
80000d5a:	16300513          	li	a0,355
C:\NucleiStudio_workspace\HBirdv2_Prj\gameMenu\Debug/../application/main.c:218
		POINT_COLOR=GREEN;
80000d5e:	83019323          	sh	a6,-2010(gp) # 90000086 <POINT_COLOR>
C:\NucleiStudio_workspace\HBirdv2_Prj\gameMenu\Debug/../application/main.c:219
		LCD_ShowString(355,10,120,24,24,"Music List");
80000d62:	39fd                	jal	80000a60 <LCD_ShowString>
C:\NucleiStudio_workspace\HBirdv2_Prj\gameMenu\Debug/../application/main.c:223
}
80000d64:	40b2                	lw	ra,12(sp)
C:\NucleiStudio_workspace\HBirdv2_Prj\gameMenu\Debug/../application/main.c:220
		POINT_COLOR=BLACK;
80000d66:	82019323          	sh	zero,-2010(gp) # 90000086 <POINT_COLOR>
C:\NucleiStudio_workspace\HBirdv2_Prj\gameMenu\Debug/../application/main.c:221
		LCD_ShowString(35,10,120,24,24,"Game List");
80000d6a:	00003797          	auipc	a5,0x3
80000d6e:	3ee78793          	addi	a5,a5,1006 # 80004158 <asc2_2412+0xd7c>
80000d72:	4761                	li	a4,24
80000d74:	46e1                	li	a3,24
80000d76:	07800613          	li	a2,120
80000d7a:	45a9                	li	a1,10
80000d7c:	02300513          	li	a0,35
C:\NucleiStudio_workspace\HBirdv2_Prj\gameMenu\Debug/../application/main.c:223
}
80000d80:	0141                	addi	sp,sp,16
C:\NucleiStudio_workspace\HBirdv2_Prj\gameMenu\Debug/../application/main.c:221
		LCD_ShowString(35,10,120,24,24,"Game List");
80000d82:	b9f9                	j	80000a60 <LCD_ShowString>

80000d84 <drawSwitchGameChart>:
drawSwitchGameChart():
C:\NucleiStudio_workspace\HBirdv2_Prj\gameMenu\Debug/../application/main.c:259


}

void drawSwitchGameChart(void)
{
80000d84:	1141                	addi	sp,sp,-16
80000d86:	c422                	sw	s0,8(sp)
C:\NucleiStudio_workspace\HBirdv2_Prj\gameMenu\Debug/../application/main.c:262
	BACK_COLOR=WHITE;
	POINT_COLOR=BLACK;
	if(tableItemIdx==0)POINT_COLOR=RED;
80000d88:	82b18413          	addi	s0,gp,-2005 # 9000008b <tableItemIdx>
80000d8c:	00044783          	lbu	a5,0(s0)
C:\NucleiStudio_workspace\HBirdv2_Prj\gameMenu\Debug/../application/main.c:260
	BACK_COLOR=WHITE;
80000d90:	577d                	li	a4,-1
C:\NucleiStudio_workspace\HBirdv2_Prj\gameMenu\Debug/../application/main.c:259
{
80000d92:	c226                	sw	s1,4(sp)
C:\NucleiStudio_workspace\HBirdv2_Prj\gameMenu\Debug/../application/main.c:260
	BACK_COLOR=WHITE;
80000d94:	80e19423          	sh	a4,-2040(gp) # 90000068 <BACK_COLOR>
C:\NucleiStudio_workspace\HBirdv2_Prj\gameMenu\Debug/../application/main.c:259
{
80000d98:	c606                	sw	ra,12(sp)
C:\NucleiStudio_workspace\HBirdv2_Prj\gameMenu\Debug/../application/main.c:261
	POINT_COLOR=BLACK;
80000d9a:	82019323          	sh	zero,-2010(gp) # 90000086 <POINT_COLOR>
80000d9e:	82618493          	addi	s1,gp,-2010 # 90000086 <POINT_COLOR>
C:\NucleiStudio_workspace\HBirdv2_Prj\gameMenu\Debug/../application/main.c:262
	if(tableItemIdx==0)POINT_COLOR=RED;
80000da2:	e789                	bnez	a5,80000dac <drawSwitchGameChart+0x28>
C:\NucleiStudio_workspace\HBirdv2_Prj\gameMenu\Debug/../application/main.c:262 (discriminator 1)
80000da4:	80000793          	li	a5,-2048
80000da8:	00f49023          	sh	a5,0(s1)
C:\NucleiStudio_workspace\HBirdv2_Prj\gameMenu\Debug/../application/main.c:263
	LCD_ShowString(15,35,120,24,24,"1.Fly Bird");
80000dac:	00003797          	auipc	a5,0x3
80000db0:	3c478793          	addi	a5,a5,964 # 80004170 <asc2_2412+0xd94>
80000db4:	4761                	li	a4,24
80000db6:	46e1                	li	a3,24
80000db8:	07800613          	li	a2,120
80000dbc:	02300593          	li	a1,35
80000dc0:	453d                	li	a0,15
80000dc2:	3979                	jal	80000a60 <LCD_ShowString>
C:\NucleiStudio_workspace\HBirdv2_Prj\gameMenu\Debug/../application/main.c:265
	POINT_COLOR=BLACK;
	if(tableItemIdx==1)POINT_COLOR=RED;
80000dc4:	00044703          	lbu	a4,0(s0)
C:\NucleiStudio_workspace\HBirdv2_Prj\gameMenu\Debug/../application/main.c:264
	POINT_COLOR=BLACK;
80000dc8:	82019323          	sh	zero,-2010(gp) # 90000086 <POINT_COLOR>
C:\NucleiStudio_workspace\HBirdv2_Prj\gameMenu\Debug/../application/main.c:265
	if(tableItemIdx==1)POINT_COLOR=RED;
80000dcc:	4785                	li	a5,1
80000dce:	00f71663          	bne	a4,a5,80000dda <drawSwitchGameChart+0x56>
C:\NucleiStudio_workspace\HBirdv2_Prj\gameMenu\Debug/../application/main.c:265 (discriminator 1)
80000dd2:	80000793          	li	a5,-2048
80000dd6:	00f49023          	sh	a5,0(s1)
C:\NucleiStudio_workspace\HBirdv2_Prj\gameMenu\Debug/../application/main.c:266
	LCD_ShowString(15,60,132,24,24,"2.Game 2048");
80000dda:	00003797          	auipc	a5,0x3
80000dde:	3a278793          	addi	a5,a5,930 # 8000417c <asc2_2412+0xda0>
80000de2:	4761                	li	a4,24
80000de4:	46e1                	li	a3,24
80000de6:	08400613          	li	a2,132
80000dea:	03c00593          	li	a1,60
80000dee:	453d                	li	a0,15
80000df0:	3985                	jal	80000a60 <LCD_ShowString>
C:\NucleiStudio_workspace\HBirdv2_Prj\gameMenu\Debug/../application/main.c:268
	POINT_COLOR=BLACK;
	if(tableItemIdx==2)POINT_COLOR=RED;
80000df2:	00044703          	lbu	a4,0(s0)
C:\NucleiStudio_workspace\HBirdv2_Prj\gameMenu\Debug/../application/main.c:267
	POINT_COLOR=BLACK;
80000df6:	82019323          	sh	zero,-2010(gp) # 90000086 <POINT_COLOR>
C:\NucleiStudio_workspace\HBirdv2_Prj\gameMenu\Debug/../application/main.c:268
	if(tableItemIdx==2)POINT_COLOR=RED;
80000dfa:	4789                	li	a5,2
80000dfc:	00f71663          	bne	a4,a5,80000e08 <drawSwitchGameChart+0x84>
C:\NucleiStudio_workspace\HBirdv2_Prj\gameMenu\Debug/../application/main.c:268 (discriminator 1)
80000e00:	80000793          	li	a5,-2048
80000e04:	00f49023          	sh	a5,0(s1)
C:\NucleiStudio_workspace\HBirdv2_Prj\gameMenu\Debug/../application/main.c:270
	//LCD_ShowString(15,60,168,24,24,"3.Greedy Snake");
    LCD_ShowString(15,85,108,24,24,"3.Contra");
80000e08:	00003797          	auipc	a5,0x3
80000e0c:	38078793          	addi	a5,a5,896 # 80004188 <asc2_2412+0xdac>
80000e10:	4761                	li	a4,24
80000e12:	46e1                	li	a3,24
80000e14:	06c00613          	li	a2,108
80000e18:	05500593          	li	a1,85
80000e1c:	453d                	li	a0,15
80000e1e:	3189                	jal	80000a60 <LCD_ShowString>
C:\NucleiStudio_workspace\HBirdv2_Prj\gameMenu\Debug/../application/main.c:272
	POINT_COLOR=BLACK;
	if(tableItemIdx==3)POINT_COLOR=RED;
80000e20:	00044703          	lbu	a4,0(s0)
C:\NucleiStudio_workspace\HBirdv2_Prj\gameMenu\Debug/../application/main.c:271
	POINT_COLOR=BLACK;
80000e24:	82019323          	sh	zero,-2010(gp) # 90000086 <POINT_COLOR>
C:\NucleiStudio_workspace\HBirdv2_Prj\gameMenu\Debug/../application/main.c:272
	if(tableItemIdx==3)POINT_COLOR=RED;
80000e28:	478d                	li	a5,3
80000e2a:	00f71663          	bne	a4,a5,80000e36 <drawSwitchGameChart+0xb2>
C:\NucleiStudio_workspace\HBirdv2_Prj\gameMenu\Debug/../application/main.c:272 (discriminator 1)
80000e2e:	80000793          	li	a5,-2048
80000e32:	00f49023          	sh	a5,0(s1)
C:\NucleiStudio_workspace\HBirdv2_Prj\gameMenu\Debug/../application/main.c:273
	LCD_ShowString(15,110,156,24,24,"4.Super Mario");
80000e36:	00003797          	auipc	a5,0x3
80000e3a:	35e78793          	addi	a5,a5,862 # 80004194 <asc2_2412+0xdb8>
80000e3e:	4761                	li	a4,24
80000e40:	46e1                	li	a3,24
80000e42:	09c00613          	li	a2,156
80000e46:	06e00593          	li	a1,110
80000e4a:	453d                	li	a0,15
80000e4c:	3911                	jal	80000a60 <LCD_ShowString>
C:\NucleiStudio_workspace\HBirdv2_Prj\gameMenu\Debug/../application/main.c:275
    POINT_COLOR=BLACK;
	if(tableItemIdx==4)POINT_COLOR=RED;
80000e4e:	00044703          	lbu	a4,0(s0)
C:\NucleiStudio_workspace\HBirdv2_Prj\gameMenu\Debug/../application/main.c:274
    POINT_COLOR=BLACK;
80000e52:	82019323          	sh	zero,-2010(gp) # 90000086 <POINT_COLOR>
C:\NucleiStudio_workspace\HBirdv2_Prj\gameMenu\Debug/../application/main.c:275
	if(tableItemIdx==4)POINT_COLOR=RED;
80000e56:	4791                	li	a5,4
80000e58:	00f71663          	bne	a4,a5,80000e64 <drawSwitchGameChart+0xe0>
C:\NucleiStudio_workspace\HBirdv2_Prj\gameMenu\Debug/../application/main.c:275 (discriminator 1)
80000e5c:	80000793          	li	a5,-2048
80000e60:	00f49023          	sh	a5,0(s1)
C:\NucleiStudio_workspace\HBirdv2_Prj\gameMenu\Debug/../application/main.c:276
	LCD_ShowString(15,135,156,24,24,"5.Salamander");
80000e64:	00003797          	auipc	a5,0x3
80000e68:	34078793          	addi	a5,a5,832 # 800041a4 <asc2_2412+0xdc8>
80000e6c:	4761                	li	a4,24
80000e6e:	46e1                	li	a3,24
80000e70:	09c00613          	li	a2,156
80000e74:	08700593          	li	a1,135
80000e78:	453d                	li	a0,15
80000e7a:	36dd                	jal	80000a60 <LCD_ShowString>
C:\NucleiStudio_workspace\HBirdv2_Prj\gameMenu\Debug/../application/main.c:278
    POINT_COLOR=BLACK;
	if(tableItemIdx==5)POINT_COLOR=RED;
80000e7c:	00044703          	lbu	a4,0(s0)
C:\NucleiStudio_workspace\HBirdv2_Prj\gameMenu\Debug/../application/main.c:277
    POINT_COLOR=BLACK;
80000e80:	82019323          	sh	zero,-2010(gp) # 90000086 <POINT_COLOR>
C:\NucleiStudio_workspace\HBirdv2_Prj\gameMenu\Debug/../application/main.c:278
	if(tableItemIdx==5)POINT_COLOR=RED;
80000e84:	4795                	li	a5,5
80000e86:	00f71663          	bne	a4,a5,80000e92 <drawSwitchGameChart+0x10e>
C:\NucleiStudio_workspace\HBirdv2_Prj\gameMenu\Debug/../application/main.c:278 (discriminator 1)
80000e8a:	80000793          	li	a5,-2048
80000e8e:	00f49023          	sh	a5,0(s1)
C:\NucleiStudio_workspace\HBirdv2_Prj\gameMenu\Debug/../application/main.c:279
	LCD_ShowString(15,160,108,24,24,"6.Circus");
80000e92:	00003797          	auipc	a5,0x3
80000e96:	32278793          	addi	a5,a5,802 # 800041b4 <asc2_2412+0xdd8>
80000e9a:	4761                	li	a4,24
80000e9c:	46e1                	li	a3,24
80000e9e:	06c00613          	li	a2,108
80000ea2:	0a000593          	li	a1,160
80000ea6:	453d                	li	a0,15
80000ea8:	3e65                	jal	80000a60 <LCD_ShowString>
C:\NucleiStudio_workspace\HBirdv2_Prj\gameMenu\Debug/../application/main.c:281
    POINT_COLOR=BLACK;
	if(tableItemIdx==6)POINT_COLOR=RED;
80000eaa:	00044703          	lbu	a4,0(s0)
C:\NucleiStudio_workspace\HBirdv2_Prj\gameMenu\Debug/../application/main.c:280
    POINT_COLOR=BLACK;
80000eae:	82019323          	sh	zero,-2010(gp) # 90000086 <POINT_COLOR>
C:\NucleiStudio_workspace\HBirdv2_Prj\gameMenu\Debug/../application/main.c:281
	if(tableItemIdx==6)POINT_COLOR=RED;
80000eb2:	4799                	li	a5,6
80000eb4:	00f71663          	bne	a4,a5,80000ec0 <drawSwitchGameChart+0x13c>
C:\NucleiStudio_workspace\HBirdv2_Prj\gameMenu\Debug/../application/main.c:281 (discriminator 1)
80000eb8:	80000793          	li	a5,-2048
80000ebc:	00f49023          	sh	a5,0(s1)
C:\NucleiStudio_workspace\HBirdv2_Prj\gameMenu\Debug/../application/main.c:283
    LCD_ShowString(15,185,192,24,24,"7.I can remember");
}
80000ec0:	4422                	lw	s0,8(sp)
80000ec2:	40b2                	lw	ra,12(sp)
80000ec4:	4492                	lw	s1,4(sp)
C:\NucleiStudio_workspace\HBirdv2_Prj\gameMenu\Debug/../application/main.c:282
    LCD_ShowString(15,185,192,24,24,"7.I can remember");
80000ec6:	00003797          	auipc	a5,0x3
80000eca:	2fa78793          	addi	a5,a5,762 # 800041c0 <asc2_2412+0xde4>
80000ece:	4761                	li	a4,24
80000ed0:	46e1                	li	a3,24
80000ed2:	0c000613          	li	a2,192
80000ed6:	0b900593          	li	a1,185
80000eda:	453d                	li	a0,15
C:\NucleiStudio_workspace\HBirdv2_Prj\gameMenu\Debug/../application/main.c:283
}
80000edc:	0141                	addi	sp,sp,16
C:\NucleiStudio_workspace\HBirdv2_Prj\gameMenu\Debug/../application/main.c:282
    LCD_ShowString(15,185,192,24,24,"7.I can remember");
80000ede:	b649                	j	80000a60 <LCD_ShowString>

80000ee0 <drawSwitchMusicChart>:
drawSwitchMusicChart():
C:\NucleiStudio_workspace\HBirdv2_Prj\gameMenu\Debug/../application/main.c:286

void drawSwitchMusicChart(void)
{
80000ee0:	1141                	addi	sp,sp,-16
80000ee2:	c422                	sw	s0,8(sp)
C:\NucleiStudio_workspace\HBirdv2_Prj\gameMenu\Debug/../application/main.c:289
	BACK_COLOR=WHITE;
	POINT_COLOR=BLACK;
	if(musicItemIdx==0)POINT_COLOR=RED;
80000ee4:	82a18413          	addi	s0,gp,-2006 # 9000008a <musicItemIdx>
80000ee8:	00044783          	lbu	a5,0(s0)
C:\NucleiStudio_workspace\HBirdv2_Prj\gameMenu\Debug/../application/main.c:287
	BACK_COLOR=WHITE;
80000eec:	577d                	li	a4,-1
C:\NucleiStudio_workspace\HBirdv2_Prj\gameMenu\Debug/../application/main.c:286
{
80000eee:	c226                	sw	s1,4(sp)
C:\NucleiStudio_workspace\HBirdv2_Prj\gameMenu\Debug/../application/main.c:287
	BACK_COLOR=WHITE;
80000ef0:	80e19423          	sh	a4,-2040(gp) # 90000068 <BACK_COLOR>
C:\NucleiStudio_workspace\HBirdv2_Prj\gameMenu\Debug/../application/main.c:286
{
80000ef4:	c606                	sw	ra,12(sp)
C:\NucleiStudio_workspace\HBirdv2_Prj\gameMenu\Debug/../application/main.c:288
	POINT_COLOR=BLACK;
80000ef6:	82019323          	sh	zero,-2010(gp) # 90000086 <POINT_COLOR>
80000efa:	82618493          	addi	s1,gp,-2010 # 90000086 <POINT_COLOR>
C:\NucleiStudio_workspace\HBirdv2_Prj\gameMenu\Debug/../application/main.c:289
	if(musicItemIdx==0)POINT_COLOR=RED;
80000efe:	e789                	bnez	a5,80000f08 <drawSwitchMusicChart+0x28>
C:\NucleiStudio_workspace\HBirdv2_Prj\gameMenu\Debug/../application/main.c:289 (discriminator 1)
80000f00:	80000793          	li	a5,-2048
80000f04:	00f49023          	sh	a5,0(s1)
C:\NucleiStudio_workspace\HBirdv2_Prj\gameMenu\Debug/../application/main.c:290
	LCD_ShowString(330,35,132,24,24,"1.Two tiger");
80000f08:	00003797          	auipc	a5,0x3
80000f0c:	2cc78793          	addi	a5,a5,716 # 800041d4 <asc2_2412+0xdf8>
80000f10:	4761                	li	a4,24
80000f12:	46e1                	li	a3,24
80000f14:	08400613          	li	a2,132
80000f18:	02300593          	li	a1,35
80000f1c:	14a00513          	li	a0,330
80000f20:	3681                	jal	80000a60 <LCD_ShowString>
C:\NucleiStudio_workspace\HBirdv2_Prj\gameMenu\Debug/../application/main.c:292
	POINT_COLOR=BLACK;
	if(musicItemIdx==1)POINT_COLOR=RED;
80000f22:	00044703          	lbu	a4,0(s0)
C:\NucleiStudio_workspace\HBirdv2_Prj\gameMenu\Debug/../application/main.c:291
	POINT_COLOR=BLACK;
80000f26:	82019323          	sh	zero,-2010(gp) # 90000086 <POINT_COLOR>
C:\NucleiStudio_workspace\HBirdv2_Prj\gameMenu\Debug/../application/main.c:292
	if(musicItemIdx==1)POINT_COLOR=RED;
80000f2a:	4785                	li	a5,1
80000f2c:	00f71663          	bne	a4,a5,80000f38 <drawSwitchMusicChart+0x58>
C:\NucleiStudio_workspace\HBirdv2_Prj\gameMenu\Debug/../application/main.c:292 (discriminator 1)
80000f30:	80000793          	li	a5,-2048
80000f34:	00f49023          	sh	a5,0(s1)
C:\NucleiStudio_workspace\HBirdv2_Prj\gameMenu\Debug/../application/main.c:293
	LCD_ShowString(330,60,204,24,24,"2.only My RailGun");
80000f38:	00003797          	auipc	a5,0x3
80000f3c:	2a878793          	addi	a5,a5,680 # 800041e0 <asc2_2412+0xe04>
80000f40:	4761                	li	a4,24
80000f42:	46e1                	li	a3,24
80000f44:	0cc00613          	li	a2,204
80000f48:	03c00593          	li	a1,60
80000f4c:	14a00513          	li	a0,330
80000f50:	3e01                	jal	80000a60 <LCD_ShowString>
C:\NucleiStudio_workspace\HBirdv2_Prj\gameMenu\Debug/../application/main.c:295
	POINT_COLOR=BLACK;
	if(musicItemIdx==2)POINT_COLOR=RED;
80000f52:	00044703          	lbu	a4,0(s0)
C:\NucleiStudio_workspace\HBirdv2_Prj\gameMenu\Debug/../application/main.c:294
	POINT_COLOR=BLACK;
80000f56:	82019323          	sh	zero,-2010(gp) # 90000086 <POINT_COLOR>
C:\NucleiStudio_workspace\HBirdv2_Prj\gameMenu\Debug/../application/main.c:295
	if(musicItemIdx==2)POINT_COLOR=RED;
80000f5a:	4789                	li	a5,2
80000f5c:	00f71663          	bne	a4,a5,80000f68 <drawSwitchMusicChart+0x88>
C:\NucleiStudio_workspace\HBirdv2_Prj\gameMenu\Debug/../application/main.c:295 (discriminator 1)
80000f60:	80000793          	li	a5,-2048
80000f64:	00f49023          	sh	a5,0(s1)
C:\NucleiStudio_workspace\HBirdv2_Prj\gameMenu\Debug/../application/main.c:298
	LCD_ShowString(330,85,168,24,24,"3.Take Me Hand");

}
80000f68:	4422                	lw	s0,8(sp)
80000f6a:	40b2                	lw	ra,12(sp)
80000f6c:	4492                	lw	s1,4(sp)
C:\NucleiStudio_workspace\HBirdv2_Prj\gameMenu\Debug/../application/main.c:296
	LCD_ShowString(330,85,168,24,24,"3.Take Me Hand");
80000f6e:	00003797          	auipc	a5,0x3
80000f72:	28678793          	addi	a5,a5,646 # 800041f4 <asc2_2412+0xe18>
80000f76:	4761                	li	a4,24
80000f78:	46e1                	li	a3,24
80000f7a:	0a800613          	li	a2,168
80000f7e:	05500593          	li	a1,85
80000f82:	14a00513          	li	a0,330
C:\NucleiStudio_workspace\HBirdv2_Prj\gameMenu\Debug/../application/main.c:298
}
80000f86:	0141                	addi	sp,sp,16
C:\NucleiStudio_workspace\HBirdv2_Prj\gameMenu\Debug/../application/main.c:296
	LCD_ShowString(330,85,168,24,24,"3.Take Me Hand");
80000f88:	bce1                	j	80000a60 <LCD_ShowString>

80000f8a <SwitchGameChartInit>:
SwitchGameChartInit():
C:\NucleiStudio_workspace\HBirdv2_Prj\gameMenu\Debug/../application/main.c:226
{
80000f8a:	1141                	addi	sp,sp,-16
80000f8c:	c422                	sw	s0,8(sp)
C:\NucleiStudio_workspace\HBirdv2_Prj\gameMenu\Debug/../application/main.c:227
	LCD_Clear(WHITE);
80000f8e:	6441                	lui	s0,0x10
80000f90:	fff40513          	addi	a0,s0,-1 # ffff <__stack_size+0xf7ff>
C:\NucleiStudio_workspace\HBirdv2_Prj\gameMenu\Debug/../application/main.c:226
{
80000f94:	c606                	sw	ra,12(sp)
C:\NucleiStudio_workspace\HBirdv2_Prj\gameMenu\Debug/../application/main.c:227
	LCD_Clear(WHITE);
80000f96:	ec6ff0ef          	jal	ra,8000065c <LCD_Clear>
C:\NucleiStudio_workspace\HBirdv2_Prj\gameMenu\Debug/../application/main.c:228
	LCD_Fill(10,5,620,470,BLUE);
80000f9a:	477d                	li	a4,31
80000f9c:	1d600693          	li	a3,470
80000fa0:	26c00613          	li	a2,620
80000fa4:	4595                	li	a1,5
80000fa6:	4529                	li	a0,10
80000fa8:	ee0ff0ef          	jal	ra,80000688 <LCD_Fill>
C:\NucleiStudio_workspace\HBirdv2_Prj\gameMenu\Debug/../application/main.c:229
	LCD_Fill(14,9,612,462,WHITE);
80000fac:	fff40713          	addi	a4,s0,-1
80000fb0:	1ce00693          	li	a3,462
80000fb4:	26400613          	li	a2,612
80000fb8:	45a5                	li	a1,9
80000fba:	4539                	li	a0,14
80000fbc:	eccff0ef          	jal	ra,80000688 <LCD_Fill>
C:\NucleiStudio_workspace\HBirdv2_Prj\gameMenu\Debug/../application/main.c:250
	drawListTable();
80000fc0:	3b2d                	jal	80000cfa <drawListTable>
C:\NucleiStudio_workspace\HBirdv2_Prj\gameMenu\Debug/../application/main.c:251
	drawSwitchGameChart();
80000fc2:	33c9                	jal	80000d84 <drawSwitchGameChart>
C:\NucleiStudio_workspace\HBirdv2_Prj\gameMenu\Debug/../application/main.c:256
}
80000fc4:	4422                	lw	s0,8(sp)
80000fc6:	40b2                	lw	ra,12(sp)
80000fc8:	0141                	addi	sp,sp,16
C:\NucleiStudio_workspace\HBirdv2_Prj\gameMenu\Debug/../application/main.c:252
	drawSwitchMusicChart();
80000fca:	bf19                	j	80000ee0 <drawSwitchMusicChart>

80000fcc <SwitchGameChartRunKey>:
SwitchGameChartRunKey():
C:\NucleiStudio_workspace\HBirdv2_Prj\gameMenu\Debug/../application/main.c:302

void SwitchGameChartRunKey(void)
{
	if(key_data==pad_down | PS2_DOWN_In)
80000fcc:	10012737          	lui	a4,0x10012
80000fd0:	8281c783          	lbu	a5,-2008(gp) # 90000088 <key_data>
80000fd4:	4354                	lw	a3,4(a4)
80000fd6:	17f9                	addi	a5,a5,-2
80000fd8:	6611                	lui	a2,0x4
C:\NucleiStudio_workspace\HBirdv2_Prj\gameMenu\Debug/../application/main.c:301
{
80000fda:	1141                	addi	sp,sp,-16
C:\NucleiStudio_workspace\HBirdv2_Prj\gameMenu\Debug/../application/main.c:302
	if(key_data==pad_down | PS2_DOWN_In)
80000fdc:	0017b793          	seqz	a5,a5
80000fe0:	8ef1                	and	a3,a3,a2
C:\NucleiStudio_workspace\HBirdv2_Prj\gameMenu\Debug/../application/main.c:301
{
80000fe2:	c606                	sw	ra,12(sp)
80000fe4:	c422                	sw	s0,8(sp)
C:\NucleiStudio_workspace\HBirdv2_Prj\gameMenu\Debug/../application/main.c:302
	if(key_data==pad_down | PS2_DOWN_In)
80000fe6:	8fd5                	or	a5,a5,a3
80000fe8:	efd1                	bnez	a5,80001084 <SwitchGameChartRunKey+0xb8>
80000fea:	82818613          	addi	a2,gp,-2008 # 90000088 <key_data>
C:\NucleiStudio_workspace\HBirdv2_Prj\gameMenu\Debug/../application/main.c:318
			if(musicItemIdx<2)musicItemIdx++;
			drawSwitchMusicChart();
		}
		
	}
	else if(key_data==pad_up | PS2_UP_In)
80000fee:	00064783          	lbu	a5,0(a2) # 4000 <__stack_size+0x3800>
80000ff2:	4354                	lw	a3,4(a4)
80000ff4:	6585                	lui	a1,0x1
80000ff6:	0ff7f793          	zext.b	a5,a5
80000ffa:	17fd                	addi	a5,a5,-1
80000ffc:	0017b793          	seqz	a5,a5
80001000:	8eed                	and	a3,a3,a1
80001002:	8fd5                	or	a5,a5,a3
80001004:	efb1                	bnez	a5,80001060 <SwitchGameChartRunKey+0x94>
C:\NucleiStudio_workspace\HBirdv2_Prj\gameMenu\Debug/../application/main.c:333
		{
			if(musicItemIdx>0)musicItemIdx--;
			drawSwitchMusicChart();
		}
	}
	else if(key_data==pad_left| PS2_LEFT_In | PS2_RIGHT_In)
80001006:	00064683          	lbu	a3,0(a2)
8000100a:	435c                	lw	a5,4(a4)
8000100c:	434c                	lw	a1,4(a4)
8000100e:	6521                	lui	a0,0x8
80001010:	8fe9                	and	a5,a5,a0
80001012:	0ff6f693          	zext.b	a3,a3
80001016:	6509                	lui	a0,0x2
80001018:	8de9                	and	a1,a1,a0
8000101a:	16f5                	addi	a3,a3,-3
8000101c:	8fcd                	or	a5,a5,a1
8000101e:	0016b693          	seqz	a3,a3
80001022:	8fd5                	or	a5,a5,a3
80001024:	0e079363          	bnez	a5,8000110a <SwitchGameChartRunKey+0x13e>
C:\NucleiStudio_workspace\HBirdv2_Prj\gameMenu\Debug/../application/main.c:347
		{
			listIdx=0;
		}
		drawListTable();
	}
	else if(key_data==pad_right || PS2_B_In)
80001028:	00064783          	lbu	a5,0(a2)
8000102c:	4411                	li	s0,4
8000102e:	0ff7f793          	zext.b	a5,a5
80001032:	00878763          	beq	a5,s0,80001040 <SwitchGameChartRunKey+0x74>
C:\NucleiStudio_workspace\HBirdv2_Prj\gameMenu\Debug/../application/main.c:347 (discriminator 1)
80001036:	435c                	lw	a5,4(a4)
80001038:	200006b7          	lui	a3,0x20000
8000103c:	8ff5                	and	a5,a5,a3
8000103e:	cbc1                	beqz	a5,800010ce <SwitchGameChartRunKey+0x102>
C:\NucleiStudio_workspace\HBirdv2_Prj\gameMenu\Debug/../application/main.c:349
	{
		delay_1ms(120);
80001040:	07800513          	li	a0,120
80001044:	b66ff0ef          	jal	ra,800003aa <delay_1ms>
C:\NucleiStudio_workspace\HBirdv2_Prj\gameMenu\Debug/../application/main.c:350
		key_data=0;
80001048:	82018423          	sb	zero,-2008(gp) # 90000088 <key_data>
C:\NucleiStudio_workspace\HBirdv2_Prj\gameMenu\Debug/../application/main.c:351
		if(LCDinverse)
8000104c:	8241c783          	lbu	a5,-2012(gp) # 90000084 <LCDinverse>
80001050:	0c078f63          	beqz	a5,8000112e <SwitchGameChartRunKey+0x162>
C:\NucleiStudio_workspace\HBirdv2_Prj\gameMenu\Debug/../application/main.c:353
		{
			LCDinverse=0;
80001054:	82018223          	sb	zero,-2012(gp) # 90000084 <LCDinverse>
C:\NucleiStudio_workspace\HBirdv2_Prj\gameMenu\Debug/../application/main.c:398
			musicChange();
		}
		
	}

}
80001058:	4422                	lw	s0,8(sp)
8000105a:	40b2                	lw	ra,12(sp)
8000105c:	0141                	addi	sp,sp,16
C:\NucleiStudio_workspace\HBirdv2_Prj\gameMenu\Debug/../application/main.c:359
		SwitchGameChartInit();
8000105e:	b735                	j	80000f8a <SwitchGameChartInit>
C:\NucleiStudio_workspace\HBirdv2_Prj\gameMenu\Debug/../application/main.c:320
		delay_1ms(120);
80001060:	07800513          	li	a0,120
80001064:	b46ff0ef          	jal	ra,800003aa <delay_1ms>
C:\NucleiStudio_workspace\HBirdv2_Prj\gameMenu\Debug/../application/main.c:321
		key_data=0;
80001068:	82018423          	sb	zero,-2008(gp) # 90000088 <key_data>
C:\NucleiStudio_workspace\HBirdv2_Prj\gameMenu\Debug/../application/main.c:322
		if(listIdx==0)
8000106c:	8291c783          	lbu	a5,-2007(gp) # 90000089 <listIdx>
80001070:	e7c1                	bnez	a5,800010f8 <SwitchGameChartRunKey+0x12c>
C:\NucleiStudio_workspace\HBirdv2_Prj\gameMenu\Debug/../application/main.c:324
			if(tableItemIdx>0)tableItemIdx--;
80001072:	82b18713          	addi	a4,gp,-2005 # 9000008b <tableItemIdx>
80001076:	00074783          	lbu	a5,0(a4) # 10012000 <__stack_size+0x10011800>
8000107a:	cb85                	beqz	a5,800010aa <SwitchGameChartRunKey+0xde>
C:\NucleiStudio_workspace\HBirdv2_Prj\gameMenu\Debug/../application/main.c:324 (discriminator 1)
8000107c:	17fd                	addi	a5,a5,-1
8000107e:	00f70023          	sb	a5,0(a4)
80001082:	a025                	j	800010aa <SwitchGameChartRunKey+0xde>
C:\NucleiStudio_workspace\HBirdv2_Prj\gameMenu\Debug/../application/main.c:304
		delay_1ms(120);
80001084:	07800513          	li	a0,120
80001088:	b22ff0ef          	jal	ra,800003aa <delay_1ms>
C:\NucleiStudio_workspace\HBirdv2_Prj\gameMenu\Debug/../application/main.c:305
		key_data=0;
8000108c:	82018423          	sb	zero,-2008(gp) # 90000088 <key_data>
C:\NucleiStudio_workspace\HBirdv2_Prj\gameMenu\Debug/../application/main.c:306
		if(listIdx==0)
80001090:	8291c783          	lbu	a5,-2007(gp) # 90000089 <listIdx>
80001094:	ef99                	bnez	a5,800010b2 <SwitchGameChartRunKey+0xe6>
C:\NucleiStudio_workspace\HBirdv2_Prj\gameMenu\Debug/../application/main.c:308
			if(tableItemIdx<6)tableItemIdx++;
80001096:	82b18713          	addi	a4,gp,-2005 # 9000008b <tableItemIdx>
8000109a:	00074783          	lbu	a5,0(a4)
8000109e:	4695                	li	a3,5
800010a0:	00f6e563          	bltu	a3,a5,800010aa <SwitchGameChartRunKey+0xde>
C:\NucleiStudio_workspace\HBirdv2_Prj\gameMenu\Debug/../application/main.c:308 (discriminator 1)
800010a4:	0785                	addi	a5,a5,1
800010a6:	00f70023          	sb	a5,0(a4)
C:\NucleiStudio_workspace\HBirdv2_Prj\gameMenu\Debug/../application/main.c:398
}
800010aa:	4422                	lw	s0,8(sp)
800010ac:	40b2                	lw	ra,12(sp)
800010ae:	0141                	addi	sp,sp,16
C:\NucleiStudio_workspace\HBirdv2_Prj\gameMenu\Debug/../application/main.c:309
			drawSwitchGameChart();
800010b0:	b9d1                	j	80000d84 <drawSwitchGameChart>
C:\NucleiStudio_workspace\HBirdv2_Prj\gameMenu\Debug/../application/main.c:313
			if(musicItemIdx<2)musicItemIdx++;
800010b2:	82a18713          	addi	a4,gp,-2006 # 9000008a <musicItemIdx>
800010b6:	00074783          	lbu	a5,0(a4)
800010ba:	4685                	li	a3,1
800010bc:	00f6e563          	bltu	a3,a5,800010c6 <SwitchGameChartRunKey+0xfa>
C:\NucleiStudio_workspace\HBirdv2_Prj\gameMenu\Debug/../application/main.c:313 (discriminator 1)
800010c0:	0785                	addi	a5,a5,1
800010c2:	00f70023          	sb	a5,0(a4)
C:\NucleiStudio_workspace\HBirdv2_Prj\gameMenu\Debug/../application/main.c:398
}
800010c6:	4422                	lw	s0,8(sp)
800010c8:	40b2                	lw	ra,12(sp)
800010ca:	0141                	addi	sp,sp,16
C:\NucleiStudio_workspace\HBirdv2_Prj\gameMenu\Debug/../application/main.c:314
			drawSwitchMusicChart();
800010cc:	bd11                	j	80000ee0 <drawSwitchMusicChart>
C:\NucleiStudio_workspace\HBirdv2_Prj\gameMenu\Debug/../application/main.c:361
	else if(key_data==pad_back | PS2_X_In)
800010ce:	00064783          	lbu	a5,0(a2)
800010d2:	4354                	lw	a3,4(a4)
800010d4:	800005b7          	lui	a1,0x80000
800010d8:	0ff7f793          	zext.b	a5,a5
800010dc:	17e9                	addi	a5,a5,-6
800010de:	0017b793          	seqz	a5,a5
800010e2:	8eed                	and	a3,a3,a1
800010e4:	8fd5                	or	a5,a5,a3
800010e6:	cba1                	beqz	a5,80001136 <SwitchGameChartRunKey+0x16a>
C:\NucleiStudio_workspace\HBirdv2_Prj\gameMenu\Debug/../application/main.c:363
		*(Music_P)=0x00000000;
800010e8:	8101a783          	lw	a5,-2032(gp) # 90000070 <Music_P>
800010ec:	0007a023          	sw	zero,0(a5)
C:\NucleiStudio_workspace\HBirdv2_Prj\gameMenu\Debug/../application/main.c:398
}
800010f0:	40b2                	lw	ra,12(sp)
800010f2:	4422                	lw	s0,8(sp)
800010f4:	0141                	addi	sp,sp,16
800010f6:	8082                	ret
C:\NucleiStudio_workspace\HBirdv2_Prj\gameMenu\Debug/../application/main.c:329
			if(musicItemIdx>0)musicItemIdx--;
800010f8:	82a18713          	addi	a4,gp,-2006 # 9000008a <musicItemIdx>
800010fc:	00074783          	lbu	a5,0(a4)
80001100:	d3f9                	beqz	a5,800010c6 <SwitchGameChartRunKey+0xfa>
C:\NucleiStudio_workspace\HBirdv2_Prj\gameMenu\Debug/../application/main.c:329 (discriminator 1)
80001102:	17fd                	addi	a5,a5,-1
80001104:	00f70023          	sb	a5,0(a4)
80001108:	bf7d                	j	800010c6 <SwitchGameChartRunKey+0xfa>
C:\NucleiStudio_workspace\HBirdv2_Prj\gameMenu\Debug/../application/main.c:335
		delay_1ms(120);
8000110a:	07800513          	li	a0,120
8000110e:	a9cff0ef          	jal	ra,800003aa <delay_1ms>
C:\NucleiStudio_workspace\HBirdv2_Prj\gameMenu\Debug/../application/main.c:336
		key_data=0;
80001112:	82918713          	addi	a4,gp,-2007 # 90000089 <listIdx>
C:\NucleiStudio_workspace\HBirdv2_Prj\gameMenu\Debug/../application/main.c:337
		if(listIdx==0)
80001116:	00074783          	lbu	a5,0(a4)
C:\NucleiStudio_workspace\HBirdv2_Prj\gameMenu\Debug/../application/main.c:336
		key_data=0;
8000111a:	82018423          	sb	zero,-2008(gp) # 90000088 <key_data>
C:\NucleiStudio_workspace\HBirdv2_Prj\gameMenu\Debug/../application/main.c:337
		if(listIdx==0)
8000111e:	0017b793          	seqz	a5,a5
80001122:	00f70023          	sb	a5,0(a4)
C:\NucleiStudio_workspace\HBirdv2_Prj\gameMenu\Debug/../application/main.c:398
}
80001126:	4422                	lw	s0,8(sp)
80001128:	40b2                	lw	ra,12(sp)
8000112a:	0141                	addi	sp,sp,16
C:\NucleiStudio_workspace\HBirdv2_Prj\gameMenu\Debug/../application/main.c:345
		drawListTable();
8000112c:	b6f9                	j	80000cfa <drawListTable>
C:\NucleiStudio_workspace\HBirdv2_Prj\gameMenu\Debug/../application/main.c:357
			LCDinverse=1;
8000112e:	4785                	li	a5,1
80001130:	82f18223          	sb	a5,-2012(gp) # 90000084 <LCDinverse>
80001134:	b715                	j	80001058 <SwitchGameChartRunKey+0x8c>
C:\NucleiStudio_workspace\HBirdv2_Prj\gameMenu\Debug/../application/main.c:365
	else if(key_data==pad_volp | PS2_R2_In)
80001136:	00064783          	lbu	a5,0(a2)
8000113a:	4354                	lw	a3,4(a4)
8000113c:	020005b7          	lui	a1,0x2000
80001140:	0ff7f793          	zext.b	a5,a5
80001144:	17e5                	addi	a5,a5,-7
80001146:	0017b793          	seqz	a5,a5
8000114a:	8eed                	and	a3,a3,a1
8000114c:	8fd5                	or	a5,a5,a3
8000114e:	eba1                	bnez	a5,8000119e <SwitchGameChartRunKey+0x1d2>
C:\NucleiStudio_workspace\HBirdv2_Prj\gameMenu\Debug/../application/main.c:374
	else if(key_data==pad_voln | PS2_L2_In)
80001150:	00064783          	lbu	a5,0(a2)
80001154:	4354                	lw	a3,4(a4)
80001156:	010005b7          	lui	a1,0x1000
8000115a:	0ff7f793          	zext.b	a5,a5
8000115e:	17e1                	addi	a5,a5,-8
80001160:	0017b793          	seqz	a5,a5
80001164:	8eed                	and	a3,a3,a1
80001166:	8fd5                	or	a5,a5,a3
80001168:	efb1                	bnez	a5,800011c4 <SwitchGameChartRunKey+0x1f8>
C:\NucleiStudio_workspace\HBirdv2_Prj\gameMenu\Debug/../application/main.c:383
	else if(key_data==pad_run | PS2_A_In)
8000116a:	00064783          	lbu	a5,0(a2)
8000116e:	4358                	lw	a4,4(a4)
80001170:	400006b7          	lui	a3,0x40000
80001174:	0ff7f793          	zext.b	a5,a5
80001178:	17ed                	addi	a5,a5,-5
8000117a:	0017b793          	seqz	a5,a5
8000117e:	8f75                	and	a4,a4,a3
80001180:	8fd9                	or	a5,a5,a4
80001182:	d7bd                	beqz	a5,800010f0 <SwitchGameChartRunKey+0x124>
C:\NucleiStudio_workspace\HBirdv2_Prj\gameMenu\Debug/../application/main.c:385
		delay_1ms(120);
80001184:	07800513          	li	a0,120
80001188:	a22ff0ef          	jal	ra,800003aa <delay_1ms>
C:\NucleiStudio_workspace\HBirdv2_Prj\gameMenu\Debug/../application/main.c:386
		key_data=0;
8000118c:	82018423          	sb	zero,-2008(gp) # 90000088 <key_data>
C:\NucleiStudio_workspace\HBirdv2_Prj\gameMenu\Debug/../application/main.c:387
		if(listIdx==0)
80001190:	8291c783          	lbu	a5,-2007(gp) # 90000089 <listIdx>
80001194:	e7b9                	bnez	a5,800011e2 <SwitchGameChartRunKey+0x216>
C:\NucleiStudio_workspace\HBirdv2_Prj\gameMenu\Debug/../application/main.c:398
}
80001196:	4422                	lw	s0,8(sp)
80001198:	40b2                	lw	ra,12(sp)
8000119a:	0141                	addi	sp,sp,16
C:\NucleiStudio_workspace\HBirdv2_Prj\gameMenu\Debug/../application/main.c:389
			GameChange();
8000119c:	b42d                	j	80000bc6 <GameChange>
C:\NucleiStudio_workspace\HBirdv2_Prj\gameMenu\Debug/../application/main.c:367
		delay_1ms(120);
8000119e:	07800513          	li	a0,120
800011a2:	a08ff0ef          	jal	ra,800003aa <delay_1ms>
C:\NucleiStudio_workspace\HBirdv2_Prj\gameMenu\Debug/../application/main.c:368
		if(musicAmp<5)
800011a6:	81418713          	addi	a4,gp,-2028 # 90000074 <musicAmp>
800011aa:	00074783          	lbu	a5,0(a4)
800011ae:	00f46763          	bltu	s0,a5,800011bc <SwitchGameChartRunKey+0x1f0>
C:\NucleiStudio_workspace\HBirdv2_Prj\gameMenu\Debug/../application/main.c:370
			musicAmp++;
800011b2:	0785                	addi	a5,a5,1
800011b4:	0ff7f793          	zext.b	a5,a5
800011b8:	00f70023          	sb	a5,0(a4)
C:\NucleiStudio_workspace\HBirdv2_Prj\gameMenu\Debug/../application/main.c:381
		*(Music_P+3)=musicAmp;
800011bc:	8101a703          	lw	a4,-2032(gp) # 90000070 <Music_P>
800011c0:	c75c                	sw	a5,12(a4)
800011c2:	b73d                	j	800010f0 <SwitchGameChartRunKey+0x124>
C:\NucleiStudio_workspace\HBirdv2_Prj\gameMenu\Debug/../application/main.c:376
		delay_1ms(120);
800011c4:	07800513          	li	a0,120
800011c8:	9e2ff0ef          	jal	ra,800003aa <delay_1ms>
C:\NucleiStudio_workspace\HBirdv2_Prj\gameMenu\Debug/../application/main.c:377
		if(musicAmp>0)
800011cc:	81418713          	addi	a4,gp,-2028 # 90000074 <musicAmp>
800011d0:	00074783          	lbu	a5,0(a4)
800011d4:	d7e5                	beqz	a5,800011bc <SwitchGameChartRunKey+0x1f0>
C:\NucleiStudio_workspace\HBirdv2_Prj\gameMenu\Debug/../application/main.c:379
			musicAmp--;
800011d6:	17fd                	addi	a5,a5,-1
800011d8:	0ff7f793          	zext.b	a5,a5
800011dc:	00f70023          	sb	a5,0(a4)
800011e0:	bff1                	j	800011bc <SwitchGameChartRunKey+0x1f0>
C:\NucleiStudio_workspace\HBirdv2_Prj\gameMenu\Debug/../application/main.c:398
}
800011e2:	4422                	lw	s0,8(sp)
800011e4:	40b2                	lw	ra,12(sp)
800011e6:	0141                	addi	sp,sp,16
C:\NucleiStudio_workspace\HBirdv2_Prj\gameMenu\Debug/../application/main.c:393
			musicChange();
800011e8:	bc6d                	j	80000ca2 <musicChange>

800011ea <switch_game>:
switch_game():
C:\NucleiStudio_workspace\HBirdv2_Prj\gameMenu\Debug/../application/main.c:403



void switch_game(void)
{
800011ea:	1141                	addi	sp,sp,-16
800011ec:	c606                	sw	ra,12(sp)
C:\NucleiStudio_workspace\HBirdv2_Prj\gameMenu\Debug/../application/main.c:404
	tableItemIdx=0;
800011ee:	820185a3          	sb	zero,-2005(gp) # 9000008b <tableItemIdx>
C:\NucleiStudio_workspace\HBirdv2_Prj\gameMenu\Debug/../application/main.c:405
	SwitchGameChartInit();
800011f2:	3b61                	jal	80000f8a <SwitchGameChartInit>
C:\NucleiStudio_workspace\HBirdv2_Prj\gameMenu\Debug/../application/main.c:408 (discriminator 1)
	while (1)
	{
		SwitchGameChartRunKey();
800011f4:	3be1                	jal	80000fcc <SwitchGameChartRunKey>
C:\NucleiStudio_workspace\HBirdv2_Prj\gameMenu\Debug/../application/main.c:406 (discriminator 1)
	while (1)
800011f6:	bffd                	j	800011f4 <switch_game+0xa>

800011f8 <__udivdi3>:
__udivdi3():
/Local/xl_ci/toolchain/riscv-gnu-toolchain/riscv-gcc/libgcc/libgcc2.c:1319
800011f8:	88aa                	mv	a7,a0
800011fa:	87ae                	mv	a5,a1
__udivmoddi4():
/Local/xl_ci/toolchain/riscv-gnu-toolchain/riscv-gcc/libgcc/libgcc2.c:1024
800011fc:	8832                	mv	a6,a2
/Local/xl_ci/toolchain/riscv-gnu-toolchain/riscv-gcc/libgcc/libgcc2.c:1025
800011fe:	8536                	mv	a0,a3
/Local/xl_ci/toolchain/riscv-gnu-toolchain/riscv-gcc/libgcc/libgcc2.c:1026
80001200:	8346                	mv	t1,a7
/Local/xl_ci/toolchain/riscv-gnu-toolchain/riscv-gcc/libgcc/libgcc2.c:1064
80001202:	20069663          	bnez	a3,8000140e <__udivdi3+0x216>
/Local/xl_ci/toolchain/riscv-gnu-toolchain/riscv-gcc/libgcc/libgcc2.c:1066
80001206:	00003697          	auipc	a3,0x3
8000120a:	ffe68693          	addi	a3,a3,-2 # 80004204 <__clz_tab>
8000120e:	0ac5ff63          	bgeu	a1,a2,800012cc <__udivdi3+0xd4>
/Local/xl_ci/toolchain/riscv-gnu-toolchain/riscv-gcc/libgcc/libgcc2.c:1070
80001212:	6741                	lui	a4,0x10
80001214:	0ae67563          	bgeu	a2,a4,800012be <__udivdi3+0xc6>
80001218:	0ff00713          	li	a4,255
8000121c:	00c73733          	sltu	a4,a4,a2
80001220:	070e                	slli	a4,a4,0x3
80001222:	00e65533          	srl	a0,a2,a4
80001226:	96aa                	add	a3,a3,a0
80001228:	0006c683          	lbu	a3,0(a3)
8000122c:	02000513          	li	a0,32
80001230:	9736                	add	a4,a4,a3
80001232:	40e506b3          	sub	a3,a0,a4
/Local/xl_ci/toolchain/riscv-gnu-toolchain/riscv-gcc/libgcc/libgcc2.c:1072
80001236:	00e50b63          	beq	a0,a4,8000124c <__udivdi3+0x54>
/Local/xl_ci/toolchain/riscv-gnu-toolchain/riscv-gcc/libgcc/libgcc2.c:1078
8000123a:	00d795b3          	sll	a1,a5,a3
8000123e:	00e8d733          	srl	a4,a7,a4
/Local/xl_ci/toolchain/riscv-gnu-toolchain/riscv-gcc/libgcc/libgcc2.c:1077
80001242:	00d61833          	sll	a6,a2,a3
/Local/xl_ci/toolchain/riscv-gnu-toolchain/riscv-gcc/libgcc/libgcc2.c:1078
80001246:	8dd9                	or	a1,a1,a4
/Local/xl_ci/toolchain/riscv-gnu-toolchain/riscv-gcc/libgcc/libgcc2.c:1079
80001248:	00d89333          	sll	t1,a7,a3
/Local/xl_ci/toolchain/riscv-gnu-toolchain/riscv-gcc/libgcc/libgcc2.c:1082
8000124c:	01085893          	srli	a7,a6,0x10
80001250:	0315d6b3          	divu	a3,a1,a7
80001254:	01081613          	slli	a2,a6,0x10
80001258:	8241                	srli	a2,a2,0x10
8000125a:	01035793          	srli	a5,t1,0x10
8000125e:	0315f733          	remu	a4,a1,a7
80001262:	8536                	mv	a0,a3
80001264:	02d605b3          	mul	a1,a2,a3
80001268:	0742                	slli	a4,a4,0x10
8000126a:	8fd9                	or	a5,a5,a4
8000126c:	00b7fc63          	bgeu	a5,a1,80001284 <__udivdi3+0x8c>
80001270:	97c2                	add	a5,a5,a6
80001272:	fff68513          	addi	a0,a3,-1
80001276:	0107e763          	bltu	a5,a6,80001284 <__udivdi3+0x8c>
8000127a:	00b7f563          	bgeu	a5,a1,80001284 <__udivdi3+0x8c>
8000127e:	ffe68513          	addi	a0,a3,-2
80001282:	97c2                	add	a5,a5,a6
80001284:	8f8d                	sub	a5,a5,a1
80001286:	0317f733          	remu	a4,a5,a7
8000128a:	0342                	slli	t1,t1,0x10
8000128c:	01035313          	srli	t1,t1,0x10
80001290:	0317d7b3          	divu	a5,a5,a7
80001294:	0742                	slli	a4,a4,0x10
80001296:	00676333          	or	t1,a4,t1
8000129a:	02f606b3          	mul	a3,a2,a5
8000129e:	863e                	mv	a2,a5
800012a0:	00d37b63          	bgeu	t1,a3,800012b6 <__udivdi3+0xbe>
800012a4:	9342                	add	t1,t1,a6
800012a6:	fff78613          	addi	a2,a5,-1
800012aa:	01036663          	bltu	t1,a6,800012b6 <__udivdi3+0xbe>
800012ae:	00d37463          	bgeu	t1,a3,800012b6 <__udivdi3+0xbe>
800012b2:	ffe78613          	addi	a2,a5,-2
800012b6:	0542                	slli	a0,a0,0x10
800012b8:	8d51                	or	a0,a0,a2
/Local/xl_ci/toolchain/riscv-gnu-toolchain/riscv-gcc/libgcc/libgcc2.c:1209
800012ba:	4581                	li	a1,0
800012bc:	a85d                	j	80001372 <__udivdi3+0x17a>
/Local/xl_ci/toolchain/riscv-gnu-toolchain/riscv-gcc/libgcc/libgcc2.c:1070
800012be:	01000537          	lui	a0,0x1000
800012c2:	4741                	li	a4,16
800012c4:	f4a66fe3          	bltu	a2,a0,80001222 <__udivdi3+0x2a>
800012c8:	4761                	li	a4,24
800012ca:	bfa1                	j	80001222 <__udivdi3+0x2a>
/Local/xl_ci/toolchain/riscv-gnu-toolchain/riscv-gcc/libgcc/libgcc2.c:1091
800012cc:	e601                	bnez	a2,800012d4 <__udivdi3+0xdc>
/Local/xl_ci/toolchain/riscv-gnu-toolchain/riscv-gcc/libgcc/libgcc2.c:1092
800012ce:	4705                	li	a4,1
800012d0:	02c75833          	divu	a6,a4,a2
/Local/xl_ci/toolchain/riscv-gnu-toolchain/riscv-gcc/libgcc/libgcc2.c:1094
800012d4:	6741                	lui	a4,0x10
800012d6:	08e87f63          	bgeu	a6,a4,80001374 <__udivdi3+0x17c>
800012da:	0ff00713          	li	a4,255
800012de:	01077363          	bgeu	a4,a6,800012e4 <__udivdi3+0xec>
800012e2:	4521                	li	a0,8
800012e4:	00a85733          	srl	a4,a6,a0
800012e8:	96ba                	add	a3,a3,a4
800012ea:	0006c703          	lbu	a4,0(a3)
800012ee:	02000613          	li	a2,32
800012f2:	972a                	add	a4,a4,a0
800012f4:	40e606b3          	sub	a3,a2,a4
/Local/xl_ci/toolchain/riscv-gnu-toolchain/riscv-gcc/libgcc/libgcc2.c:1096
800012f8:	08e61563          	bne	a2,a4,80001382 <__udivdi3+0x18a>
/Local/xl_ci/toolchain/riscv-gnu-toolchain/riscv-gcc/libgcc/libgcc2.c:1105
800012fc:	410787b3          	sub	a5,a5,a6
/Local/xl_ci/toolchain/riscv-gnu-toolchain/riscv-gcc/libgcc/libgcc2.c:1106
80001300:	4585                	li	a1,1
/Local/xl_ci/toolchain/riscv-gnu-toolchain/riscv-gcc/libgcc/libgcc2.c:1124
80001302:	01085893          	srli	a7,a6,0x10
80001306:	01081613          	slli	a2,a6,0x10
8000130a:	8241                	srli	a2,a2,0x10
8000130c:	01035713          	srli	a4,t1,0x10
80001310:	0317f6b3          	remu	a3,a5,a7
80001314:	0317d7b3          	divu	a5,a5,a7
80001318:	06c2                	slli	a3,a3,0x10
8000131a:	8f55                	or	a4,a4,a3
8000131c:	02f60e33          	mul	t3,a2,a5
80001320:	853e                	mv	a0,a5
80001322:	01c77c63          	bgeu	a4,t3,8000133a <__udivdi3+0x142>
80001326:	9742                	add	a4,a4,a6
80001328:	fff78513          	addi	a0,a5,-1
8000132c:	01076763          	bltu	a4,a6,8000133a <__udivdi3+0x142>
80001330:	01c77563          	bgeu	a4,t3,8000133a <__udivdi3+0x142>
80001334:	ffe78513          	addi	a0,a5,-2
80001338:	9742                	add	a4,a4,a6
8000133a:	41c70733          	sub	a4,a4,t3
8000133e:	031777b3          	remu	a5,a4,a7
80001342:	0342                	slli	t1,t1,0x10
80001344:	01035313          	srli	t1,t1,0x10
80001348:	03175733          	divu	a4,a4,a7
8000134c:	07c2                	slli	a5,a5,0x10
8000134e:	0067e333          	or	t1,a5,t1
80001352:	02e606b3          	mul	a3,a2,a4
80001356:	863a                	mv	a2,a4
80001358:	00d37b63          	bgeu	t1,a3,8000136e <__udivdi3+0x176>
8000135c:	9342                	add	t1,t1,a6
8000135e:	fff70613          	addi	a2,a4,-1 # ffff <__stack_size+0xf7ff>
80001362:	01036663          	bltu	t1,a6,8000136e <__udivdi3+0x176>
80001366:	00d37463          	bgeu	t1,a3,8000136e <__udivdi3+0x176>
8000136a:	ffe70613          	addi	a2,a4,-2
8000136e:	0542                	slli	a0,a0,0x10
80001370:	8d51                	or	a0,a0,a2
__udivdi3():
/Local/xl_ci/toolchain/riscv-gnu-toolchain/riscv-gcc/libgcc/libgcc2.c:1321
80001372:	8082                	ret
__udivmoddi4():
/Local/xl_ci/toolchain/riscv-gnu-toolchain/riscv-gcc/libgcc/libgcc2.c:1094
80001374:	01000737          	lui	a4,0x1000
80001378:	4541                	li	a0,16
8000137a:	f6e865e3          	bltu	a6,a4,800012e4 <__udivdi3+0xec>
8000137e:	4561                	li	a0,24
80001380:	b795                	j	800012e4 <__udivdi3+0xec>
/Local/xl_ci/toolchain/riscv-gnu-toolchain/riscv-gcc/libgcc/libgcc2.c:1114
80001382:	00d81833          	sll	a6,a6,a3
/Local/xl_ci/toolchain/riscv-gnu-toolchain/riscv-gcc/libgcc/libgcc2.c:1115
80001386:	00e7d533          	srl	a0,a5,a4
/Local/xl_ci/toolchain/riscv-gnu-toolchain/riscv-gcc/libgcc/libgcc2.c:1117
8000138a:	00d89333          	sll	t1,a7,a3
/Local/xl_ci/toolchain/riscv-gnu-toolchain/riscv-gcc/libgcc/libgcc2.c:1116
8000138e:	00d797b3          	sll	a5,a5,a3
80001392:	00e8d733          	srl	a4,a7,a4
/Local/xl_ci/toolchain/riscv-gnu-toolchain/riscv-gcc/libgcc/libgcc2.c:1119
80001396:	01085893          	srli	a7,a6,0x10
/Local/xl_ci/toolchain/riscv-gnu-toolchain/riscv-gcc/libgcc/libgcc2.c:1116
8000139a:	00f76633          	or	a2,a4,a5
/Local/xl_ci/toolchain/riscv-gnu-toolchain/riscv-gcc/libgcc/libgcc2.c:1119
8000139e:	03157733          	remu	a4,a0,a7
800013a2:	01081793          	slli	a5,a6,0x10
800013a6:	83c1                	srli	a5,a5,0x10
800013a8:	01065593          	srli	a1,a2,0x10
800013ac:	03155533          	divu	a0,a0,a7
800013b0:	0742                	slli	a4,a4,0x10
800013b2:	8f4d                	or	a4,a4,a1
800013b4:	02a786b3          	mul	a3,a5,a0
800013b8:	85aa                	mv	a1,a0
800013ba:	00d77c63          	bgeu	a4,a3,800013d2 <__udivdi3+0x1da>
800013be:	9742                	add	a4,a4,a6
800013c0:	fff50593          	addi	a1,a0,-1 # ffffff <__stack_size+0xfff7ff>
800013c4:	01076763          	bltu	a4,a6,800013d2 <__udivdi3+0x1da>
800013c8:	00d77563          	bgeu	a4,a3,800013d2 <__udivdi3+0x1da>
800013cc:	ffe50593          	addi	a1,a0,-2
800013d0:	9742                	add	a4,a4,a6
800013d2:	40d706b3          	sub	a3,a4,a3
800013d6:	0316f733          	remu	a4,a3,a7
800013da:	0642                	slli	a2,a2,0x10
800013dc:	8241                	srli	a2,a2,0x10
800013de:	0316d6b3          	divu	a3,a3,a7
800013e2:	0742                	slli	a4,a4,0x10
800013e4:	02d78533          	mul	a0,a5,a3
800013e8:	00c767b3          	or	a5,a4,a2
800013ec:	8736                	mv	a4,a3
800013ee:	00a7fc63          	bgeu	a5,a0,80001406 <__udivdi3+0x20e>
800013f2:	97c2                	add	a5,a5,a6
800013f4:	fff68713          	addi	a4,a3,-1
800013f8:	0107e763          	bltu	a5,a6,80001406 <__udivdi3+0x20e>
800013fc:	00a7f563          	bgeu	a5,a0,80001406 <__udivdi3+0x20e>
80001400:	ffe68713          	addi	a4,a3,-2
80001404:	97c2                	add	a5,a5,a6
80001406:	05c2                	slli	a1,a1,0x10
80001408:	8f89                	sub	a5,a5,a0
8000140a:	8dd9                	or	a1,a1,a4
8000140c:	bddd                	j	80001302 <__udivdi3+0x10a>
/Local/xl_ci/toolchain/riscv-gnu-toolchain/riscv-gcc/libgcc/libgcc2.c:1140
8000140e:	14d5e263          	bltu	a1,a3,80001552 <__udivdi3+0x35a>
/Local/xl_ci/toolchain/riscv-gnu-toolchain/riscv-gcc/libgcc/libgcc2.c:1159
80001412:	6741                	lui	a4,0x10
80001414:	02e6ff63          	bgeu	a3,a4,80001452 <__udivdi3+0x25a>
80001418:	0ff00713          	li	a4,255
8000141c:	00d735b3          	sltu	a1,a4,a3
80001420:	058e                	slli	a1,a1,0x3
80001422:	00b6d533          	srl	a0,a3,a1
80001426:	00003717          	auipc	a4,0x3
8000142a:	dde70713          	addi	a4,a4,-546 # 80004204 <__clz_tab>
8000142e:	972a                	add	a4,a4,a0
80001430:	00074703          	lbu	a4,0(a4)
80001434:	02000513          	li	a0,32
80001438:	972e                	add	a4,a4,a1
8000143a:	40e505b3          	sub	a1,a0,a4
/Local/xl_ci/toolchain/riscv-gnu-toolchain/riscv-gcc/libgcc/libgcc2.c:1160
8000143e:	02e51163          	bne	a0,a4,80001460 <__udivdi3+0x268>
/Local/xl_ci/toolchain/riscv-gnu-toolchain/riscv-gcc/libgcc/libgcc2.c:1172
80001442:	4505                	li	a0,1
/Local/xl_ci/toolchain/riscv-gnu-toolchain/riscv-gcc/libgcc/libgcc2.c:1170
80001444:	f2f6e7e3          	bltu	a3,a5,80001372 <__udivdi3+0x17a>
80001448:	00c8b533          	sltu	a0,a7,a2
8000144c:	00154513          	xori	a0,a0,1
80001450:	b70d                	j	80001372 <__udivdi3+0x17a>
/Local/xl_ci/toolchain/riscv-gnu-toolchain/riscv-gcc/libgcc/libgcc2.c:1159
80001452:	01000737          	lui	a4,0x1000
80001456:	45c1                	li	a1,16
80001458:	fce6e5e3          	bltu	a3,a4,80001422 <__udivdi3+0x22a>
8000145c:	45e1                	li	a1,24
8000145e:	b7d1                	j	80001422 <__udivdi3+0x22a>
/Local/xl_ci/toolchain/riscv-gnu-toolchain/riscv-gcc/libgcc/libgcc2.c:1194
80001460:	00e65833          	srl	a6,a2,a4
80001464:	00b696b3          	sll	a3,a3,a1
80001468:	00d86833          	or	a6,a6,a3
/Local/xl_ci/toolchain/riscv-gnu-toolchain/riscv-gcc/libgcc/libgcc2.c:1196
8000146c:	00e7d333          	srl	t1,a5,a4
/Local/xl_ci/toolchain/riscv-gnu-toolchain/riscv-gcc/libgcc/libgcc2.c:1200
80001470:	01085e93          	srli	t4,a6,0x10
80001474:	03d376b3          	remu	a3,t1,t4
/Local/xl_ci/toolchain/riscv-gnu-toolchain/riscv-gcc/libgcc/libgcc2.c:1197
80001478:	00b797b3          	sll	a5,a5,a1
8000147c:	00e8d733          	srl	a4,a7,a4
/Local/xl_ci/toolchain/riscv-gnu-toolchain/riscv-gcc/libgcc/libgcc2.c:1195
80001480:	00b61e33          	sll	t3,a2,a1
/Local/xl_ci/toolchain/riscv-gnu-toolchain/riscv-gcc/libgcc/libgcc2.c:1197
80001484:	00f76633          	or	a2,a4,a5
/Local/xl_ci/toolchain/riscv-gnu-toolchain/riscv-gcc/libgcc/libgcc2.c:1200
80001488:	01081793          	slli	a5,a6,0x10
8000148c:	83c1                	srli	a5,a5,0x10
8000148e:	01065713          	srli	a4,a2,0x10
80001492:	03d35333          	divu	t1,t1,t4
80001496:	06c2                	slli	a3,a3,0x10
80001498:	8f55                	or	a4,a4,a3
8000149a:	02678f33          	mul	t5,a5,t1
8000149e:	851a                	mv	a0,t1
800014a0:	01e77c63          	bgeu	a4,t5,800014b8 <__udivdi3+0x2c0>
800014a4:	9742                	add	a4,a4,a6
800014a6:	fff30513          	addi	a0,t1,-1
800014aa:	01076763          	bltu	a4,a6,800014b8 <__udivdi3+0x2c0>
800014ae:	01e77563          	bgeu	a4,t5,800014b8 <__udivdi3+0x2c0>
800014b2:	ffe30513          	addi	a0,t1,-2
800014b6:	9742                	add	a4,a4,a6
800014b8:	41e70733          	sub	a4,a4,t5
800014bc:	03d776b3          	remu	a3,a4,t4
800014c0:	03d75733          	divu	a4,a4,t4
800014c4:	06c2                	slli	a3,a3,0x10
800014c6:	02e78333          	mul	t1,a5,a4
800014ca:	01061793          	slli	a5,a2,0x10
800014ce:	83c1                	srli	a5,a5,0x10
800014d0:	8fd5                	or	a5,a5,a3
800014d2:	863a                	mv	a2,a4
800014d4:	0067fc63          	bgeu	a5,t1,800014ec <__udivdi3+0x2f4>
800014d8:	97c2                	add	a5,a5,a6
800014da:	fff70613          	addi	a2,a4,-1 # ffffff <__stack_size+0xfff7ff>
800014de:	0107e763          	bltu	a5,a6,800014ec <__udivdi3+0x2f4>
800014e2:	0067f563          	bgeu	a5,t1,800014ec <__udivdi3+0x2f4>
800014e6:	ffe70613          	addi	a2,a4,-2
800014ea:	97c2                	add	a5,a5,a6
800014ec:	0542                	slli	a0,a0,0x10
/Local/xl_ci/toolchain/riscv-gnu-toolchain/riscv-gcc/libgcc/libgcc2.c:1201
800014ee:	6ec1                	lui	t4,0x10
/Local/xl_ci/toolchain/riscv-gnu-toolchain/riscv-gcc/libgcc/libgcc2.c:1200
800014f0:	8d51                	or	a0,a0,a2
/Local/xl_ci/toolchain/riscv-gnu-toolchain/riscv-gcc/libgcc/libgcc2.c:1201
800014f2:	fffe8693          	addi	a3,t4,-1 # ffff <__stack_size+0xf7ff>
800014f6:	010e5613          	srli	a2,t3,0x10
800014fa:	01055813          	srli	a6,a0,0x10
/Local/xl_ci/toolchain/riscv-gnu-toolchain/riscv-gcc/libgcc/libgcc2.c:1200
800014fe:	406787b3          	sub	a5,a5,t1
/Local/xl_ci/toolchain/riscv-gnu-toolchain/riscv-gcc/libgcc/libgcc2.c:1201
80001502:	00d57333          	and	t1,a0,a3
80001506:	00de76b3          	and	a3,t3,a3
8000150a:	02d30e33          	mul	t3,t1,a3
8000150e:	02d806b3          	mul	a3,a6,a3
80001512:	010e5713          	srli	a4,t3,0x10
80001516:	02c30333          	mul	t1,t1,a2
8000151a:	9336                	add	t1,t1,a3
8000151c:	971a                	add	a4,a4,t1
8000151e:	02c80833          	mul	a6,a6,a2
80001522:	00d77363          	bgeu	a4,a3,80001528 <__udivdi3+0x330>
80001526:	9876                	add	a6,a6,t4
80001528:	01075693          	srli	a3,a4,0x10
8000152c:	9836                	add	a6,a6,a3
/Local/xl_ci/toolchain/riscv-gnu-toolchain/riscv-gcc/libgcc/libgcc2.c:1203
8000152e:	0307e063          	bltu	a5,a6,8000154e <__udivdi3+0x356>
80001532:	d90794e3          	bne	a5,a6,800012ba <__udivdi3+0xc2>
/Local/xl_ci/toolchain/riscv-gnu-toolchain/riscv-gcc/libgcc/libgcc2.c:1201
80001536:	67c1                	lui	a5,0x10
80001538:	17fd                	addi	a5,a5,-1
8000153a:	8f7d                	and	a4,a4,a5
8000153c:	0742                	slli	a4,a4,0x10
8000153e:	00fe7e33          	and	t3,t3,a5
/Local/xl_ci/toolchain/riscv-gnu-toolchain/riscv-gcc/libgcc/libgcc2.c:1198
80001542:	00b898b3          	sll	a7,a7,a1
/Local/xl_ci/toolchain/riscv-gnu-toolchain/riscv-gcc/libgcc/libgcc2.c:1201
80001546:	9772                	add	a4,a4,t3
/Local/xl_ci/toolchain/riscv-gnu-toolchain/riscv-gcc/libgcc/libgcc2.c:1209
80001548:	4581                	li	a1,0
/Local/xl_ci/toolchain/riscv-gnu-toolchain/riscv-gcc/libgcc/libgcc2.c:1203
8000154a:	e2e8f4e3          	bgeu	a7,a4,80001372 <__udivdi3+0x17a>
/Local/xl_ci/toolchain/riscv-gnu-toolchain/riscv-gcc/libgcc/libgcc2.c:1205
8000154e:	157d                	addi	a0,a0,-1
__udivdi3():
/Local/xl_ci/toolchain/riscv-gnu-toolchain/riscv-gcc/libgcc/libgcc2.c:1206
80001550:	b3ad                	j	800012ba <__udivdi3+0xc2>
__udivmoddi4():
/Local/xl_ci/toolchain/riscv-gnu-toolchain/riscv-gcc/libgcc/libgcc2.c:1145
80001552:	4581                	li	a1,0
/Local/xl_ci/toolchain/riscv-gnu-toolchain/riscv-gcc/libgcc/libgcc2.c:1144
80001554:	4501                	li	a0,0
80001556:	bd31                	j	80001372 <__udivdi3+0x17a>

80001558 <atexit>:
atexit():
80001558:	85aa                	mv	a1,a0
8000155a:	4681                	li	a3,0
8000155c:	4601                	li	a2,0
8000155e:	4501                	li	a0,0
80001560:	a115                	j	80001984 <__register_exitproc>

80001562 <__libc_fini_array>:
__libc_fini_array():
80001562:	1141                	addi	sp,sp,-16
80001564:	c422                	sw	s0,8(sp)
80001566:	c226                	sw	s1,4(sp)
80001568:	00003417          	auipc	s0,0x3
8000156c:	e9040413          	addi	s0,s0,-368 # 800043f8 <__fsymtab_end>
80001570:	00003497          	auipc	s1,0x3
80001574:	e8848493          	addi	s1,s1,-376 # 800043f8 <__fsymtab_end>
80001578:	8c05                	sub	s0,s0,s1
8000157a:	c606                	sw	ra,12(sp)
8000157c:	8409                	srai	s0,s0,0x2
8000157e:	e411                	bnez	s0,8000158a <__libc_fini_array+0x28>
80001580:	40b2                	lw	ra,12(sp)
80001582:	4422                	lw	s0,8(sp)
80001584:	4492                	lw	s1,4(sp)
80001586:	0141                	addi	sp,sp,16
80001588:	8082                	ret
8000158a:	147d                	addi	s0,s0,-1
8000158c:	00241793          	slli	a5,s0,0x2
80001590:	97a6                	add	a5,a5,s1
80001592:	439c                	lw	a5,0(a5)
80001594:	9782                	jalr	a5
80001596:	b7e5                	j	8000157e <__libc_fini_array+0x1c>

80001598 <__libc_init_array>:
__libc_init_array():
80001598:	1141                	addi	sp,sp,-16
8000159a:	c422                	sw	s0,8(sp)
8000159c:	c226                	sw	s1,4(sp)
8000159e:	00003417          	auipc	s0,0x3
800015a2:	e5a40413          	addi	s0,s0,-422 # 800043f8 <__fsymtab_end>
800015a6:	00003497          	auipc	s1,0x3
800015aa:	e5248493          	addi	s1,s1,-430 # 800043f8 <__fsymtab_end>
800015ae:	8c81                	sub	s1,s1,s0
800015b0:	c04a                	sw	s2,0(sp)
800015b2:	c606                	sw	ra,12(sp)
800015b4:	8489                	srai	s1,s1,0x2
800015b6:	4901                	li	s2,0
800015b8:	02991563          	bne	s2,s1,800015e2 <__libc_init_array+0x4a>
800015bc:	00003417          	auipc	s0,0x3
800015c0:	e3c40413          	addi	s0,s0,-452 # 800043f8 <__fsymtab_end>
800015c4:	00003497          	auipc	s1,0x3
800015c8:	e3448493          	addi	s1,s1,-460 # 800043f8 <__fsymtab_end>
800015cc:	8c81                	sub	s1,s1,s0
800015ce:	8489                	srai	s1,s1,0x2
800015d0:	4901                	li	s2,0
800015d2:	00991d63          	bne	s2,s1,800015ec <__libc_init_array+0x54>
800015d6:	40b2                	lw	ra,12(sp)
800015d8:	4422                	lw	s0,8(sp)
800015da:	4492                	lw	s1,4(sp)
800015dc:	4902                	lw	s2,0(sp)
800015de:	0141                	addi	sp,sp,16
800015e0:	8082                	ret
800015e2:	401c                	lw	a5,0(s0)
800015e4:	0905                	addi	s2,s2,1
800015e6:	0411                	addi	s0,s0,4
800015e8:	9782                	jalr	a5
800015ea:	b7f9                	j	800015b8 <__libc_init_array+0x20>
800015ec:	401c                	lw	a5,0(s0)
800015ee:	0905                	addi	s2,s2,1
800015f0:	0411                	addi	s0,s0,4
800015f2:	9782                	jalr	a5
800015f4:	bff9                	j	800015d2 <__libc_init_array+0x3a>

800015f6 <memset>:
memset():
800015f6:	433d                	li	t1,15
800015f8:	872a                	mv	a4,a0
800015fa:	02c37363          	bgeu	t1,a2,80001620 <memset+0x2a>
800015fe:	00f77793          	andi	a5,a4,15
80001602:	efbd                	bnez	a5,80001680 <memset+0x8a>
80001604:	e5ad                	bnez	a1,8000166e <memset+0x78>
80001606:	ff067693          	andi	a3,a2,-16
8000160a:	8a3d                	andi	a2,a2,15
8000160c:	96ba                	add	a3,a3,a4
8000160e:	c30c                	sw	a1,0(a4)
80001610:	c34c                	sw	a1,4(a4)
80001612:	c70c                	sw	a1,8(a4)
80001614:	c74c                	sw	a1,12(a4)
80001616:	0741                	addi	a4,a4,16
80001618:	fed76be3          	bltu	a4,a3,8000160e <memset+0x18>
8000161c:	e211                	bnez	a2,80001620 <memset+0x2a>
8000161e:	8082                	ret
80001620:	40c306b3          	sub	a3,t1,a2
80001624:	068a                	slli	a3,a3,0x2
80001626:	00000297          	auipc	t0,0x0
8000162a:	9696                	add	a3,a3,t0
8000162c:	00a68067          	jr	10(a3)
80001630:	00b70723          	sb	a1,14(a4)
80001634:	00b706a3          	sb	a1,13(a4)
80001638:	00b70623          	sb	a1,12(a4)
8000163c:	00b705a3          	sb	a1,11(a4)
80001640:	00b70523          	sb	a1,10(a4)
80001644:	00b704a3          	sb	a1,9(a4)
80001648:	00b70423          	sb	a1,8(a4)
8000164c:	00b703a3          	sb	a1,7(a4)
80001650:	00b70323          	sb	a1,6(a4)
80001654:	00b702a3          	sb	a1,5(a4)
80001658:	00b70223          	sb	a1,4(a4)
8000165c:	00b701a3          	sb	a1,3(a4)
80001660:	00b70123          	sb	a1,2(a4)
80001664:	00b700a3          	sb	a1,1(a4)
80001668:	00b70023          	sb	a1,0(a4)
8000166c:	8082                	ret
8000166e:	0ff5f593          	zext.b	a1,a1
80001672:	00859693          	slli	a3,a1,0x8
80001676:	8dd5                	or	a1,a1,a3
80001678:	01059693          	slli	a3,a1,0x10
8000167c:	8dd5                	or	a1,a1,a3
8000167e:	b761                	j	80001606 <memset+0x10>
80001680:	00279693          	slli	a3,a5,0x2
80001684:	00000297          	auipc	t0,0x0
80001688:	9696                	add	a3,a3,t0
8000168a:	8286                	mv	t0,ra
8000168c:	fa8680e7          	jalr	-88(a3)
80001690:	8096                	mv	ra,t0
80001692:	17c1                	addi	a5,a5,-16
80001694:	8f1d                	sub	a4,a4,a5
80001696:	963e                	add	a2,a2,a5
80001698:	f8c374e3          	bgeu	t1,a2,80001620 <memset+0x2a>
8000169c:	b7a5                	j	80001604 <memset+0xe>

8000169e <iprintf>:
printf():
8000169e:	715d                	addi	sp,sp,-80
800016a0:	d422                	sw	s0,40(sp)
800016a2:	d606                	sw	ra,44(sp)
800016a4:	842a                	mv	s0,a0
800016a6:	da2e                	sw	a1,52(sp)
800016a8:	dc32                	sw	a2,56(sp)
800016aa:	de36                	sw	a3,60(sp)
800016ac:	c0ba                	sw	a4,64(sp)
800016ae:	c2be                	sw	a5,68(sp)
800016b0:	c4c2                	sw	a6,72(sp)
800016b2:	c6c6                	sw	a7,76(sp)
800016b4:	8181a503          	lw	a0,-2024(gp) # 90000078 <_impure_ptr>
800016b8:	c511                	beqz	a0,800016c4 <iprintf+0x26>
800016ba:	4d1c                	lw	a5,24(a0)
800016bc:	e781                	bnez	a5,800016c4 <iprintf+0x26>
800016be:	c62a                	sw	a0,12(sp)
800016c0:	2b69                	jal	80001c5a <__sinit>
800016c2:	4532                	lw	a0,12(sp)
800016c4:	450c                	lw	a1,8(a0)
800016c6:	1854                	addi	a3,sp,52
800016c8:	8622                	mv	a2,s0
800016ca:	ce36                	sw	a3,28(sp)
800016cc:	1d7000ef          	jal	ra,800020a2 <_vfiprintf_r>
800016d0:	50b2                	lw	ra,44(sp)
800016d2:	5422                	lw	s0,40(sp)
800016d4:	6161                	addi	sp,sp,80
800016d6:	8082                	ret

800016d8 <_puts_r>:
_puts_r():
800016d8:	1101                	addi	sp,sp,-32
800016da:	ca26                	sw	s1,20(sp)
800016dc:	c84a                	sw	s2,16(sp)
800016de:	ce06                	sw	ra,28(sp)
800016e0:	cc22                	sw	s0,24(sp)
800016e2:	c64e                	sw	s3,12(sp)
800016e4:	c452                	sw	s4,8(sp)
800016e6:	84aa                	mv	s1,a0
800016e8:	892e                	mv	s2,a1
800016ea:	c501                	beqz	a0,800016f2 <_puts_r+0x1a>
800016ec:	4d1c                	lw	a5,24(a0)
800016ee:	e391                	bnez	a5,800016f2 <_puts_r+0x1a>
800016f0:	23ad                	jal	80001c5a <__sinit>
800016f2:	4c9c                	lw	a5,24(s1)
800016f4:	4480                	lw	s0,8(s1)
800016f6:	e399                	bnez	a5,800016fc <_puts_r+0x24>
800016f8:	8526                	mv	a0,s1
800016fa:	2385                	jal	80001c5a <__sinit>
800016fc:	00003797          	auipc	a5,0x3
80001700:	c2878793          	addi	a5,a5,-984 # 80004324 <__sf_fake_stdin>
80001704:	02f41c63          	bne	s0,a5,8000173c <_puts_r+0x64>
80001708:	40c0                	lw	s0,4(s1)
8000170a:	00c45783          	lhu	a5,12(s0)
8000170e:	8ba1                	andi	a5,a5,8
80001710:	c7b1                	beqz	a5,8000175c <_puts_r+0x84>
80001712:	481c                	lw	a5,16(s0)
80001714:	c7a1                	beqz	a5,8000175c <_puts_r+0x84>
80001716:	59fd                	li	s3,-1
80001718:	4a29                	li	s4,10
8000171a:	441c                	lw	a5,8(s0)
8000171c:	00094583          	lbu	a1,0(s2)
80001720:	17fd                	addi	a5,a5,-1
80001722:	e9b1                	bnez	a1,80001776 <_puts_r+0x9e>
80001724:	c41c                	sw	a5,8(s0)
80001726:	0607de63          	bgez	a5,800017a2 <_puts_r+0xca>
8000172a:	8622                	mv	a2,s0
8000172c:	45a9                	li	a1,10
8000172e:	8526                	mv	a0,s1
80001730:	2079                	jal	800017be <__swbuf_r>
80001732:	57fd                	li	a5,-1
80001734:	02f50863          	beq	a0,a5,80001764 <_puts_r+0x8c>
80001738:	4529                	li	a0,10
8000173a:	a035                	j	80001766 <_puts_r+0x8e>
8000173c:	00003797          	auipc	a5,0x3
80001740:	c0878793          	addi	a5,a5,-1016 # 80004344 <__sf_fake_stdout>
80001744:	00f41463          	bne	s0,a5,8000174c <_puts_r+0x74>
80001748:	4480                	lw	s0,8(s1)
8000174a:	b7c1                	j	8000170a <_puts_r+0x32>
8000174c:	00003797          	auipc	a5,0x3
80001750:	bb878793          	addi	a5,a5,-1096 # 80004304 <__sf_fake_stderr>
80001754:	faf41be3          	bne	s0,a5,8000170a <_puts_r+0x32>
80001758:	44c0                	lw	s0,12(s1)
8000175a:	bf45                	j	8000170a <_puts_r+0x32>
8000175c:	85a2                	mv	a1,s0
8000175e:	8526                	mv	a0,s1
80001760:	2a39                	jal	8000187e <__swsetup_r>
80001762:	d955                	beqz	a0,80001716 <_puts_r+0x3e>
80001764:	557d                	li	a0,-1
80001766:	40f2                	lw	ra,28(sp)
80001768:	4462                	lw	s0,24(sp)
8000176a:	44d2                	lw	s1,20(sp)
8000176c:	4942                	lw	s2,16(sp)
8000176e:	49b2                	lw	s3,12(sp)
80001770:	4a22                	lw	s4,8(sp)
80001772:	6105                	addi	sp,sp,32
80001774:	8082                	ret
80001776:	c41c                	sw	a5,8(s0)
80001778:	0905                	addi	s2,s2,1
8000177a:	0007d763          	bgez	a5,80001788 <_puts_r+0xb0>
8000177e:	4c18                	lw	a4,24(s0)
80001780:	00e7cb63          	blt	a5,a4,80001796 <_puts_r+0xbe>
80001784:	01458963          	beq	a1,s4,80001796 <_puts_r+0xbe>
80001788:	401c                	lw	a5,0(s0)
8000178a:	00178713          	addi	a4,a5,1
8000178e:	c018                	sw	a4,0(s0)
80001790:	00b78023          	sb	a1,0(a5)
80001794:	b759                	j	8000171a <_puts_r+0x42>
80001796:	8622                	mv	a2,s0
80001798:	8526                	mv	a0,s1
8000179a:	2015                	jal	800017be <__swbuf_r>
8000179c:	f7351fe3          	bne	a0,s3,8000171a <_puts_r+0x42>
800017a0:	b7d1                	j	80001764 <_puts_r+0x8c>
800017a2:	401c                	lw	a5,0(s0)
800017a4:	00178713          	addi	a4,a5,1
800017a8:	c018                	sw	a4,0(s0)
800017aa:	4729                	li	a4,10
800017ac:	00e78023          	sb	a4,0(a5)
800017b0:	b761                	j	80001738 <_puts_r+0x60>

800017b2 <puts>:
puts():
800017b2:	85aa                	mv	a1,a0
800017b4:	8181a503          	lw	a0,-2024(gp) # 90000078 <_impure_ptr>
800017b8:	b705                	j	800016d8 <_puts_r>

800017ba <isatty>:
isatty():
800017ba:	93ffe06f          	j	800000f8 <_isatty>

800017be <__swbuf_r>:
__swbuf_r():
800017be:	1101                	addi	sp,sp,-32
800017c0:	cc22                	sw	s0,24(sp)
800017c2:	ca26                	sw	s1,20(sp)
800017c4:	c84a                	sw	s2,16(sp)
800017c6:	ce06                	sw	ra,28(sp)
800017c8:	c64e                	sw	s3,12(sp)
800017ca:	84aa                	mv	s1,a0
800017cc:	892e                	mv	s2,a1
800017ce:	8432                	mv	s0,a2
800017d0:	c501                	beqz	a0,800017d8 <__swbuf_r+0x1a>
800017d2:	4d1c                	lw	a5,24(a0)
800017d4:	e391                	bnez	a5,800017d8 <__swbuf_r+0x1a>
800017d6:	2151                	jal	80001c5a <__sinit>
800017d8:	00003797          	auipc	a5,0x3
800017dc:	b4c78793          	addi	a5,a5,-1204 # 80004324 <__sf_fake_stdin>
800017e0:	06f41963          	bne	s0,a5,80001852 <__swbuf_r+0x94>
800017e4:	40c0                	lw	s0,4(s1)
800017e6:	4c1c                	lw	a5,24(s0)
800017e8:	c41c                	sw	a5,8(s0)
800017ea:	00c45783          	lhu	a5,12(s0)
800017ee:	8ba1                	andi	a5,a5,8
800017f0:	c3c9                	beqz	a5,80001872 <__swbuf_r+0xb4>
800017f2:	481c                	lw	a5,16(s0)
800017f4:	cfbd                	beqz	a5,80001872 <__swbuf_r+0xb4>
800017f6:	481c                	lw	a5,16(s0)
800017f8:	4008                	lw	a0,0(s0)
800017fa:	0ff97993          	zext.b	s3,s2
800017fe:	0ff97913          	zext.b	s2,s2
80001802:	8d1d                	sub	a0,a0,a5
80001804:	485c                	lw	a5,20(s0)
80001806:	00f54663          	blt	a0,a5,80001812 <__swbuf_r+0x54>
8000180a:	85a2                	mv	a1,s0
8000180c:	8526                	mv	a0,s1
8000180e:	2e05                	jal	80001b3e <_fflush_r>
80001810:	e52d                	bnez	a0,8000187a <__swbuf_r+0xbc>
80001812:	441c                	lw	a5,8(s0)
80001814:	0505                	addi	a0,a0,1
80001816:	17fd                	addi	a5,a5,-1
80001818:	c41c                	sw	a5,8(s0)
8000181a:	401c                	lw	a5,0(s0)
8000181c:	00178713          	addi	a4,a5,1
80001820:	c018                	sw	a4,0(s0)
80001822:	01378023          	sb	s3,0(a5)
80001826:	485c                	lw	a5,20(s0)
80001828:	00a78963          	beq	a5,a0,8000183a <__swbuf_r+0x7c>
8000182c:	00c45783          	lhu	a5,12(s0)
80001830:	8b85                	andi	a5,a5,1
80001832:	cb81                	beqz	a5,80001842 <__swbuf_r+0x84>
80001834:	47a9                	li	a5,10
80001836:	00f91663          	bne	s2,a5,80001842 <__swbuf_r+0x84>
8000183a:	85a2                	mv	a1,s0
8000183c:	8526                	mv	a0,s1
8000183e:	2601                	jal	80001b3e <_fflush_r>
80001840:	ed0d                	bnez	a0,8000187a <__swbuf_r+0xbc>
80001842:	40f2                	lw	ra,28(sp)
80001844:	4462                	lw	s0,24(sp)
80001846:	44d2                	lw	s1,20(sp)
80001848:	49b2                	lw	s3,12(sp)
8000184a:	854a                	mv	a0,s2
8000184c:	4942                	lw	s2,16(sp)
8000184e:	6105                	addi	sp,sp,32
80001850:	8082                	ret
80001852:	00003797          	auipc	a5,0x3
80001856:	af278793          	addi	a5,a5,-1294 # 80004344 <__sf_fake_stdout>
8000185a:	00f41463          	bne	s0,a5,80001862 <__swbuf_r+0xa4>
8000185e:	4480                	lw	s0,8(s1)
80001860:	b759                	j	800017e6 <__swbuf_r+0x28>
80001862:	00003797          	auipc	a5,0x3
80001866:	aa278793          	addi	a5,a5,-1374 # 80004304 <__sf_fake_stderr>
8000186a:	f6f41ee3          	bne	s0,a5,800017e6 <__swbuf_r+0x28>
8000186e:	44c0                	lw	s0,12(s1)
80001870:	bf9d                	j	800017e6 <__swbuf_r+0x28>
80001872:	85a2                	mv	a1,s0
80001874:	8526                	mv	a0,s1
80001876:	2021                	jal	8000187e <__swsetup_r>
80001878:	dd3d                	beqz	a0,800017f6 <__swbuf_r+0x38>
8000187a:	597d                	li	s2,-1
8000187c:	b7d9                	j	80001842 <__swbuf_r+0x84>

8000187e <__swsetup_r>:
__swsetup_r():
8000187e:	1141                	addi	sp,sp,-16
80001880:	c422                	sw	s0,8(sp)
80001882:	c226                	sw	s1,4(sp)
80001884:	c04a                	sw	s2,0(sp)
80001886:	c606                	sw	ra,12(sp)
80001888:	8181a483          	lw	s1,-2024(gp) # 90000078 <_impure_ptr>
8000188c:	892a                	mv	s2,a0
8000188e:	842e                	mv	s0,a1
80001890:	c489                	beqz	s1,8000189a <__swsetup_r+0x1c>
80001892:	4c9c                	lw	a5,24(s1)
80001894:	e399                	bnez	a5,8000189a <__swsetup_r+0x1c>
80001896:	8526                	mv	a0,s1
80001898:	26c9                	jal	80001c5a <__sinit>
8000189a:	00003797          	auipc	a5,0x3
8000189e:	a8a78793          	addi	a5,a5,-1398 # 80004324 <__sf_fake_stdin>
800018a2:	02f41763          	bne	s0,a5,800018d0 <__swsetup_r+0x52>
800018a6:	40c0                	lw	s0,4(s1)
800018a8:	00c41783          	lh	a5,12(s0)
800018ac:	01079713          	slli	a4,a5,0x10
800018b0:	0087f693          	andi	a3,a5,8
800018b4:	8341                	srli	a4,a4,0x10
800018b6:	eaad                	bnez	a3,80001928 <__swsetup_r+0xaa>
800018b8:	01077693          	andi	a3,a4,16
800018bc:	ea95                	bnez	a3,800018f0 <__swsetup_r+0x72>
800018be:	4725                	li	a4,9
800018c0:	00e92023          	sw	a4,0(s2)
800018c4:	0407e793          	ori	a5,a5,64
800018c8:	00f41623          	sh	a5,12(s0)
800018cc:	557d                	li	a0,-1
800018ce:	a871                	j	8000196a <__swsetup_r+0xec>
800018d0:	00003797          	auipc	a5,0x3
800018d4:	a7478793          	addi	a5,a5,-1420 # 80004344 <__sf_fake_stdout>
800018d8:	00f41463          	bne	s0,a5,800018e0 <__swsetup_r+0x62>
800018dc:	4480                	lw	s0,8(s1)
800018de:	b7e9                	j	800018a8 <__swsetup_r+0x2a>
800018e0:	00003797          	auipc	a5,0x3
800018e4:	a2478793          	addi	a5,a5,-1500 # 80004304 <__sf_fake_stderr>
800018e8:	fcf410e3          	bne	s0,a5,800018a8 <__swsetup_r+0x2a>
800018ec:	44c0                	lw	s0,12(s1)
800018ee:	bf6d                	j	800018a8 <__swsetup_r+0x2a>
800018f0:	8b11                	andi	a4,a4,4
800018f2:	c70d                	beqz	a4,8000191c <__swsetup_r+0x9e>
800018f4:	584c                	lw	a1,52(s0)
800018f6:	c989                	beqz	a1,80001908 <__swsetup_r+0x8a>
800018f8:	04440793          	addi	a5,s0,68
800018fc:	00f58463          	beq	a1,a5,80001904 <__swsetup_r+0x86>
80001900:	854a                	mv	a0,s2
80001902:	2b75                	jal	80001ebe <_free_r>
80001904:	02042a23          	sw	zero,52(s0)
80001908:	00c45783          	lhu	a5,12(s0)
8000190c:	00042223          	sw	zero,4(s0)
80001910:	fdb7f793          	andi	a5,a5,-37
80001914:	00f41623          	sh	a5,12(s0)
80001918:	481c                	lw	a5,16(s0)
8000191a:	c01c                	sw	a5,0(s0)
8000191c:	00c45783          	lhu	a5,12(s0)
80001920:	0087e793          	ori	a5,a5,8
80001924:	00f41623          	sh	a5,12(s0)
80001928:	481c                	lw	a5,16(s0)
8000192a:	ef81                	bnez	a5,80001942 <__swsetup_r+0xc4>
8000192c:	00c45783          	lhu	a5,12(s0)
80001930:	20000713          	li	a4,512
80001934:	2807f793          	andi	a5,a5,640
80001938:	00e78563          	beq	a5,a4,80001942 <__swsetup_r+0xc4>
8000193c:	85a2                	mv	a1,s0
8000193e:	854a                	mv	a0,s2
80001940:	21c5                	jal	80001e20 <__smakebuf_r>
80001942:	00c41783          	lh	a5,12(s0)
80001946:	01079713          	slli	a4,a5,0x10
8000194a:	0017f693          	andi	a3,a5,1
8000194e:	8341                	srli	a4,a4,0x10
80001950:	c29d                	beqz	a3,80001976 <__swsetup_r+0xf8>
80001952:	4854                	lw	a3,20(s0)
80001954:	00042423          	sw	zero,8(s0)
80001958:	40d006b3          	neg	a3,a3
8000195c:	cc14                	sw	a3,24(s0)
8000195e:	4814                	lw	a3,16(s0)
80001960:	4501                	li	a0,0
80001962:	e681                	bnez	a3,8000196a <__swsetup_r+0xec>
80001964:	08077713          	andi	a4,a4,128
80001968:	ff31                	bnez	a4,800018c4 <__swsetup_r+0x46>
8000196a:	40b2                	lw	ra,12(sp)
8000196c:	4422                	lw	s0,8(sp)
8000196e:	4492                	lw	s1,4(sp)
80001970:	4902                	lw	s2,0(sp)
80001972:	0141                	addi	sp,sp,16
80001974:	8082                	ret
80001976:	00277693          	andi	a3,a4,2
8000197a:	4601                	li	a2,0
8000197c:	e291                	bnez	a3,80001980 <__swsetup_r+0x102>
8000197e:	4850                	lw	a2,20(s0)
80001980:	c410                	sw	a2,8(s0)
80001982:	bff1                	j	8000195e <__swsetup_r+0xe0>

80001984 <__register_exitproc>:
__register_exitproc():
80001984:	88aa                	mv	a7,a0
80001986:	83018513          	addi	a0,gp,-2000 # 90000090 <_global_atexit>
8000198a:	411c                	lw	a5,0(a0)
8000198c:	ef81                	bnez	a5,800019a4 <__register_exitproc+0x20>
8000198e:	8d418713          	addi	a4,gp,-1836 # 90000134 <_global_atexit0>
80001992:	c118                	sw	a4,0(a0)
80001994:	00000513          	li	a0,0
80001998:	87ba                	mv	a5,a4
8000199a:	c509                	beqz	a0,800019a4 <__register_exitproc+0x20>
8000199c:	411c                	lw	a5,0(a0)
8000199e:	08f72423          	sw	a5,136(a4)
800019a2:	87ba                	mv	a5,a4
800019a4:	43d8                	lw	a4,4(a5)
800019a6:	487d                	li	a6,31
800019a8:	557d                	li	a0,-1
800019aa:	04e84663          	blt	a6,a4,800019f6 <__register_exitproc+0x72>
800019ae:	02088d63          	beqz	a7,800019e8 <__register_exitproc+0x64>
800019b2:	0887a803          	lw	a6,136(a5)
800019b6:	04080063          	beqz	a6,800019f6 <__register_exitproc+0x72>
800019ba:	00271513          	slli	a0,a4,0x2
800019be:	9542                	add	a0,a0,a6
800019c0:	c110                	sw	a2,0(a0)
800019c2:	10082303          	lw	t1,256(a6)
800019c6:	4605                	li	a2,1
800019c8:	00e61633          	sll	a2,a2,a4
800019cc:	00c36333          	or	t1,t1,a2
800019d0:	10682023          	sw	t1,256(a6)
800019d4:	08d52023          	sw	a3,128(a0)
800019d8:	4689                	li	a3,2
800019da:	00d89763          	bne	a7,a3,800019e8 <__register_exitproc+0x64>
800019de:	10482683          	lw	a3,260(a6)
800019e2:	8e55                	or	a2,a2,a3
800019e4:	10c82223          	sw	a2,260(a6)
800019e8:	00170693          	addi	a3,a4,1
800019ec:	070a                	slli	a4,a4,0x2
800019ee:	c3d4                	sw	a3,4(a5)
800019f0:	97ba                	add	a5,a5,a4
800019f2:	c78c                	sw	a1,8(a5)
800019f4:	4501                	li	a0,0
800019f6:	8082                	ret

800019f8 <__sflush_r>:
__sflush_r():
800019f8:	00c5d783          	lhu	a5,12(a1) # 100000c <__stack_size+0xfff80c>
800019fc:	1101                	addi	sp,sp,-32
800019fe:	cc22                	sw	s0,24(sp)
80001a00:	ca26                	sw	s1,20(sp)
80001a02:	ce06                	sw	ra,28(sp)
80001a04:	c84a                	sw	s2,16(sp)
80001a06:	c64e                	sw	s3,12(sp)
80001a08:	0087f713          	andi	a4,a5,8
80001a0c:	84aa                	mv	s1,a0
80001a0e:	842e                	mv	s0,a1
80001a10:	e375                	bnez	a4,80001af4 <__sflush_r+0xfc>
80001a12:	41d8                	lw	a4,4(a1)
80001a14:	00e04763          	bgtz	a4,80001a22 <__sflush_r+0x2a>
80001a18:	41b8                	lw	a4,64(a1)
80001a1a:	00e04463          	bgtz	a4,80001a22 <__sflush_r+0x2a>
80001a1e:	4501                	li	a0,0
80001a20:	a875                	j	80001adc <__sflush_r+0xe4>
80001a22:	5458                	lw	a4,44(s0)
80001a24:	df6d                	beqz	a4,80001a1e <__sflush_r+0x26>
80001a26:	6685                	lui	a3,0x1
80001a28:	0004a903          	lw	s2,0(s1)
80001a2c:	8ff5                	and	a5,a5,a3
80001a2e:	0004a023          	sw	zero,0(s1)
80001a32:	cfa5                	beqz	a5,80001aaa <__sflush_r+0xb2>
80001a34:	4868                	lw	a0,84(s0)
80001a36:	00c45783          	lhu	a5,12(s0)
80001a3a:	8b91                	andi	a5,a5,4
80001a3c:	c799                	beqz	a5,80001a4a <__sflush_r+0x52>
80001a3e:	405c                	lw	a5,4(s0)
80001a40:	8d1d                	sub	a0,a0,a5
80001a42:	585c                	lw	a5,52(s0)
80001a44:	c399                	beqz	a5,80001a4a <__sflush_r+0x52>
80001a46:	403c                	lw	a5,64(s0)
80001a48:	8d1d                	sub	a0,a0,a5
80001a4a:	545c                	lw	a5,44(s0)
80001a4c:	500c                	lw	a1,32(s0)
80001a4e:	862a                	mv	a2,a0
80001a50:	4681                	li	a3,0
80001a52:	8526                	mv	a0,s1
80001a54:	9782                	jalr	a5
80001a56:	57fd                	li	a5,-1
80001a58:	00c45703          	lhu	a4,12(s0)
80001a5c:	00f51d63          	bne	a0,a5,80001a76 <__sflush_r+0x7e>
80001a60:	4094                	lw	a3,0(s1)
80001a62:	47f5                	li	a5,29
80001a64:	08d7e363          	bltu	a5,a3,80001aea <__sflush_r+0xf2>
80001a68:	204007b7          	lui	a5,0x20400
80001a6c:	0785                	addi	a5,a5,1
80001a6e:	00d7d7b3          	srl	a5,a5,a3
80001a72:	8b85                	andi	a5,a5,1
80001a74:	cbbd                	beqz	a5,80001aea <__sflush_r+0xf2>
80001a76:	481c                	lw	a5,16(s0)
80001a78:	00042223          	sw	zero,4(s0)
80001a7c:	c01c                	sw	a5,0(s0)
80001a7e:	6785                	lui	a5,0x1
80001a80:	8f7d                	and	a4,a4,a5
80001a82:	c719                	beqz	a4,80001a90 <__sflush_r+0x98>
80001a84:	57fd                	li	a5,-1
80001a86:	00f51463          	bne	a0,a5,80001a8e <__sflush_r+0x96>
80001a8a:	409c                	lw	a5,0(s1)
80001a8c:	e391                	bnez	a5,80001a90 <__sflush_r+0x98>
80001a8e:	c868                	sw	a0,84(s0)
80001a90:	584c                	lw	a1,52(s0)
80001a92:	0124a023          	sw	s2,0(s1)
80001a96:	d5c1                	beqz	a1,80001a1e <__sflush_r+0x26>
80001a98:	04440793          	addi	a5,s0,68
80001a9c:	00f58463          	beq	a1,a5,80001aa4 <__sflush_r+0xac>
80001aa0:	8526                	mv	a0,s1
80001aa2:	2931                	jal	80001ebe <_free_r>
80001aa4:	02042a23          	sw	zero,52(s0)
80001aa8:	bf9d                	j	80001a1e <__sflush_r+0x26>
80001aaa:	500c                	lw	a1,32(s0)
80001aac:	4685                	li	a3,1
80001aae:	4601                	li	a2,0
80001ab0:	8526                	mv	a0,s1
80001ab2:	9702                	jalr	a4
80001ab4:	57fd                	li	a5,-1
80001ab6:	f8f510e3          	bne	a0,a5,80001a36 <__sflush_r+0x3e>
80001aba:	409c                	lw	a5,0(s1)
80001abc:	dfad                	beqz	a5,80001a36 <__sflush_r+0x3e>
80001abe:	4775                	li	a4,29
80001ac0:	00e78563          	beq	a5,a4,80001aca <__sflush_r+0xd2>
80001ac4:	4759                	li	a4,22
80001ac6:	00e79563          	bne	a5,a4,80001ad0 <__sflush_r+0xd8>
80001aca:	0124a023          	sw	s2,0(s1)
80001ace:	bf81                	j	80001a1e <__sflush_r+0x26>
80001ad0:	00c45783          	lhu	a5,12(s0)
80001ad4:	0407e793          	ori	a5,a5,64
80001ad8:	00f41623          	sh	a5,12(s0)
80001adc:	40f2                	lw	ra,28(sp)
80001ade:	4462                	lw	s0,24(sp)
80001ae0:	44d2                	lw	s1,20(sp)
80001ae2:	4942                	lw	s2,16(sp)
80001ae4:	49b2                	lw	s3,12(sp)
80001ae6:	6105                	addi	sp,sp,32
80001ae8:	8082                	ret
80001aea:	04076713          	ori	a4,a4,64
80001aee:	00e41623          	sh	a4,12(s0)
80001af2:	b7ed                	j	80001adc <__sflush_r+0xe4>
80001af4:	0105a983          	lw	s3,16(a1)
80001af8:	f20983e3          	beqz	s3,80001a1e <__sflush_r+0x26>
80001afc:	0005a903          	lw	s2,0(a1)
80001b00:	8b8d                	andi	a5,a5,3
80001b02:	0135a023          	sw	s3,0(a1)
80001b06:	41390933          	sub	s2,s2,s3
80001b0a:	4701                	li	a4,0
80001b0c:	e391                	bnez	a5,80001b10 <__sflush_r+0x118>
80001b0e:	49d8                	lw	a4,20(a1)
80001b10:	c418                	sw	a4,8(s0)
80001b12:	f12056e3          	blez	s2,80001a1e <__sflush_r+0x26>
80001b16:	541c                	lw	a5,40(s0)
80001b18:	500c                	lw	a1,32(s0)
80001b1a:	86ca                	mv	a3,s2
80001b1c:	864e                	mv	a2,s3
80001b1e:	8526                	mv	a0,s1
80001b20:	9782                	jalr	a5
80001b22:	00a04a63          	bgtz	a0,80001b36 <__sflush_r+0x13e>
80001b26:	00c45783          	lhu	a5,12(s0)
80001b2a:	557d                	li	a0,-1
80001b2c:	0407e793          	ori	a5,a5,64
80001b30:	00f41623          	sh	a5,12(s0)
80001b34:	b765                	j	80001adc <__sflush_r+0xe4>
80001b36:	99aa                	add	s3,s3,a0
80001b38:	40a90933          	sub	s2,s2,a0
80001b3c:	bfd9                	j	80001b12 <__sflush_r+0x11a>

80001b3e <_fflush_r>:
_fflush_r():
80001b3e:	499c                	lw	a5,16(a1)
80001b40:	cfb9                	beqz	a5,80001b9e <_fflush_r+0x60>
80001b42:	1101                	addi	sp,sp,-32
80001b44:	cc22                	sw	s0,24(sp)
80001b46:	ce06                	sw	ra,28(sp)
80001b48:	842a                	mv	s0,a0
80001b4a:	c511                	beqz	a0,80001b56 <_fflush_r+0x18>
80001b4c:	4d1c                	lw	a5,24(a0)
80001b4e:	e781                	bnez	a5,80001b56 <_fflush_r+0x18>
80001b50:	c62e                	sw	a1,12(sp)
80001b52:	2221                	jal	80001c5a <__sinit>
80001b54:	45b2                	lw	a1,12(sp)
80001b56:	00002797          	auipc	a5,0x2
80001b5a:	7ce78793          	addi	a5,a5,1998 # 80004324 <__sf_fake_stdin>
80001b5e:	00f59b63          	bne	a1,a5,80001b74 <_fflush_r+0x36>
80001b62:	404c                	lw	a1,4(s0)
80001b64:	00c59783          	lh	a5,12(a1)
80001b68:	c795                	beqz	a5,80001b94 <_fflush_r+0x56>
80001b6a:	8522                	mv	a0,s0
80001b6c:	4462                	lw	s0,24(sp)
80001b6e:	40f2                	lw	ra,28(sp)
80001b70:	6105                	addi	sp,sp,32
80001b72:	b559                	j	800019f8 <__sflush_r>
80001b74:	00002797          	auipc	a5,0x2
80001b78:	7d078793          	addi	a5,a5,2000 # 80004344 <__sf_fake_stdout>
80001b7c:	00f59463          	bne	a1,a5,80001b84 <_fflush_r+0x46>
80001b80:	440c                	lw	a1,8(s0)
80001b82:	b7cd                	j	80001b64 <_fflush_r+0x26>
80001b84:	00002797          	auipc	a5,0x2
80001b88:	78078793          	addi	a5,a5,1920 # 80004304 <__sf_fake_stderr>
80001b8c:	fcf59ce3          	bne	a1,a5,80001b64 <_fflush_r+0x26>
80001b90:	444c                	lw	a1,12(s0)
80001b92:	bfc9                	j	80001b64 <_fflush_r+0x26>
80001b94:	40f2                	lw	ra,28(sp)
80001b96:	4462                	lw	s0,24(sp)
80001b98:	4501                	li	a0,0
80001b9a:	6105                	addi	sp,sp,32
80001b9c:	8082                	ret
80001b9e:	4501                	li	a0,0
80001ba0:	8082                	ret

80001ba2 <std>:
std():
80001ba2:	1141                	addi	sp,sp,-16
80001ba4:	c422                	sw	s0,8(sp)
80001ba6:	c606                	sw	ra,12(sp)
80001ba8:	842a                	mv	s0,a0
80001baa:	00b51623          	sh	a1,12(a0)
80001bae:	00c51723          	sh	a2,14(a0)
80001bb2:	00052023          	sw	zero,0(a0)
80001bb6:	00052223          	sw	zero,4(a0)
80001bba:	00052423          	sw	zero,8(a0)
80001bbe:	06052223          	sw	zero,100(a0)
80001bc2:	00052823          	sw	zero,16(a0)
80001bc6:	00052a23          	sw	zero,20(a0)
80001bca:	00052c23          	sw	zero,24(a0)
80001bce:	4621                	li	a2,8
80001bd0:	4581                	li	a1,0
80001bd2:	05c50513          	addi	a0,a0,92
80001bd6:	3405                	jal	800015f6 <memset>
80001bd8:	00001797          	auipc	a5,0x1
80001bdc:	b0278793          	addi	a5,a5,-1278 # 800026da <__sread>
80001be0:	d05c                	sw	a5,36(s0)
80001be2:	00001797          	auipc	a5,0x1
80001be6:	b2878793          	addi	a5,a5,-1240 # 8000270a <__swrite>
80001bea:	d41c                	sw	a5,40(s0)
80001bec:	00001797          	auipc	a5,0x1
80001bf0:	b6c78793          	addi	a5,a5,-1172 # 80002758 <__sseek>
80001bf4:	d45c                	sw	a5,44(s0)
80001bf6:	00001797          	auipc	a5,0x1
80001bfa:	b9878793          	addi	a5,a5,-1128 # 8000278e <__sclose>
80001bfe:	40b2                	lw	ra,12(sp)
80001c00:	d000                	sw	s0,32(s0)
80001c02:	d81c                	sw	a5,48(s0)
80001c04:	4422                	lw	s0,8(sp)
80001c06:	0141                	addi	sp,sp,16
80001c08:	8082                	ret

80001c0a <_cleanup_r>:
_cleanup_r():
80001c0a:	00000597          	auipc	a1,0x0
80001c0e:	f3458593          	addi	a1,a1,-204 # 80001b3e <_fflush_r>
80001c12:	a2a1                	j	80001d5a <_fwalk_reent>

80001c14 <__sfmoreglue>:
__sfmoreglue():
80001c14:	1141                	addi	sp,sp,-16
80001c16:	c226                	sw	s1,4(sp)
80001c18:	06800613          	li	a2,104
80001c1c:	fff58493          	addi	s1,a1,-1
80001c20:	02c484b3          	mul	s1,s1,a2
80001c24:	c04a                	sw	s2,0(sp)
80001c26:	892e                	mv	s2,a1
80001c28:	c422                	sw	s0,8(sp)
80001c2a:	c606                	sw	ra,12(sp)
80001c2c:	07448593          	addi	a1,s1,116
80001c30:	2e05                	jal	80001f60 <_malloc_r>
80001c32:	842a                	mv	s0,a0
80001c34:	cd01                	beqz	a0,80001c4c <__sfmoreglue+0x38>
80001c36:	00052023          	sw	zero,0(a0)
80001c3a:	01252223          	sw	s2,4(a0)
80001c3e:	0531                	addi	a0,a0,12
80001c40:	c408                	sw	a0,8(s0)
80001c42:	06848613          	addi	a2,s1,104
80001c46:	4581                	li	a1,0
80001c48:	9afff0ef          	jal	ra,800015f6 <memset>
80001c4c:	40b2                	lw	ra,12(sp)
80001c4e:	8522                	mv	a0,s0
80001c50:	4422                	lw	s0,8(sp)
80001c52:	4492                	lw	s1,4(sp)
80001c54:	4902                	lw	s2,0(sp)
80001c56:	0141                	addi	sp,sp,16
80001c58:	8082                	ret

80001c5a <__sinit>:
__sinit():
80001c5a:	4d1c                	lw	a5,24(a0)
80001c5c:	e3ad                	bnez	a5,80001cbe <__sinit+0x64>
80001c5e:	1141                	addi	sp,sp,-16
80001c60:	c422                	sw	s0,8(sp)
80001c62:	c606                	sw	ra,12(sp)
80001c64:	00000797          	auipc	a5,0x0
80001c68:	fa678793          	addi	a5,a5,-90 # 80001c0a <_cleanup_r>
80001c6c:	d51c                	sw	a5,40(a0)
80001c6e:	04052423          	sw	zero,72(a0)
80001c72:	04052623          	sw	zero,76(a0)
80001c76:	04052823          	sw	zero,80(a0)
80001c7a:	8201a783          	lw	a5,-2016(gp) # 90000080 <_global_impure_ptr>
80001c7e:	842a                	mv	s0,a0
80001c80:	00f51463          	bne	a0,a5,80001c88 <__sinit+0x2e>
80001c84:	4785                	li	a5,1
80001c86:	cd1c                	sw	a5,24(a0)
80001c88:	8522                	mv	a0,s0
80001c8a:	281d                	jal	80001cc0 <__sfp>
80001c8c:	c048                	sw	a0,4(s0)
80001c8e:	8522                	mv	a0,s0
80001c90:	2805                	jal	80001cc0 <__sfp>
80001c92:	c408                	sw	a0,8(s0)
80001c94:	8522                	mv	a0,s0
80001c96:	202d                	jal	80001cc0 <__sfp>
80001c98:	c448                	sw	a0,12(s0)
80001c9a:	4048                	lw	a0,4(s0)
80001c9c:	4601                	li	a2,0
80001c9e:	4591                	li	a1,4
80001ca0:	3709                	jal	80001ba2 <std>
80001ca2:	4408                	lw	a0,8(s0)
80001ca4:	4605                	li	a2,1
80001ca6:	45a5                	li	a1,9
80001ca8:	3ded                	jal	80001ba2 <std>
80001caa:	4448                	lw	a0,12(s0)
80001cac:	4609                	li	a2,2
80001cae:	45c9                	li	a1,18
80001cb0:	3dcd                	jal	80001ba2 <std>
80001cb2:	4785                	li	a5,1
80001cb4:	40b2                	lw	ra,12(sp)
80001cb6:	cc1c                	sw	a5,24(s0)
80001cb8:	4422                	lw	s0,8(sp)
80001cba:	0141                	addi	sp,sp,16
80001cbc:	8082                	ret
80001cbe:	8082                	ret

80001cc0 <__sfp>:
__sfp():
80001cc0:	1141                	addi	sp,sp,-16
80001cc2:	c226                	sw	s1,4(sp)
80001cc4:	8201a483          	lw	s1,-2016(gp) # 90000080 <_global_impure_ptr>
80001cc8:	4c9c                	lw	a5,24(s1)
80001cca:	c04a                	sw	s2,0(sp)
80001ccc:	c606                	sw	ra,12(sp)
80001cce:	c422                	sw	s0,8(sp)
80001cd0:	892a                	mv	s2,a0
80001cd2:	e399                	bnez	a5,80001cd8 <__sfp+0x18>
80001cd4:	8526                	mv	a0,s1
80001cd6:	3751                	jal	80001c5a <__sinit>
80001cd8:	04848493          	addi	s1,s1,72
80001cdc:	4480                	lw	s0,8(s1)
80001cde:	40dc                	lw	a5,4(s1)
80001ce0:	17fd                	addi	a5,a5,-1
80001ce2:	0007d663          	bgez	a5,80001cee <__sfp+0x2e>
80001ce6:	409c                	lw	a5,0(s1)
80001ce8:	cfb9                	beqz	a5,80001d46 <__sfp+0x86>
80001cea:	4084                	lw	s1,0(s1)
80001cec:	bfc5                	j	80001cdc <__sfp+0x1c>
80001cee:	00c41703          	lh	a4,12(s0)
80001cf2:	e739                	bnez	a4,80001d40 <__sfp+0x80>
80001cf4:	77c1                	lui	a5,0xffff0
80001cf6:	0785                	addi	a5,a5,1
80001cf8:	06042223          	sw	zero,100(s0)
80001cfc:	00042023          	sw	zero,0(s0)
80001d00:	00042223          	sw	zero,4(s0)
80001d04:	00042423          	sw	zero,8(s0)
80001d08:	c45c                	sw	a5,12(s0)
80001d0a:	00042823          	sw	zero,16(s0)
80001d0e:	00042a23          	sw	zero,20(s0)
80001d12:	00042c23          	sw	zero,24(s0)
80001d16:	4621                	li	a2,8
80001d18:	4581                	li	a1,0
80001d1a:	05c40513          	addi	a0,s0,92
80001d1e:	8d9ff0ef          	jal	ra,800015f6 <memset>
80001d22:	02042a23          	sw	zero,52(s0)
80001d26:	02042c23          	sw	zero,56(s0)
80001d2a:	04042423          	sw	zero,72(s0)
80001d2e:	04042623          	sw	zero,76(s0)
80001d32:	40b2                	lw	ra,12(sp)
80001d34:	8522                	mv	a0,s0
80001d36:	4422                	lw	s0,8(sp)
80001d38:	4492                	lw	s1,4(sp)
80001d3a:	4902                	lw	s2,0(sp)
80001d3c:	0141                	addi	sp,sp,16
80001d3e:	8082                	ret
80001d40:	06840413          	addi	s0,s0,104
80001d44:	bf71                	j	80001ce0 <__sfp+0x20>
80001d46:	4591                	li	a1,4
80001d48:	854a                	mv	a0,s2
80001d4a:	35e9                	jal	80001c14 <__sfmoreglue>
80001d4c:	c088                	sw	a0,0(s1)
80001d4e:	842a                	mv	s0,a0
80001d50:	fd49                	bnez	a0,80001cea <__sfp+0x2a>
80001d52:	47b1                	li	a5,12
80001d54:	00f92023          	sw	a5,0(s2)
80001d58:	bfe9                	j	80001d32 <__sfp+0x72>

80001d5a <_fwalk_reent>:
_fwalk_reent():
80001d5a:	7179                	addi	sp,sp,-48
80001d5c:	d422                	sw	s0,40(sp)
80001d5e:	d04a                	sw	s2,32(sp)
80001d60:	ce4e                	sw	s3,28(sp)
80001d62:	cc52                	sw	s4,24(sp)
80001d64:	c85a                	sw	s6,16(sp)
80001d66:	c65e                	sw	s7,12(sp)
80001d68:	d606                	sw	ra,44(sp)
80001d6a:	d226                	sw	s1,36(sp)
80001d6c:	ca56                	sw	s5,20(sp)
80001d6e:	892a                	mv	s2,a0
80001d70:	8a2e                	mv	s4,a1
80001d72:	04850413          	addi	s0,a0,72
80001d76:	4981                	li	s3,0
80001d78:	4b05                	li	s6,1
80001d7a:	5bfd                	li	s7,-1
80001d7c:	4404                	lw	s1,8(s0)
80001d7e:	00442a83          	lw	s5,4(s0)
80001d82:	1afd                	addi	s5,s5,-1
80001d84:	020ad063          	bgez	s5,80001da4 <_fwalk_reent+0x4a>
80001d88:	4000                	lw	s0,0(s0)
80001d8a:	f86d                	bnez	s0,80001d7c <_fwalk_reent+0x22>
80001d8c:	50b2                	lw	ra,44(sp)
80001d8e:	5422                	lw	s0,40(sp)
80001d90:	5492                	lw	s1,36(sp)
80001d92:	5902                	lw	s2,32(sp)
80001d94:	4a62                	lw	s4,24(sp)
80001d96:	4ad2                	lw	s5,20(sp)
80001d98:	4b42                	lw	s6,16(sp)
80001d9a:	4bb2                	lw	s7,12(sp)
80001d9c:	854e                	mv	a0,s3
80001d9e:	49f2                	lw	s3,28(sp)
80001da0:	6145                	addi	sp,sp,48
80001da2:	8082                	ret
80001da4:	00c4d783          	lhu	a5,12(s1)
80001da8:	00fb7b63          	bgeu	s6,a5,80001dbe <_fwalk_reent+0x64>
80001dac:	00e49783          	lh	a5,14(s1)
80001db0:	01778763          	beq	a5,s7,80001dbe <_fwalk_reent+0x64>
80001db4:	85a6                	mv	a1,s1
80001db6:	854a                	mv	a0,s2
80001db8:	9a02                	jalr	s4
80001dba:	00a9e9b3          	or	s3,s3,a0
80001dbe:	06848493          	addi	s1,s1,104
80001dc2:	b7c1                	j	80001d82 <_fwalk_reent+0x28>

80001dc4 <__swhatbuf_r>:
__swhatbuf_r():
80001dc4:	7159                	addi	sp,sp,-112
80001dc6:	d0ca                	sw	s2,96(sp)
80001dc8:	892e                	mv	s2,a1
80001dca:	00e59583          	lh	a1,14(a1)
80001dce:	d4a2                	sw	s0,104(sp)
80001dd0:	d2a6                	sw	s1,100(sp)
80001dd2:	d686                	sw	ra,108(sp)
80001dd4:	8432                	mv	s0,a2
80001dd6:	84b6                	mv	s1,a3
80001dd8:	0005dc63          	bgez	a1,80001df0 <__swhatbuf_r+0x2c>
80001ddc:	00c91783          	lh	a5,12(s2)
80001de0:	0004a023          	sw	zero,0(s1)
80001de4:	0807f793          	andi	a5,a5,128
80001de8:	e395                	bnez	a5,80001e0c <__swhatbuf_r+0x48>
80001dea:	40000793          	li	a5,1024
80001dee:	a00d                	j	80001e10 <__swhatbuf_r+0x4c>
80001df0:	0030                	addi	a2,sp,8
80001df2:	1f7000ef          	jal	ra,800027e8 <_fstat_r>
80001df6:	fe0543e3          	bltz	a0,80001ddc <__swhatbuf_r+0x18>
80001dfa:	4732                	lw	a4,12(sp)
80001dfc:	67bd                	lui	a5,0xf
80001dfe:	8ff9                	and	a5,a5,a4
80001e00:	7779                	lui	a4,0xffffe
80001e02:	97ba                	add	a5,a5,a4
80001e04:	0017b793          	seqz	a5,a5
80001e08:	c09c                	sw	a5,0(s1)
80001e0a:	b7c5                	j	80001dea <__swhatbuf_r+0x26>
80001e0c:	04000793          	li	a5,64
80001e10:	50b6                	lw	ra,108(sp)
80001e12:	c01c                	sw	a5,0(s0)
80001e14:	5426                	lw	s0,104(sp)
80001e16:	5496                	lw	s1,100(sp)
80001e18:	5906                	lw	s2,96(sp)
80001e1a:	4501                	li	a0,0
80001e1c:	6165                	addi	sp,sp,112
80001e1e:	8082                	ret

80001e20 <__smakebuf_r>:
__smakebuf_r():
80001e20:	00c5d783          	lhu	a5,12(a1)
80001e24:	1101                	addi	sp,sp,-32
80001e26:	cc22                	sw	s0,24(sp)
80001e28:	ce06                	sw	ra,28(sp)
80001e2a:	ca26                	sw	s1,20(sp)
80001e2c:	c84a                	sw	s2,16(sp)
80001e2e:	8b89                	andi	a5,a5,2
80001e30:	842e                	mv	s0,a1
80001e32:	cf89                	beqz	a5,80001e4c <__smakebuf_r+0x2c>
80001e34:	04740793          	addi	a5,s0,71
80001e38:	c01c                	sw	a5,0(s0)
80001e3a:	c81c                	sw	a5,16(s0)
80001e3c:	4785                	li	a5,1
80001e3e:	c85c                	sw	a5,20(s0)
80001e40:	40f2                	lw	ra,28(sp)
80001e42:	4462                	lw	s0,24(sp)
80001e44:	44d2                	lw	s1,20(sp)
80001e46:	4942                	lw	s2,16(sp)
80001e48:	6105                	addi	sp,sp,32
80001e4a:	8082                	ret
80001e4c:	0074                	addi	a3,sp,12
80001e4e:	0030                	addi	a2,sp,8
80001e50:	892a                	mv	s2,a0
80001e52:	3f8d                	jal	80001dc4 <__swhatbuf_r>
80001e54:	45a2                	lw	a1,8(sp)
80001e56:	84aa                	mv	s1,a0
80001e58:	854a                	mv	a0,s2
80001e5a:	2219                	jal	80001f60 <_malloc_r>
80001e5c:	ed01                	bnez	a0,80001e74 <__smakebuf_r+0x54>
80001e5e:	00c41783          	lh	a5,12(s0)
80001e62:	2007f713          	andi	a4,a5,512
80001e66:	ff69                	bnez	a4,80001e40 <__smakebuf_r+0x20>
80001e68:	9bf1                	andi	a5,a5,-4
80001e6a:	0027e793          	ori	a5,a5,2
80001e6e:	00f41623          	sh	a5,12(s0)
80001e72:	b7c9                	j	80001e34 <__smakebuf_r+0x14>
80001e74:	00000797          	auipc	a5,0x0
80001e78:	d9678793          	addi	a5,a5,-618 # 80001c0a <_cleanup_r>
80001e7c:	02f92423          	sw	a5,40(s2)
80001e80:	00c45783          	lhu	a5,12(s0)
80001e84:	c008                	sw	a0,0(s0)
80001e86:	c808                	sw	a0,16(s0)
80001e88:	0807e793          	ori	a5,a5,128
80001e8c:	00f41623          	sh	a5,12(s0)
80001e90:	47a2                	lw	a5,8(sp)
80001e92:	c85c                	sw	a5,20(s0)
80001e94:	47b2                	lw	a5,12(sp)
80001e96:	cf91                	beqz	a5,80001eb2 <__smakebuf_r+0x92>
80001e98:	00e41583          	lh	a1,14(s0)
80001e9c:	854a                	mv	a0,s2
80001e9e:	175000ef          	jal	ra,80002812 <_isatty_r>
80001ea2:	c901                	beqz	a0,80001eb2 <__smakebuf_r+0x92>
80001ea4:	00c45783          	lhu	a5,12(s0)
80001ea8:	9bf1                	andi	a5,a5,-4
80001eaa:	0017e793          	ori	a5,a5,1
80001eae:	00f41623          	sh	a5,12(s0)
80001eb2:	00c45503          	lhu	a0,12(s0)
80001eb6:	8cc9                	or	s1,s1,a0
80001eb8:	00941623          	sh	s1,12(s0)
80001ebc:	b751                	j	80001e40 <__smakebuf_r+0x20>

80001ebe <_free_r>:
_free_r():
80001ebe:	c1c5                	beqz	a1,80001f5e <_free_r+0xa0>
80001ec0:	ffc5a783          	lw	a5,-4(a1)
80001ec4:	1101                	addi	sp,sp,-32
80001ec6:	cc22                	sw	s0,24(sp)
80001ec8:	ce06                	sw	ra,28(sp)
80001eca:	ffc58413          	addi	s0,a1,-4
80001ece:	0007d363          	bgez	a5,80001ed4 <_free_r+0x16>
80001ed2:	943e                	add	s0,s0,a5
80001ed4:	c62a                	sw	a0,12(sp)
80001ed6:	1ab000ef          	jal	ra,80002880 <__malloc_lock>
80001eda:	83418713          	addi	a4,gp,-1996 # 90000094 <__malloc_free_list>
80001ede:	431c                	lw	a5,0(a4)
80001ee0:	4532                	lw	a0,12(sp)
80001ee2:	eb89                	bnez	a5,80001ef4 <_free_r+0x36>
80001ee4:	00042223          	sw	zero,4(s0)
80001ee8:	c300                	sw	s0,0(a4)
80001eea:	4462                	lw	s0,24(sp)
80001eec:	40f2                	lw	ra,28(sp)
80001eee:	6105                	addi	sp,sp,32
80001ef0:	1930006f          	j	80002882 <__malloc_unlock>
80001ef4:	00f47d63          	bgeu	s0,a5,80001f0e <_free_r+0x50>
80001ef8:	4010                	lw	a2,0(s0)
80001efa:	00c406b3          	add	a3,s0,a2
80001efe:	00d79663          	bne	a5,a3,80001f0a <_free_r+0x4c>
80001f02:	4394                	lw	a3,0(a5)
80001f04:	43dc                	lw	a5,4(a5)
80001f06:	96b2                	add	a3,a3,a2
80001f08:	c014                	sw	a3,0(s0)
80001f0a:	c05c                	sw	a5,4(s0)
80001f0c:	bff1                	j	80001ee8 <_free_r+0x2a>
80001f0e:	873e                	mv	a4,a5
80001f10:	43dc                	lw	a5,4(a5)
80001f12:	c399                	beqz	a5,80001f18 <_free_r+0x5a>
80001f14:	fef47de3          	bgeu	s0,a5,80001f0e <_free_r+0x50>
80001f18:	4314                	lw	a3,0(a4)
80001f1a:	00d70633          	add	a2,a4,a3
80001f1e:	00861f63          	bne	a2,s0,80001f3c <_free_r+0x7e>
80001f22:	4010                	lw	a2,0(s0)
80001f24:	96b2                	add	a3,a3,a2
80001f26:	c314                	sw	a3,0(a4)
80001f28:	00d70633          	add	a2,a4,a3
80001f2c:	fac79fe3          	bne	a5,a2,80001eea <_free_r+0x2c>
80001f30:	4390                	lw	a2,0(a5)
80001f32:	43dc                	lw	a5,4(a5)
80001f34:	96b2                	add	a3,a3,a2
80001f36:	c314                	sw	a3,0(a4)
80001f38:	c35c                	sw	a5,4(a4)
80001f3a:	bf45                	j	80001eea <_free_r+0x2c>
80001f3c:	00c47563          	bgeu	s0,a2,80001f46 <_free_r+0x88>
80001f40:	47b1                	li	a5,12
80001f42:	c11c                	sw	a5,0(a0)
80001f44:	b75d                	j	80001eea <_free_r+0x2c>
80001f46:	4010                	lw	a2,0(s0)
80001f48:	00c406b3          	add	a3,s0,a2
80001f4c:	00d79663          	bne	a5,a3,80001f58 <_free_r+0x9a>
80001f50:	4394                	lw	a3,0(a5)
80001f52:	43dc                	lw	a5,4(a5)
80001f54:	96b2                	add	a3,a3,a2
80001f56:	c014                	sw	a3,0(s0)
80001f58:	c05c                	sw	a5,4(s0)
80001f5a:	c340                	sw	s0,4(a4)
80001f5c:	b779                	j	80001eea <_free_r+0x2c>
80001f5e:	8082                	ret

80001f60 <_malloc_r>:
_malloc_r():
80001f60:	1101                	addi	sp,sp,-32
80001f62:	ca26                	sw	s1,20(sp)
80001f64:	00358493          	addi	s1,a1,3
80001f68:	98f1                	andi	s1,s1,-4
80001f6a:	c84a                	sw	s2,16(sp)
80001f6c:	ce06                	sw	ra,28(sp)
80001f6e:	cc22                	sw	s0,24(sp)
80001f70:	c64e                	sw	s3,12(sp)
80001f72:	04a1                	addi	s1,s1,8
80001f74:	47b1                	li	a5,12
80001f76:	892a                	mv	s2,a0
80001f78:	04f4f263          	bgeu	s1,a5,80001fbc <_malloc_r+0x5c>
80001f7c:	44b1                	li	s1,12
80001f7e:	04b4e163          	bltu	s1,a1,80001fc0 <_malloc_r+0x60>
80001f82:	854a                	mv	a0,s2
80001f84:	0fd000ef          	jal	ra,80002880 <__malloc_lock>
80001f88:	83418693          	addi	a3,gp,-1996 # 90000094 <__malloc_free_list>
80001f8c:	4298                	lw	a4,0(a3)
80001f8e:	843a                	mv	s0,a4
80001f90:	e039                	bnez	s0,80001fd6 <_malloc_r+0x76>
80001f92:	83818413          	addi	s0,gp,-1992 # 90000098 <__malloc_sbrk_start>
80001f96:	401c                	lw	a5,0(s0)
80001f98:	e789                	bnez	a5,80001fa2 <_malloc_r+0x42>
80001f9a:	4581                	li	a1,0
80001f9c:	854a                	mv	a0,s2
80001f9e:	2f11                	jal	800026b2 <_sbrk_r>
80001fa0:	c008                	sw	a0,0(s0)
80001fa2:	85a6                	mv	a1,s1
80001fa4:	854a                	mv	a0,s2
80001fa6:	2731                	jal	800026b2 <_sbrk_r>
80001fa8:	59fd                	li	s3,-1
80001faa:	07351a63          	bne	a0,s3,8000201e <_malloc_r+0xbe>
80001fae:	47b1                	li	a5,12
80001fb0:	00f92023          	sw	a5,0(s2)
80001fb4:	854a                	mv	a0,s2
80001fb6:	0cd000ef          	jal	ra,80002882 <__malloc_unlock>
80001fba:	a031                	j	80001fc6 <_malloc_r+0x66>
80001fbc:	fc04d1e3          	bgez	s1,80001f7e <_malloc_r+0x1e>
80001fc0:	47b1                	li	a5,12
80001fc2:	00f92023          	sw	a5,0(s2)
80001fc6:	4501                	li	a0,0
80001fc8:	40f2                	lw	ra,28(sp)
80001fca:	4462                	lw	s0,24(sp)
80001fcc:	44d2                	lw	s1,20(sp)
80001fce:	4942                	lw	s2,16(sp)
80001fd0:	49b2                	lw	s3,12(sp)
80001fd2:	6105                	addi	sp,sp,32
80001fd4:	8082                	ret
80001fd6:	401c                	lw	a5,0(s0)
80001fd8:	8f85                	sub	a5,a5,s1
80001fda:	0207cf63          	bltz	a5,80002018 <_malloc_r+0xb8>
80001fde:	462d                	li	a2,11
80001fe0:	00f67663          	bgeu	a2,a5,80001fec <_malloc_r+0x8c>
80001fe4:	c01c                	sw	a5,0(s0)
80001fe6:	943e                	add	s0,s0,a5
80001fe8:	c004                	sw	s1,0(s0)
80001fea:	a029                	j	80001ff4 <_malloc_r+0x94>
80001fec:	405c                	lw	a5,4(s0)
80001fee:	02871363          	bne	a4,s0,80002014 <_malloc_r+0xb4>
80001ff2:	c29c                	sw	a5,0(a3)
80001ff4:	854a                	mv	a0,s2
80001ff6:	08d000ef          	jal	ra,80002882 <__malloc_unlock>
80001ffa:	00b40513          	addi	a0,s0,11
80001ffe:	00440793          	addi	a5,s0,4
80002002:	9961                	andi	a0,a0,-8
80002004:	40f50733          	sub	a4,a0,a5
80002008:	fcf500e3          	beq	a0,a5,80001fc8 <_malloc_r+0x68>
8000200c:	943a                	add	s0,s0,a4
8000200e:	8f89                	sub	a5,a5,a0
80002010:	c01c                	sw	a5,0(s0)
80002012:	bf5d                	j	80001fc8 <_malloc_r+0x68>
80002014:	c35c                	sw	a5,4(a4)
80002016:	bff9                	j	80001ff4 <_malloc_r+0x94>
80002018:	8722                	mv	a4,s0
8000201a:	4040                	lw	s0,4(s0)
8000201c:	bf95                	j	80001f90 <_malloc_r+0x30>
8000201e:	00350413          	addi	s0,a0,3
80002022:	9871                	andi	s0,s0,-4
80002024:	fc8502e3          	beq	a0,s0,80001fe8 <_malloc_r+0x88>
80002028:	40a405b3          	sub	a1,s0,a0
8000202c:	854a                	mv	a0,s2
8000202e:	2551                	jal	800026b2 <_sbrk_r>
80002030:	fb351ce3          	bne	a0,s3,80001fe8 <_malloc_r+0x88>
80002034:	bfad                	j	80001fae <_malloc_r+0x4e>

80002036 <__sfputc_r>:
__sfputc_r():
80002036:	461c                	lw	a5,8(a2)
80002038:	17fd                	addi	a5,a5,-1
8000203a:	c61c                	sw	a5,8(a2)
8000203c:	0007da63          	bgez	a5,80002050 <__sfputc_r+0x1a>
80002040:	4e18                	lw	a4,24(a2)
80002042:	00e7c563          	blt	a5,a4,8000204c <__sfputc_r+0x16>
80002046:	47a9                	li	a5,10
80002048:	00f59463          	bne	a1,a5,80002050 <__sfputc_r+0x1a>
8000204c:	f72ff06f          	j	800017be <__swbuf_r>
80002050:	421c                	lw	a5,0(a2)
80002052:	852e                	mv	a0,a1
80002054:	00178713          	addi	a4,a5,1
80002058:	c218                	sw	a4,0(a2)
8000205a:	00b78023          	sb	a1,0(a5)
8000205e:	8082                	ret

80002060 <__sfputs_r>:
__sfputs_r():
80002060:	1101                	addi	sp,sp,-32
80002062:	cc22                	sw	s0,24(sp)
80002064:	ca26                	sw	s1,20(sp)
80002066:	c84a                	sw	s2,16(sp)
80002068:	c64e                	sw	s3,12(sp)
8000206a:	c452                	sw	s4,8(sp)
8000206c:	ce06                	sw	ra,28(sp)
8000206e:	892a                	mv	s2,a0
80002070:	89ae                	mv	s3,a1
80002072:	8432                	mv	s0,a2
80002074:	00d604b3          	add	s1,a2,a3
80002078:	5a7d                	li	s4,-1
8000207a:	00941463          	bne	s0,s1,80002082 <__sfputs_r+0x22>
8000207e:	4501                	li	a0,0
80002080:	a809                	j	80002092 <__sfputs_r+0x32>
80002082:	00044583          	lbu	a1,0(s0)
80002086:	864e                	mv	a2,s3
80002088:	854a                	mv	a0,s2
8000208a:	3775                	jal	80002036 <__sfputc_r>
8000208c:	0405                	addi	s0,s0,1
8000208e:	ff4516e3          	bne	a0,s4,8000207a <__sfputs_r+0x1a>
80002092:	40f2                	lw	ra,28(sp)
80002094:	4462                	lw	s0,24(sp)
80002096:	44d2                	lw	s1,20(sp)
80002098:	4942                	lw	s2,16(sp)
8000209a:	49b2                	lw	s3,12(sp)
8000209c:	4a22                	lw	s4,8(sp)
8000209e:	6105                	addi	sp,sp,32
800020a0:	8082                	ret

800020a2 <_vfiprintf_r>:
_vfiprintf_r():
800020a2:	7135                	addi	sp,sp,-160
800020a4:	cd22                	sw	s0,152(sp)
800020a6:	cb26                	sw	s1,148(sp)
800020a8:	c94a                	sw	s2,144(sp)
800020aa:	c74e                	sw	s3,140(sp)
800020ac:	cf06                	sw	ra,156(sp)
800020ae:	c552                	sw	s4,136(sp)
800020b0:	c356                	sw	s5,132(sp)
800020b2:	c15a                	sw	s6,128(sp)
800020b4:	dede                	sw	s7,124(sp)
800020b6:	dce2                	sw	s8,120(sp)
800020b8:	dae6                	sw	s9,116(sp)
800020ba:	89aa                	mv	s3,a0
800020bc:	84ae                	mv	s1,a1
800020be:	8932                	mv	s2,a2
800020c0:	8436                	mv	s0,a3
800020c2:	c501                	beqz	a0,800020ca <_vfiprintf_r+0x28>
800020c4:	4d1c                	lw	a5,24(a0)
800020c6:	e391                	bnez	a5,800020ca <_vfiprintf_r+0x28>
800020c8:	3e49                	jal	80001c5a <__sinit>
800020ca:	00002797          	auipc	a5,0x2
800020ce:	25a78793          	addi	a5,a5,602 # 80004324 <__sf_fake_stdin>
800020d2:	0cf49b63          	bne	s1,a5,800021a8 <_vfiprintf_r+0x106>
800020d6:	0049a483          	lw	s1,4(s3)
800020da:	00c4d783          	lhu	a5,12(s1)
800020de:	8ba1                	andi	a5,a5,8
800020e0:	c7f5                	beqz	a5,800021cc <_vfiprintf_r+0x12a>
800020e2:	489c                	lw	a5,16(s1)
800020e4:	c7e5                	beqz	a5,800021cc <_vfiprintf_r+0x12a>
800020e6:	02000793          	li	a5,32
800020ea:	02f104a3          	sb	a5,41(sp)
800020ee:	03000793          	li	a5,48
800020f2:	d202                	sw	zero,36(sp)
800020f4:	02f10523          	sb	a5,42(sp)
800020f8:	c622                	sw	s0,12(sp)
800020fa:	02500b93          	li	s7,37
800020fe:	00002a97          	auipc	s5,0x2
80002102:	266a8a93          	addi	s5,s5,614 # 80004364 <__sf_fake_stdout+0x20>
80002106:	4c05                	li	s8,1
80002108:	4b29                	li	s6,10
8000210a:	844a                	mv	s0,s2
8000210c:	00044783          	lbu	a5,0(s0)
80002110:	c399                	beqz	a5,80002116 <_vfiprintf_r+0x74>
80002112:	0f779063          	bne	a5,s7,800021f2 <_vfiprintf_r+0x150>
80002116:	41240cb3          	sub	s9,s0,s2
8000211a:	01240d63          	beq	s0,s2,80002134 <_vfiprintf_r+0x92>
8000211e:	86e6                	mv	a3,s9
80002120:	864a                	mv	a2,s2
80002122:	85a6                	mv	a1,s1
80002124:	854e                	mv	a0,s3
80002126:	3f2d                	jal	80002060 <__sfputs_r>
80002128:	57fd                	li	a5,-1
8000212a:	1ef50463          	beq	a0,a5,80002312 <_vfiprintf_r+0x270>
8000212e:	5792                	lw	a5,36(sp)
80002130:	97e6                	add	a5,a5,s9
80002132:	d23e                	sw	a5,36(sp)
80002134:	00044783          	lbu	a5,0(s0)
80002138:	1c078d63          	beqz	a5,80002312 <_vfiprintf_r+0x270>
8000213c:	57fd                	li	a5,-1
8000213e:	00140913          	addi	s2,s0,1
80002142:	c802                	sw	zero,16(sp)
80002144:	ce02                	sw	zero,28(sp)
80002146:	ca3e                	sw	a5,20(sp)
80002148:	cc02                	sw	zero,24(sp)
8000214a:	040109a3          	sb	zero,83(sp)
8000214e:	d482                	sw	zero,104(sp)
80002150:	00094583          	lbu	a1,0(s2)
80002154:	4615                	li	a2,5
80002156:	8556                	mv	a0,s5
80002158:	2739                	jal	80002866 <memchr>
8000215a:	47c2                	lw	a5,16(sp)
8000215c:	00190413          	addi	s0,s2,1
80002160:	e959                	bnez	a0,800021f6 <_vfiprintf_r+0x154>
80002162:	0107f713          	andi	a4,a5,16
80002166:	c709                	beqz	a4,80002170 <_vfiprintf_r+0xce>
80002168:	02000713          	li	a4,32
8000216c:	04e109a3          	sb	a4,83(sp)
80002170:	0087f713          	andi	a4,a5,8
80002174:	c709                	beqz	a4,8000217e <_vfiprintf_r+0xdc>
80002176:	02b00713          	li	a4,43
8000217a:	04e109a3          	sb	a4,83(sp)
8000217e:	00094683          	lbu	a3,0(s2)
80002182:	02a00713          	li	a4,42
80002186:	08e68063          	beq	a3,a4,80002206 <_vfiprintf_r+0x164>
8000218a:	47f2                	lw	a5,28(sp)
8000218c:	844a                	mv	s0,s2
8000218e:	4681                	li	a3,0
80002190:	4625                	li	a2,9
80002192:	00044703          	lbu	a4,0(s0)
80002196:	00140593          	addi	a1,s0,1
8000219a:	fd070713          	addi	a4,a4,-48 # ffffdfd0 <_sp+0x6ffedfd0>
8000219e:	0ae67963          	bgeu	a2,a4,80002250 <_vfiprintf_r+0x1ae>
800021a2:	cab5                	beqz	a3,80002216 <_vfiprintf_r+0x174>
800021a4:	ce3e                	sw	a5,28(sp)
800021a6:	a885                	j	80002216 <_vfiprintf_r+0x174>
800021a8:	00002797          	auipc	a5,0x2
800021ac:	19c78793          	addi	a5,a5,412 # 80004344 <__sf_fake_stdout>
800021b0:	00f49563          	bne	s1,a5,800021ba <_vfiprintf_r+0x118>
800021b4:	0089a483          	lw	s1,8(s3)
800021b8:	b70d                	j	800020da <_vfiprintf_r+0x38>
800021ba:	00002797          	auipc	a5,0x2
800021be:	14a78793          	addi	a5,a5,330 # 80004304 <__sf_fake_stderr>
800021c2:	f0f49ce3          	bne	s1,a5,800020da <_vfiprintf_r+0x38>
800021c6:	00c9a483          	lw	s1,12(s3)
800021ca:	bf01                	j	800020da <_vfiprintf_r+0x38>
800021cc:	85a6                	mv	a1,s1
800021ce:	854e                	mv	a0,s3
800021d0:	eaeff0ef          	jal	ra,8000187e <__swsetup_r>
800021d4:	d909                	beqz	a0,800020e6 <_vfiprintf_r+0x44>
800021d6:	557d                	li	a0,-1
800021d8:	40fa                	lw	ra,156(sp)
800021da:	446a                	lw	s0,152(sp)
800021dc:	44da                	lw	s1,148(sp)
800021de:	494a                	lw	s2,144(sp)
800021e0:	49ba                	lw	s3,140(sp)
800021e2:	4a2a                	lw	s4,136(sp)
800021e4:	4a9a                	lw	s5,132(sp)
800021e6:	4b0a                	lw	s6,128(sp)
800021e8:	5bf6                	lw	s7,124(sp)
800021ea:	5c66                	lw	s8,120(sp)
800021ec:	5cd6                	lw	s9,116(sp)
800021ee:	610d                	addi	sp,sp,160
800021f0:	8082                	ret
800021f2:	0405                	addi	s0,s0,1
800021f4:	bf21                	j	8000210c <_vfiprintf_r+0x6a>
800021f6:	41550533          	sub	a0,a0,s5
800021fa:	00ac1533          	sll	a0,s8,a0
800021fe:	8fc9                	or	a5,a5,a0
80002200:	c83e                	sw	a5,16(sp)
80002202:	8922                	mv	s2,s0
80002204:	b7b1                	j	80002150 <_vfiprintf_r+0xae>
80002206:	4732                	lw	a4,12(sp)
80002208:	00470693          	addi	a3,a4,4
8000220c:	4318                	lw	a4,0(a4)
8000220e:	c636                	sw	a3,12(sp)
80002210:	02074963          	bltz	a4,80002242 <_vfiprintf_r+0x1a0>
80002214:	ce3a                	sw	a4,28(sp)
80002216:	00044703          	lbu	a4,0(s0)
8000221a:	02e00793          	li	a5,46
8000221e:	04f71f63          	bne	a4,a5,8000227c <_vfiprintf_r+0x1da>
80002222:	00144703          	lbu	a4,1(s0)
80002226:	02a00793          	li	a5,42
8000222a:	02f71b63          	bne	a4,a5,80002260 <_vfiprintf_r+0x1be>
8000222e:	47b2                	lw	a5,12(sp)
80002230:	0409                	addi	s0,s0,2
80002232:	00478713          	addi	a4,a5,4
80002236:	439c                	lw	a5,0(a5)
80002238:	c63a                	sw	a4,12(sp)
8000223a:	0207c163          	bltz	a5,8000225c <_vfiprintf_r+0x1ba>
8000223e:	ca3e                	sw	a5,20(sp)
80002240:	a835                	j	8000227c <_vfiprintf_r+0x1da>
80002242:	40e00733          	neg	a4,a4
80002246:	0027e793          	ori	a5,a5,2
8000224a:	ce3a                	sw	a4,28(sp)
8000224c:	c83e                	sw	a5,16(sp)
8000224e:	b7e1                	j	80002216 <_vfiprintf_r+0x174>
80002250:	036787b3          	mul	a5,a5,s6
80002254:	842e                	mv	s0,a1
80002256:	4685                	li	a3,1
80002258:	97ba                	add	a5,a5,a4
8000225a:	bf25                	j	80002192 <_vfiprintf_r+0xf0>
8000225c:	57fd                	li	a5,-1
8000225e:	b7c5                	j	8000223e <_vfiprintf_r+0x19c>
80002260:	0405                	addi	s0,s0,1
80002262:	ca02                	sw	zero,20(sp)
80002264:	4681                	li	a3,0
80002266:	4781                	li	a5,0
80002268:	4625                	li	a2,9
8000226a:	00044703          	lbu	a4,0(s0)
8000226e:	00140593          	addi	a1,s0,1
80002272:	fd070713          	addi	a4,a4,-48
80002276:	06e67463          	bgeu	a2,a4,800022de <_vfiprintf_r+0x23c>
8000227a:	f2f1                	bnez	a3,8000223e <_vfiprintf_r+0x19c>
8000227c:	00044583          	lbu	a1,0(s0)
80002280:	460d                	li	a2,3
80002282:	00002517          	auipc	a0,0x2
80002286:	0ea50513          	addi	a0,a0,234 # 8000436c <__sf_fake_stdout+0x28>
8000228a:	2bf1                	jal	80002866 <memchr>
8000228c:	cd11                	beqz	a0,800022a8 <_vfiprintf_r+0x206>
8000228e:	00002797          	auipc	a5,0x2
80002292:	0de78793          	addi	a5,a5,222 # 8000436c <__sf_fake_stdout+0x28>
80002296:	8d1d                	sub	a0,a0,a5
80002298:	04000793          	li	a5,64
8000229c:	00a797b3          	sll	a5,a5,a0
800022a0:	4542                	lw	a0,16(sp)
800022a2:	0405                	addi	s0,s0,1
800022a4:	8d5d                	or	a0,a0,a5
800022a6:	c82a                	sw	a0,16(sp)
800022a8:	00044583          	lbu	a1,0(s0)
800022ac:	4619                	li	a2,6
800022ae:	00002517          	auipc	a0,0x2
800022b2:	0c250513          	addi	a0,a0,194 # 80004370 <__sf_fake_stdout+0x2c>
800022b6:	00140913          	addi	s2,s0,1
800022ba:	02b10423          	sb	a1,40(sp)
800022be:	2365                	jal	80002866 <memchr>
800022c0:	c12d                	beqz	a0,80002322 <_vfiprintf_r+0x280>
800022c2:	00000793          	li	a5,0
800022c6:	e795                	bnez	a5,800022f2 <_vfiprintf_r+0x250>
800022c8:	4742                	lw	a4,16(sp)
800022ca:	47b2                	lw	a5,12(sp)
800022cc:	10077713          	andi	a4,a4,256
800022d0:	cf09                	beqz	a4,800022ea <_vfiprintf_r+0x248>
800022d2:	0791                	addi	a5,a5,4
800022d4:	c63e                	sw	a5,12(sp)
800022d6:	5792                	lw	a5,36(sp)
800022d8:	97d2                	add	a5,a5,s4
800022da:	d23e                	sw	a5,36(sp)
800022dc:	b53d                	j	8000210a <_vfiprintf_r+0x68>
800022de:	036787b3          	mul	a5,a5,s6
800022e2:	842e                	mv	s0,a1
800022e4:	4685                	li	a3,1
800022e6:	97ba                	add	a5,a5,a4
800022e8:	b749                	j	8000226a <_vfiprintf_r+0x1c8>
800022ea:	079d                	addi	a5,a5,7
800022ec:	9be1                	andi	a5,a5,-8
800022ee:	07a1                	addi	a5,a5,8
800022f0:	b7d5                	j	800022d4 <_vfiprintf_r+0x232>
800022f2:	0078                	addi	a4,sp,12
800022f4:	00000697          	auipc	a3,0x0
800022f8:	d6c68693          	addi	a3,a3,-660 # 80002060 <__sfputs_r>
800022fc:	8626                	mv	a2,s1
800022fe:	080c                	addi	a1,sp,16
80002300:	854e                	mv	a0,s3
80002302:	00000097          	auipc	ra,0x0
80002306:	000000e7          	jalr	zero # 0 <__stack_size-0x800>
8000230a:	57fd                	li	a5,-1
8000230c:	8a2a                	mv	s4,a0
8000230e:	fcf514e3          	bne	a0,a5,800022d6 <_vfiprintf_r+0x234>
80002312:	00c4d783          	lhu	a5,12(s1)
80002316:	0407f793          	andi	a5,a5,64
8000231a:	ea079ee3          	bnez	a5,800021d6 <_vfiprintf_r+0x134>
8000231e:	5512                	lw	a0,36(sp)
80002320:	bd65                	j	800021d8 <_vfiprintf_r+0x136>
80002322:	0078                	addi	a4,sp,12
80002324:	00000697          	auipc	a3,0x0
80002328:	d3c68693          	addi	a3,a3,-708 # 80002060 <__sfputs_r>
8000232c:	8626                	mv	a2,s1
8000232e:	080c                	addi	a1,sp,16
80002330:	854e                	mv	a0,s3
80002332:	2a01                	jal	80002442 <_printf_i>
80002334:	bfd9                	j	8000230a <_vfiprintf_r+0x268>

80002336 <_printf_common>:
_printf_common():
80002336:	7179                	addi	sp,sp,-48
80002338:	cc52                	sw	s4,24(sp)
8000233a:	499c                	lw	a5,16(a1)
8000233c:	8a3a                	mv	s4,a4
8000233e:	4598                	lw	a4,8(a1)
80002340:	d422                	sw	s0,40(sp)
80002342:	d226                	sw	s1,36(sp)
80002344:	ce4e                	sw	s3,28(sp)
80002346:	ca56                	sw	s5,20(sp)
80002348:	d606                	sw	ra,44(sp)
8000234a:	d04a                	sw	s2,32(sp)
8000234c:	c85a                	sw	s6,16(sp)
8000234e:	c65e                	sw	s7,12(sp)
80002350:	89aa                	mv	s3,a0
80002352:	842e                	mv	s0,a1
80002354:	84b2                	mv	s1,a2
80002356:	8ab6                	mv	s5,a3
80002358:	00e7d363          	bge	a5,a4,8000235e <_printf_common+0x28>
8000235c:	87ba                	mv	a5,a4
8000235e:	c09c                	sw	a5,0(s1)
80002360:	04344703          	lbu	a4,67(s0)
80002364:	c319                	beqz	a4,8000236a <_printf_common+0x34>
80002366:	0785                	addi	a5,a5,1
80002368:	c09c                	sw	a5,0(s1)
8000236a:	401c                	lw	a5,0(s0)
8000236c:	0207f793          	andi	a5,a5,32
80002370:	c781                	beqz	a5,80002378 <_printf_common+0x42>
80002372:	409c                	lw	a5,0(s1)
80002374:	0789                	addi	a5,a5,2
80002376:	c09c                	sw	a5,0(s1)
80002378:	00042903          	lw	s2,0(s0)
8000237c:	00697913          	andi	s2,s2,6
80002380:	00091a63          	bnez	s2,80002394 <_printf_common+0x5e>
80002384:	01940b13          	addi	s6,s0,25
80002388:	5bfd                	li	s7,-1
8000238a:	445c                	lw	a5,12(s0)
8000238c:	4098                	lw	a4,0(s1)
8000238e:	8f99                	sub	a5,a5,a4
80002390:	04f94c63          	blt	s2,a5,800023e8 <_printf_common+0xb2>
80002394:	04344783          	lbu	a5,67(s0)
80002398:	00f036b3          	snez	a3,a5
8000239c:	401c                	lw	a5,0(s0)
8000239e:	0207f793          	andi	a5,a5,32
800023a2:	eba5                	bnez	a5,80002412 <_printf_common+0xdc>
800023a4:	04340613          	addi	a2,s0,67
800023a8:	85d6                	mv	a1,s5
800023aa:	854e                	mv	a0,s3
800023ac:	9a02                	jalr	s4
800023ae:	57fd                	li	a5,-1
800023b0:	04f50363          	beq	a0,a5,800023f6 <_printf_common+0xc0>
800023b4:	401c                	lw	a5,0(s0)
800023b6:	4611                	li	a2,4
800023b8:	4098                	lw	a4,0(s1)
800023ba:	8b99                	andi	a5,a5,6
800023bc:	4454                	lw	a3,12(s0)
800023be:	4481                	li	s1,0
800023c0:	00c79763          	bne	a5,a2,800023ce <_printf_common+0x98>
800023c4:	40e684b3          	sub	s1,a3,a4
800023c8:	0004d363          	bgez	s1,800023ce <_printf_common+0x98>
800023cc:	4481                	li	s1,0
800023ce:	441c                	lw	a5,8(s0)
800023d0:	4818                	lw	a4,16(s0)
800023d2:	00f75463          	bge	a4,a5,800023da <_printf_common+0xa4>
800023d6:	8f99                	sub	a5,a5,a4
800023d8:	94be                	add	s1,s1,a5
800023da:	4901                	li	s2,0
800023dc:	0469                	addi	s0,s0,26
800023de:	5b7d                	li	s6,-1
800023e0:	05249863          	bne	s1,s2,80002430 <_printf_common+0xfa>
800023e4:	4501                	li	a0,0
800023e6:	a809                	j	800023f8 <_printf_common+0xc2>
800023e8:	4685                	li	a3,1
800023ea:	865a                	mv	a2,s6
800023ec:	85d6                	mv	a1,s5
800023ee:	854e                	mv	a0,s3
800023f0:	9a02                	jalr	s4
800023f2:	01751e63          	bne	a0,s7,8000240e <_printf_common+0xd8>
800023f6:	557d                	li	a0,-1
800023f8:	50b2                	lw	ra,44(sp)
800023fa:	5422                	lw	s0,40(sp)
800023fc:	5492                	lw	s1,36(sp)
800023fe:	5902                	lw	s2,32(sp)
80002400:	49f2                	lw	s3,28(sp)
80002402:	4a62                	lw	s4,24(sp)
80002404:	4ad2                	lw	s5,20(sp)
80002406:	4b42                	lw	s6,16(sp)
80002408:	4bb2                	lw	s7,12(sp)
8000240a:	6145                	addi	sp,sp,48
8000240c:	8082                	ret
8000240e:	0905                	addi	s2,s2,1
80002410:	bfad                	j	8000238a <_printf_common+0x54>
80002412:	00d40733          	add	a4,s0,a3
80002416:	03000613          	li	a2,48
8000241a:	04c701a3          	sb	a2,67(a4)
8000241e:	04544703          	lbu	a4,69(s0)
80002422:	00168793          	addi	a5,a3,1
80002426:	97a2                	add	a5,a5,s0
80002428:	0689                	addi	a3,a3,2
8000242a:	04e781a3          	sb	a4,67(a5)
8000242e:	bf9d                	j	800023a4 <_printf_common+0x6e>
80002430:	4685                	li	a3,1
80002432:	8622                	mv	a2,s0
80002434:	85d6                	mv	a1,s5
80002436:	854e                	mv	a0,s3
80002438:	9a02                	jalr	s4
8000243a:	fb650ee3          	beq	a0,s6,800023f6 <_printf_common+0xc0>
8000243e:	0905                	addi	s2,s2,1
80002440:	b745                	j	800023e0 <_printf_common+0xaa>

80002442 <_printf_i>:
_printf_i():
80002442:	7179                	addi	sp,sp,-48
80002444:	d422                	sw	s0,40(sp)
80002446:	d226                	sw	s1,36(sp)
80002448:	d04a                	sw	s2,32(sp)
8000244a:	ce4e                	sw	s3,28(sp)
8000244c:	d606                	sw	ra,44(sp)
8000244e:	cc52                	sw	s4,24(sp)
80002450:	ca56                	sw	s5,20(sp)
80002452:	c85a                	sw	s6,16(sp)
80002454:	0185c803          	lbu	a6,24(a1)
80002458:	07800793          	li	a5,120
8000245c:	84aa                	mv	s1,a0
8000245e:	842e                	mv	s0,a1
80002460:	8932                	mv	s2,a2
80002462:	89b6                	mv	s3,a3
80002464:	0107ee63          	bltu	a5,a6,80002480 <_printf_i+0x3e>
80002468:	06200793          	li	a5,98
8000246c:	04358693          	addi	a3,a1,67
80002470:	0107ed63          	bltu	a5,a6,8000248a <_printf_i+0x48>
80002474:	1c080563          	beqz	a6,8000263e <_printf_i+0x1fc>
80002478:	05800793          	li	a5,88
8000247c:	12f80a63          	beq	a6,a5,800025b0 <_printf_i+0x16e>
80002480:	04240a93          	addi	s5,s0,66
80002484:	05040123          	sb	a6,66(s0)
80002488:	a815                	j	800024bc <_printf_i+0x7a>
8000248a:	f9d80793          	addi	a5,a6,-99
8000248e:	0ff7f793          	zext.b	a5,a5
80002492:	4655                	li	a2,21
80002494:	fef666e3          	bltu	a2,a5,80002480 <_printf_i+0x3e>
80002498:	00002617          	auipc	a2,0x2
8000249c:	f0860613          	addi	a2,a2,-248 # 800043a0 <__sf_fake_stdout+0x5c>
800024a0:	078a                	slli	a5,a5,0x2
800024a2:	97b2                	add	a5,a5,a2
800024a4:	439c                	lw	a5,0(a5)
800024a6:	97b2                	add	a5,a5,a2
800024a8:	8782                	jr	a5
800024aa:	431c                	lw	a5,0(a4)
800024ac:	04258a93          	addi	s5,a1,66
800024b0:	00478693          	addi	a3,a5,4
800024b4:	439c                	lw	a5,0(a5)
800024b6:	c314                	sw	a3,0(a4)
800024b8:	04f58123          	sb	a5,66(a1)
800024bc:	4785                	li	a5,1
800024be:	a25d                	j	80002664 <_printf_i+0x222>
800024c0:	419c                	lw	a5,0(a1)
800024c2:	4308                	lw	a0,0(a4)
800024c4:	0807f613          	andi	a2,a5,128
800024c8:	00450593          	addi	a1,a0,4
800024cc:	c20d                	beqz	a2,800024ee <_printf_i+0xac>
800024ce:	411c                	lw	a5,0(a0)
800024d0:	c30c                	sw	a1,0(a4)
800024d2:	0007d863          	bgez	a5,800024e2 <_printf_i+0xa0>
800024d6:	02d00713          	li	a4,45
800024da:	40f007b3          	neg	a5,a5
800024de:	04e401a3          	sb	a4,67(s0)
800024e2:	00002617          	auipc	a2,0x2
800024e6:	e9660613          	addi	a2,a2,-362 # 80004378 <__sf_fake_stdout+0x34>
800024ea:	4829                	li	a6,10
800024ec:	a0a1                	j	80002534 <_printf_i+0xf2>
800024ee:	0407f613          	andi	a2,a5,64
800024f2:	411c                	lw	a5,0(a0)
800024f4:	c30c                	sw	a1,0(a4)
800024f6:	de71                	beqz	a2,800024d2 <_printf_i+0x90>
800024f8:	07c2                	slli	a5,a5,0x10
800024fa:	87c1                	srai	a5,a5,0x10
800024fc:	bfd9                	j	800024d2 <_printf_i+0x90>
800024fe:	4190                	lw	a2,0(a1)
80002500:	431c                	lw	a5,0(a4)
80002502:	08067513          	andi	a0,a2,128
80002506:	00478593          	addi	a1,a5,4
8000250a:	c501                	beqz	a0,80002512 <_printf_i+0xd0>
8000250c:	c30c                	sw	a1,0(a4)
8000250e:	439c                	lw	a5,0(a5)
80002510:	a039                	j	8000251e <_printf_i+0xdc>
80002512:	04067613          	andi	a2,a2,64
80002516:	c30c                	sw	a1,0(a4)
80002518:	da7d                	beqz	a2,8000250e <_printf_i+0xcc>
8000251a:	0007d783          	lhu	a5,0(a5)
8000251e:	06f00713          	li	a4,111
80002522:	00002617          	auipc	a2,0x2
80002526:	e5660613          	addi	a2,a2,-426 # 80004378 <__sf_fake_stdout+0x34>
8000252a:	0ee80463          	beq	a6,a4,80002612 <_printf_i+0x1d0>
8000252e:	4829                	li	a6,10
80002530:	040401a3          	sb	zero,67(s0)
80002534:	4058                	lw	a4,4(s0)
80002536:	c418                	sw	a4,8(s0)
80002538:	00074563          	bltz	a4,80002542 <_printf_i+0x100>
8000253c:	400c                	lw	a1,0(s0)
8000253e:	99ed                	andi	a1,a1,-5
80002540:	c00c                	sw	a1,0(s0)
80002542:	e399                	bnez	a5,80002548 <_printf_i+0x106>
80002544:	8ab6                	mv	s5,a3
80002546:	cf19                	beqz	a4,80002564 <_printf_i+0x122>
80002548:	8ab6                	mv	s5,a3
8000254a:	0307f733          	remu	a4,a5,a6
8000254e:	1afd                	addi	s5,s5,-1
80002550:	9732                	add	a4,a4,a2
80002552:	00074703          	lbu	a4,0(a4)
80002556:	00ea8023          	sb	a4,0(s5)
8000255a:	873e                	mv	a4,a5
8000255c:	0307d7b3          	divu	a5,a5,a6
80002560:	ff0775e3          	bgeu	a4,a6,8000254a <_printf_i+0x108>
80002564:	47a1                	li	a5,8
80002566:	00f81e63          	bne	a6,a5,80002582 <_printf_i+0x140>
8000256a:	401c                	lw	a5,0(s0)
8000256c:	8b85                	andi	a5,a5,1
8000256e:	cb91                	beqz	a5,80002582 <_printf_i+0x140>
80002570:	4058                	lw	a4,4(s0)
80002572:	481c                	lw	a5,16(s0)
80002574:	00e7c763          	blt	a5,a4,80002582 <_printf_i+0x140>
80002578:	03000793          	li	a5,48
8000257c:	fefa8fa3          	sb	a5,-1(s5)
80002580:	1afd                	addi	s5,s5,-1
80002582:	415686b3          	sub	a3,a3,s5
80002586:	c814                	sw	a3,16(s0)
80002588:	874e                	mv	a4,s3
8000258a:	86ca                	mv	a3,s2
8000258c:	0070                	addi	a2,sp,12
8000258e:	85a2                	mv	a1,s0
80002590:	8526                	mv	a0,s1
80002592:	3355                	jal	80002336 <_printf_common>
80002594:	5a7d                	li	s4,-1
80002596:	0d451b63          	bne	a0,s4,8000266c <_printf_i+0x22a>
8000259a:	557d                	li	a0,-1
8000259c:	50b2                	lw	ra,44(sp)
8000259e:	5422                	lw	s0,40(sp)
800025a0:	5492                	lw	s1,36(sp)
800025a2:	5902                	lw	s2,32(sp)
800025a4:	49f2                	lw	s3,28(sp)
800025a6:	4a62                	lw	s4,24(sp)
800025a8:	4ad2                	lw	s5,20(sp)
800025aa:	4b42                	lw	s6,16(sp)
800025ac:	6145                	addi	sp,sp,48
800025ae:	8082                	ret
800025b0:	050582a3          	sb	a6,69(a1)
800025b4:	00002617          	auipc	a2,0x2
800025b8:	dc460613          	addi	a2,a2,-572 # 80004378 <__sf_fake_stdout+0x34>
800025bc:	400c                	lw	a1,0(s0)
800025be:	4308                	lw	a0,0(a4)
800025c0:	0805f813          	andi	a6,a1,128
800025c4:	411c                	lw	a5,0(a0)
800025c6:	0511                	addi	a0,a0,4
800025c8:	02080d63          	beqz	a6,80002602 <_printf_i+0x1c0>
800025cc:	c308                	sw	a0,0(a4)
800025ce:	0015f713          	andi	a4,a1,1
800025d2:	c701                	beqz	a4,800025da <_printf_i+0x198>
800025d4:	0205e593          	ori	a1,a1,32
800025d8:	c00c                	sw	a1,0(s0)
800025da:	4841                	li	a6,16
800025dc:	fbb1                	bnez	a5,80002530 <_printf_i+0xee>
800025de:	4018                	lw	a4,0(s0)
800025e0:	fdf77713          	andi	a4,a4,-33
800025e4:	c018                	sw	a4,0(s0)
800025e6:	b7a9                	j	80002530 <_printf_i+0xee>
800025e8:	419c                	lw	a5,0(a1)
800025ea:	0207e793          	ori	a5,a5,32
800025ee:	c19c                	sw	a5,0(a1)
800025f0:	07800793          	li	a5,120
800025f4:	04f402a3          	sb	a5,69(s0)
800025f8:	00002617          	auipc	a2,0x2
800025fc:	d9460613          	addi	a2,a2,-620 # 8000438c <__sf_fake_stdout+0x48>
80002600:	bf75                	j	800025bc <_printf_i+0x17a>
80002602:	0405f813          	andi	a6,a1,64
80002606:	c308                	sw	a0,0(a4)
80002608:	fc0803e3          	beqz	a6,800025ce <_printf_i+0x18c>
8000260c:	07c2                	slli	a5,a5,0x10
8000260e:	83c1                	srli	a5,a5,0x10
80002610:	bf7d                	j	800025ce <_printf_i+0x18c>
80002612:	4821                	li	a6,8
80002614:	bf31                	j	80002530 <_printf_i+0xee>
80002616:	4190                	lw	a2,0(a1)
80002618:	431c                	lw	a5,0(a4)
8000261a:	49cc                	lw	a1,20(a1)
8000261c:	08067813          	andi	a6,a2,128
80002620:	00478513          	addi	a0,a5,4
80002624:	00080663          	beqz	a6,80002630 <_printf_i+0x1ee>
80002628:	c308                	sw	a0,0(a4)
8000262a:	439c                	lw	a5,0(a5)
8000262c:	c38c                	sw	a1,0(a5)
8000262e:	a801                	j	8000263e <_printf_i+0x1fc>
80002630:	c308                	sw	a0,0(a4)
80002632:	04067613          	andi	a2,a2,64
80002636:	439c                	lw	a5,0(a5)
80002638:	da75                	beqz	a2,8000262c <_printf_i+0x1ea>
8000263a:	00b79023          	sh	a1,0(a5)
8000263e:	00042823          	sw	zero,16(s0)
80002642:	8ab6                	mv	s5,a3
80002644:	b791                	j	80002588 <_printf_i+0x146>
80002646:	431c                	lw	a5,0(a4)
80002648:	41d0                	lw	a2,4(a1)
8000264a:	4581                	li	a1,0
8000264c:	00478693          	addi	a3,a5,4
80002650:	c314                	sw	a3,0(a4)
80002652:	0007aa83          	lw	s5,0(a5)
80002656:	8556                	mv	a0,s5
80002658:	2439                	jal	80002866 <memchr>
8000265a:	c501                	beqz	a0,80002662 <_printf_i+0x220>
8000265c:	41550533          	sub	a0,a0,s5
80002660:	c048                	sw	a0,4(s0)
80002662:	405c                	lw	a5,4(s0)
80002664:	c81c                	sw	a5,16(s0)
80002666:	040401a3          	sb	zero,67(s0)
8000266a:	bf39                	j	80002588 <_printf_i+0x146>
8000266c:	4814                	lw	a3,16(s0)
8000266e:	8656                	mv	a2,s5
80002670:	85ca                	mv	a1,s2
80002672:	8526                	mv	a0,s1
80002674:	9982                	jalr	s3
80002676:	f34502e3          	beq	a0,s4,8000259a <_printf_i+0x158>
8000267a:	401c                	lw	a5,0(s0)
8000267c:	8b89                	andi	a5,a5,2
8000267e:	e78d                	bnez	a5,800026a8 <_printf_i+0x266>
80002680:	47b2                	lw	a5,12(sp)
80002682:	4448                	lw	a0,12(s0)
80002684:	f0f55ce3          	bge	a0,a5,8000259c <_printf_i+0x15a>
80002688:	853e                	mv	a0,a5
8000268a:	bf09                	j	8000259c <_printf_i+0x15a>
8000268c:	4685                	li	a3,1
8000268e:	8656                	mv	a2,s5
80002690:	85ca                	mv	a1,s2
80002692:	8526                	mv	a0,s1
80002694:	9982                	jalr	s3
80002696:	f16502e3          	beq	a0,s6,8000259a <_printf_i+0x158>
8000269a:	0a05                	addi	s4,s4,1
8000269c:	445c                	lw	a5,12(s0)
8000269e:	4732                	lw	a4,12(sp)
800026a0:	8f99                	sub	a5,a5,a4
800026a2:	fefa45e3          	blt	s4,a5,8000268c <_printf_i+0x24a>
800026a6:	bfe9                	j	80002680 <_printf_i+0x23e>
800026a8:	4a01                	li	s4,0
800026aa:	01940a93          	addi	s5,s0,25
800026ae:	5b7d                	li	s6,-1
800026b0:	b7f5                	j	8000269c <_printf_i+0x25a>

800026b2 <_sbrk_r>:
_sbrk_r():
800026b2:	1141                	addi	sp,sp,-16
800026b4:	c422                	sw	s0,8(sp)
800026b6:	842a                	mv	s0,a0
800026b8:	852e                	mv	a0,a1
800026ba:	8201a623          	sw	zero,-2004(gp) # 9000008c <errno>
800026be:	c606                	sw	ra,12(sp)
800026c0:	a63fd0ef          	jal	ra,80000122 <_sbrk>
800026c4:	57fd                	li	a5,-1
800026c6:	00f51663          	bne	a0,a5,800026d2 <_sbrk_r+0x20>
800026ca:	82c1a783          	lw	a5,-2004(gp) # 9000008c <errno>
800026ce:	c391                	beqz	a5,800026d2 <_sbrk_r+0x20>
800026d0:	c01c                	sw	a5,0(s0)
800026d2:	40b2                	lw	ra,12(sp)
800026d4:	4422                	lw	s0,8(sp)
800026d6:	0141                	addi	sp,sp,16
800026d8:	8082                	ret

800026da <__sread>:
__sread():
800026da:	1141                	addi	sp,sp,-16
800026dc:	c422                	sw	s0,8(sp)
800026de:	842e                	mv	s0,a1
800026e0:	00e59583          	lh	a1,14(a1)
800026e4:	c606                	sw	ra,12(sp)
800026e6:	2a79                	jal	80002884 <_read_r>
800026e8:	00054963          	bltz	a0,800026fa <__sread+0x20>
800026ec:	487c                	lw	a5,84(s0)
800026ee:	97aa                	add	a5,a5,a0
800026f0:	c87c                	sw	a5,84(s0)
800026f2:	40b2                	lw	ra,12(sp)
800026f4:	4422                	lw	s0,8(sp)
800026f6:	0141                	addi	sp,sp,16
800026f8:	8082                	ret
800026fa:	00c45783          	lhu	a5,12(s0)
800026fe:	777d                	lui	a4,0xfffff
80002700:	177d                	addi	a4,a4,-1
80002702:	8ff9                	and	a5,a5,a4
80002704:	00f41623          	sh	a5,12(s0)
80002708:	b7ed                	j	800026f2 <__sread+0x18>

8000270a <__swrite>:
__swrite():
8000270a:	00c5d783          	lhu	a5,12(a1)
8000270e:	1101                	addi	sp,sp,-32
80002710:	cc22                	sw	s0,24(sp)
80002712:	ca26                	sw	s1,20(sp)
80002714:	c84a                	sw	s2,16(sp)
80002716:	c64e                	sw	s3,12(sp)
80002718:	ce06                	sw	ra,28(sp)
8000271a:	1007f793          	andi	a5,a5,256
8000271e:	84aa                	mv	s1,a0
80002720:	842e                	mv	s0,a1
80002722:	8932                	mv	s2,a2
80002724:	89b6                	mv	s3,a3
80002726:	c791                	beqz	a5,80002732 <__swrite+0x28>
80002728:	00e59583          	lh	a1,14(a1)
8000272c:	4689                	li	a3,2
8000272e:	4601                	li	a2,0
80002730:	2229                	jal	8000283a <_lseek_r>
80002732:	00c45783          	lhu	a5,12(s0)
80002736:	777d                	lui	a4,0xfffff
80002738:	177d                	addi	a4,a4,-1
8000273a:	8ff9                	and	a5,a5,a4
8000273c:	00e41583          	lh	a1,14(s0)
80002740:	00f41623          	sh	a5,12(s0)
80002744:	4462                	lw	s0,24(sp)
80002746:	40f2                	lw	ra,28(sp)
80002748:	86ce                	mv	a3,s3
8000274a:	864a                	mv	a2,s2
8000274c:	49b2                	lw	s3,12(sp)
8000274e:	4942                	lw	s2,16(sp)
80002750:	8526                	mv	a0,s1
80002752:	44d2                	lw	s1,20(sp)
80002754:	6105                	addi	sp,sp,32
80002756:	a83d                	j	80002794 <_write_r>

80002758 <__sseek>:
__sseek():
80002758:	1141                	addi	sp,sp,-16
8000275a:	c422                	sw	s0,8(sp)
8000275c:	842e                	mv	s0,a1
8000275e:	00e59583          	lh	a1,14(a1)
80002762:	c606                	sw	ra,12(sp)
80002764:	28d9                	jal	8000283a <_lseek_r>
80002766:	57fd                	li	a5,-1
80002768:	00c45703          	lhu	a4,12(s0)
8000276c:	00f51b63          	bne	a0,a5,80002782 <__sseek+0x2a>
80002770:	77fd                	lui	a5,0xfffff
80002772:	17fd                	addi	a5,a5,-1
80002774:	8ff9                	and	a5,a5,a4
80002776:	00f41623          	sh	a5,12(s0)
8000277a:	40b2                	lw	ra,12(sp)
8000277c:	4422                	lw	s0,8(sp)
8000277e:	0141                	addi	sp,sp,16
80002780:	8082                	ret
80002782:	6785                	lui	a5,0x1
80002784:	8fd9                	or	a5,a5,a4
80002786:	00f41623          	sh	a5,12(s0)
8000278a:	c868                	sw	a0,84(s0)
8000278c:	b7fd                	j	8000277a <__sseek+0x22>

8000278e <__sclose>:
__sclose():
8000278e:	00e59583          	lh	a1,14(a1)
80002792:	a03d                	j	800027c0 <_close_r>

80002794 <_write_r>:
_write_r():
80002794:	1141                	addi	sp,sp,-16
80002796:	c422                	sw	s0,8(sp)
80002798:	842a                	mv	s0,a0
8000279a:	852e                	mv	a0,a1
8000279c:	85b2                	mv	a1,a2
8000279e:	8636                	mv	a2,a3
800027a0:	8201a623          	sw	zero,-2004(gp) # 9000008c <errno>
800027a4:	c606                	sw	ra,12(sp)
800027a6:	9a9fd0ef          	jal	ra,8000014e <_write>
800027aa:	57fd                	li	a5,-1
800027ac:	00f51663          	bne	a0,a5,800027b8 <_write_r+0x24>
800027b0:	82c1a783          	lw	a5,-2004(gp) # 9000008c <errno>
800027b4:	c391                	beqz	a5,800027b8 <_write_r+0x24>
800027b6:	c01c                	sw	a5,0(s0)
800027b8:	40b2                	lw	ra,12(sp)
800027ba:	4422                	lw	s0,8(sp)
800027bc:	0141                	addi	sp,sp,16
800027be:	8082                	ret

800027c0 <_close_r>:
_close_r():
800027c0:	1141                	addi	sp,sp,-16
800027c2:	c422                	sw	s0,8(sp)
800027c4:	842a                	mv	s0,a0
800027c6:	852e                	mv	a0,a1
800027c8:	8201a623          	sw	zero,-2004(gp) # 9000008c <errno>
800027cc:	c606                	sw	ra,12(sp)
800027ce:	907fd0ef          	jal	ra,800000d4 <_close>
800027d2:	57fd                	li	a5,-1
800027d4:	00f51663          	bne	a0,a5,800027e0 <_close_r+0x20>
800027d8:	82c1a783          	lw	a5,-2004(gp) # 9000008c <errno>
800027dc:	c391                	beqz	a5,800027e0 <_close_r+0x20>
800027de:	c01c                	sw	a5,0(s0)
800027e0:	40b2                	lw	ra,12(sp)
800027e2:	4422                	lw	s0,8(sp)
800027e4:	0141                	addi	sp,sp,16
800027e6:	8082                	ret

800027e8 <_fstat_r>:
_fstat_r():
800027e8:	1141                	addi	sp,sp,-16
800027ea:	c422                	sw	s0,8(sp)
800027ec:	842a                	mv	s0,a0
800027ee:	852e                	mv	a0,a1
800027f0:	85b2                	mv	a1,a2
800027f2:	8201a623          	sw	zero,-2004(gp) # 9000008c <errno>
800027f6:	c606                	sw	ra,12(sp)
800027f8:	8e7fd0ef          	jal	ra,800000de <_fstat>
800027fc:	57fd                	li	a5,-1
800027fe:	00f51663          	bne	a0,a5,8000280a <_fstat_r+0x22>
80002802:	82c1a783          	lw	a5,-2004(gp) # 9000008c <errno>
80002806:	c391                	beqz	a5,8000280a <_fstat_r+0x22>
80002808:	c01c                	sw	a5,0(s0)
8000280a:	40b2                	lw	ra,12(sp)
8000280c:	4422                	lw	s0,8(sp)
8000280e:	0141                	addi	sp,sp,16
80002810:	8082                	ret

80002812 <_isatty_r>:
_isatty_r():
80002812:	1141                	addi	sp,sp,-16
80002814:	c422                	sw	s0,8(sp)
80002816:	842a                	mv	s0,a0
80002818:	852e                	mv	a0,a1
8000281a:	8201a623          	sw	zero,-2004(gp) # 9000008c <errno>
8000281e:	c606                	sw	ra,12(sp)
80002820:	8d9fd0ef          	jal	ra,800000f8 <_isatty>
80002824:	57fd                	li	a5,-1
80002826:	00f51663          	bne	a0,a5,80002832 <_isatty_r+0x20>
8000282a:	82c1a783          	lw	a5,-2004(gp) # 9000008c <errno>
8000282e:	c391                	beqz	a5,80002832 <_isatty_r+0x20>
80002830:	c01c                	sw	a5,0(s0)
80002832:	40b2                	lw	ra,12(sp)
80002834:	4422                	lw	s0,8(sp)
80002836:	0141                	addi	sp,sp,16
80002838:	8082                	ret

8000283a <_lseek_r>:
_lseek_r():
8000283a:	1141                	addi	sp,sp,-16
8000283c:	c422                	sw	s0,8(sp)
8000283e:	842a                	mv	s0,a0
80002840:	852e                	mv	a0,a1
80002842:	85b2                	mv	a1,a2
80002844:	8636                	mv	a2,a3
80002846:	8201a623          	sw	zero,-2004(gp) # 9000008c <errno>
8000284a:	c606                	sw	ra,12(sp)
8000284c:	8b1fd0ef          	jal	ra,800000fc <_lseek>
80002850:	57fd                	li	a5,-1
80002852:	00f51663          	bne	a0,a5,8000285e <_lseek_r+0x24>
80002856:	82c1a783          	lw	a5,-2004(gp) # 9000008c <errno>
8000285a:	c391                	beqz	a5,8000285e <_lseek_r+0x24>
8000285c:	c01c                	sw	a5,0(s0)
8000285e:	40b2                	lw	ra,12(sp)
80002860:	4422                	lw	s0,8(sp)
80002862:	0141                	addi	sp,sp,16
80002864:	8082                	ret

80002866 <memchr>:
memchr():
80002866:	0ff5f593          	zext.b	a1,a1
8000286a:	962a                	add	a2,a2,a0
8000286c:	00c51463          	bne	a0,a2,80002874 <memchr+0xe>
80002870:	4501                	li	a0,0
80002872:	8082                	ret
80002874:	00054783          	lbu	a5,0(a0)
80002878:	feb78de3          	beq	a5,a1,80002872 <memchr+0xc>
8000287c:	0505                	addi	a0,a0,1
8000287e:	b7fd                	j	8000286c <memchr+0x6>

80002880 <__malloc_lock>:
__malloc_lock():
80002880:	8082                	ret

80002882 <__malloc_unlock>:
__malloc_unlock():
80002882:	8082                	ret

80002884 <_read_r>:
_read_r():
80002884:	1141                	addi	sp,sp,-16
80002886:	c422                	sw	s0,8(sp)
80002888:	842a                	mv	s0,a0
8000288a:	852e                	mv	a0,a1
8000288c:	85b2                	mv	a1,a2
8000288e:	8636                	mv	a2,a3
80002890:	8201a623          	sw	zero,-2004(gp) # 9000008c <errno>
80002894:	c606                	sw	ra,12(sp)
80002896:	86bfd0ef          	jal	ra,80000100 <_read>
8000289a:	57fd                	li	a5,-1
8000289c:	00f51663          	bne	a0,a5,800028a8 <_read_r+0x24>
800028a0:	82c1a783          	lw	a5,-2004(gp) # 9000008c <errno>
800028a4:	c391                	beqz	a5,800028a8 <_read_r+0x24>
800028a6:	c01c                	sw	a5,0(s0)
800028a8:	40b2                	lw	ra,12(sp)
800028aa:	4422                	lw	s0,8(sp)
800028ac:	0141                	addi	sp,sp,16
800028ae:	8082                	ret
